ARM GAS  /tmp/ccI1U7qO.s 			page 1


   1              		.cpu cortex-m7
   2              		.eabi_attribute 28, 1
   3              		.eabi_attribute 20, 1
   4              		.eabi_attribute 21, 1
   5              		.eabi_attribute 23, 3
   6              		.eabi_attribute 24, 1
   7              		.eabi_attribute 25, 1
   8              		.eabi_attribute 26, 1
   9              		.eabi_attribute 30, 1
  10              		.eabi_attribute 34, 1
  11              		.eabi_attribute 18, 4
  12              		.file	"gpio.c"
  13              		.text
  14              	.Ltext0:
  15              		.cfi_sections	.debug_frame
  16              		.section	.text.MX_GPIO_Init,"ax",%progbits
  17              		.align	1
  18              		.global	MX_GPIO_Init
  19              		.syntax unified
  20              		.thumb
  21              		.thumb_func
  22              		.fpu fpv5-d16
  24              	MX_GPIO_Init:
  25              	.LFB343:
  26              		.file 1 "Core/Src/gpio.c"
   1:Core/Src/gpio.c **** /**
   2:Core/Src/gpio.c ****   ******************************************************************************
   3:Core/Src/gpio.c ****   * @file    gpio.c
   4:Core/Src/gpio.c ****   * @brief   This file provides code for the configuration
   5:Core/Src/gpio.c ****   *          of all used GPIO pins.
   6:Core/Src/gpio.c ****   ******************************************************************************
   7:Core/Src/gpio.c ****   * @attention
   8:Core/Src/gpio.c ****   *
   9:Core/Src/gpio.c ****   * <h2><center>&copy; Copyright (c) 2021 STMicroelectronics.
  10:Core/Src/gpio.c ****   * All rights reserved.</center></h2>
  11:Core/Src/gpio.c ****   *
  12:Core/Src/gpio.c ****   * This software component is licensed by ST under BSD 3-Clause license,
  13:Core/Src/gpio.c ****   * the "License"; You may not use this file except in compliance with the
  14:Core/Src/gpio.c ****   * License. You may obtain a copy of the License at:
  15:Core/Src/gpio.c ****   *                        opensource.org/licenses/BSD-3-Clause
  16:Core/Src/gpio.c ****   *
  17:Core/Src/gpio.c ****   ******************************************************************************
  18:Core/Src/gpio.c ****   */
  19:Core/Src/gpio.c **** 
  20:Core/Src/gpio.c **** /* Includes ------------------------------------------------------------------*/
  21:Core/Src/gpio.c **** #include "gpio.h"
  22:Core/Src/gpio.c **** 
  23:Core/Src/gpio.c **** /* USER CODE BEGIN 0 */
  24:Core/Src/gpio.c **** 
  25:Core/Src/gpio.c **** /* USER CODE END 0 */
  26:Core/Src/gpio.c **** 
  27:Core/Src/gpio.c **** /*----------------------------------------------------------------------------*/
  28:Core/Src/gpio.c **** /* Configure GPIO                                                             */
  29:Core/Src/gpio.c **** /*----------------------------------------------------------------------------*/
  30:Core/Src/gpio.c **** /* USER CODE BEGIN 1 */
  31:Core/Src/gpio.c **** 
  32:Core/Src/gpio.c **** /* USER CODE END 1 */
ARM GAS  /tmp/ccI1U7qO.s 			page 2


  33:Core/Src/gpio.c **** 
  34:Core/Src/gpio.c **** /** Configure pins as
  35:Core/Src/gpio.c ****         * Analog
  36:Core/Src/gpio.c ****         * Input
  37:Core/Src/gpio.c ****         * Output
  38:Core/Src/gpio.c ****         * EVENT_OUT
  39:Core/Src/gpio.c ****         * EXTI
  40:Core/Src/gpio.c ****      PC0   ------> LTDC_R5
  41:Core/Src/gpio.c ****      PA4   ------> LTDC_VSYNC
  42:Core/Src/gpio.c ****      PA5   ------> LTDC_R4
  43:Core/Src/gpio.c ****      PE12   ------> LTDC_B4
  44:Core/Src/gpio.c ****      PE13   ------> LTDC_DE
  45:Core/Src/gpio.c ****      PE14   ------> LTDC_CLK
  46:Core/Src/gpio.c ****      PE15   ------> LTDC_R7
  47:Core/Src/gpio.c ****      PB10   ------> LTDC_G4
  48:Core/Src/gpio.c ****      PB11   ------> LTDC_G5
  49:Core/Src/gpio.c ****      PD8   ------> USART3_TX
  50:Core/Src/gpio.c ****      PD9   ------> USART3_RX
  51:Core/Src/gpio.c ****      PD11   ------> USART3_CTS
  52:Core/Src/gpio.c ****      PD12   ------> USART3_RTS
  53:Core/Src/gpio.c ****      PC6   ------> LTDC_HSYNC
  54:Core/Src/gpio.c ****      PC7   ------> LTDC_G6
  55:Core/Src/gpio.c ****      PA8   ------> LTDC_R6
  56:Core/Src/gpio.c ****      PA15(JTDI)   ------> LTDC_B6
  57:Core/Src/gpio.c ****      PD3   ------> LTDC_G7
  58:Core/Src/gpio.c ****      PB5   ------> LTDC_B5
  59:Core/Src/gpio.c ****      PB9   ------> LTDC_B7
  60:Core/Src/gpio.c **** */
  61:Core/Src/gpio.c **** void MX_GPIO_Init(void)
  62:Core/Src/gpio.c **** {
  27              		.loc 1 62 0
  28              		.cfi_startproc
  29              		@ args = 0, pretend = 0, frame = 48
  30              		@ frame_needed = 0, uses_anonymous_args = 0
  31 0000 2DE9F04F 		push	{r4, r5, r6, r7, r8, r9, r10, fp, lr}
  32              	.LCFI0:
  33              		.cfi_def_cfa_offset 36
  34              		.cfi_offset 4, -36
  35              		.cfi_offset 5, -32
  36              		.cfi_offset 6, -28
  37              		.cfi_offset 7, -24
  38              		.cfi_offset 8, -20
  39              		.cfi_offset 9, -16
  40              		.cfi_offset 10, -12
  41              		.cfi_offset 11, -8
  42              		.cfi_offset 14, -4
  43 0004 8DB0     		sub	sp, sp, #52
  44              	.LCFI1:
  45              		.cfi_def_cfa_offset 88
  63:Core/Src/gpio.c **** 
  64:Core/Src/gpio.c ****   GPIO_InitTypeDef GPIO_InitStruct = {0};
  46              		.loc 1 64 0
  47 0006 0024     		movs	r4, #0
  48 0008 0794     		str	r4, [sp, #28]
  49 000a 0894     		str	r4, [sp, #32]
  50 000c 0994     		str	r4, [sp, #36]
  51 000e 0A94     		str	r4, [sp, #40]
ARM GAS  /tmp/ccI1U7qO.s 			page 3


  52 0010 0B94     		str	r4, [sp, #44]
  53              	.LBB2:
  65:Core/Src/gpio.c **** 
  66:Core/Src/gpio.c ****   /* GPIO Ports Clock Enable */
  67:Core/Src/gpio.c ****   __HAL_RCC_GPIOE_CLK_ENABLE();
  54              		.loc 1 67 0
  55 0012 824B     		ldr	r3, .L3
  56 0014 D3F8E020 		ldr	r2, [r3, #224]
  57 0018 42F01002 		orr	r2, r2, #16
  58 001c C3F8E020 		str	r2, [r3, #224]
  59 0020 D3F8E020 		ldr	r2, [r3, #224]
  60 0024 02F01002 		and	r2, r2, #16
  61 0028 0192     		str	r2, [sp, #4]
  62 002a 019A     		ldr	r2, [sp, #4]
  63              	.LBE2:
  64              	.LBB3:
  68:Core/Src/gpio.c ****   __HAL_RCC_GPIOC_CLK_ENABLE();
  65              		.loc 1 68 0
  66 002c D3F8E020 		ldr	r2, [r3, #224]
  67 0030 42F00402 		orr	r2, r2, #4
  68 0034 C3F8E020 		str	r2, [r3, #224]
  69 0038 D3F8E020 		ldr	r2, [r3, #224]
  70 003c 02F00402 		and	r2, r2, #4
  71 0040 0292     		str	r2, [sp, #8]
  72 0042 029A     		ldr	r2, [sp, #8]
  73              	.LBE3:
  74              	.LBB4:
  69:Core/Src/gpio.c ****   __HAL_RCC_GPIOH_CLK_ENABLE();
  75              		.loc 1 69 0
  76 0044 D3F8E020 		ldr	r2, [r3, #224]
  77 0048 42F08002 		orr	r2, r2, #128
  78 004c C3F8E020 		str	r2, [r3, #224]
  79 0050 D3F8E020 		ldr	r2, [r3, #224]
  80 0054 02F08002 		and	r2, r2, #128
  81 0058 0392     		str	r2, [sp, #12]
  82 005a 039A     		ldr	r2, [sp, #12]
  83              	.LBE4:
  84              	.LBB5:
  70:Core/Src/gpio.c ****   __HAL_RCC_GPIOA_CLK_ENABLE();
  85              		.loc 1 70 0
  86 005c D3F8E020 		ldr	r2, [r3, #224]
  87 0060 42F00102 		orr	r2, r2, #1
  88 0064 C3F8E020 		str	r2, [r3, #224]
  89 0068 D3F8E020 		ldr	r2, [r3, #224]
  90 006c 02F00102 		and	r2, r2, #1
  91 0070 0492     		str	r2, [sp, #16]
  92 0072 049A     		ldr	r2, [sp, #16]
  93              	.LBE5:
  94              	.LBB6:
  71:Core/Src/gpio.c ****   __HAL_RCC_GPIOB_CLK_ENABLE();
  95              		.loc 1 71 0
  96 0074 D3F8E020 		ldr	r2, [r3, #224]
  97 0078 42F00202 		orr	r2, r2, #2
  98 007c C3F8E020 		str	r2, [r3, #224]
  99 0080 D3F8E020 		ldr	r2, [r3, #224]
 100 0084 02F00202 		and	r2, r2, #2
 101 0088 0592     		str	r2, [sp, #20]
ARM GAS  /tmp/ccI1U7qO.s 			page 4


 102 008a 059A     		ldr	r2, [sp, #20]
 103              	.LBE6:
 104              	.LBB7:
  72:Core/Src/gpio.c ****   __HAL_RCC_GPIOD_CLK_ENABLE();
 105              		.loc 1 72 0
 106 008c D3F8E020 		ldr	r2, [r3, #224]
 107 0090 42F00802 		orr	r2, r2, #8
 108 0094 C3F8E020 		str	r2, [r3, #224]
 109 0098 D3F8E030 		ldr	r3, [r3, #224]
 110 009c 03F00803 		and	r3, r3, #8
 111 00a0 0693     		str	r3, [sp, #24]
 112 00a2 069B     		ldr	r3, [sp, #24]
 113              	.LBE7:
  73:Core/Src/gpio.c **** 
  74:Core/Src/gpio.c ****   /*Configure GPIO pin Output Level */
  75:Core/Src/gpio.c ****   HAL_GPIO_WritePin(GPIOE, LED_L_Pin|SPI4_NCS_ACCEL_Pin|SP4_NCS_GYRO_Pin, GPIO_PIN_RESET);
 114              		.loc 1 75 0
 115 00a4 2246     		mov	r2, r4
 116 00a6 0B21     		movs	r1, #11
 117 00a8 5D48     		ldr	r0, .L3+4
 118 00aa FFF7FEFF 		bl	HAL_GPIO_WritePin
 119              	.LVL0:
  76:Core/Src/gpio.c **** 
  77:Core/Src/gpio.c ****   /*Configure GPIO pin Output Level */
  78:Core/Src/gpio.c ****   HAL_GPIO_WritePin(GPIOC, MCU_3V3_EN_Pin|LCD_REG_EN_Pin, GPIO_PIN_RESET);
 120              		.loc 1 78 0
 121 00ae DFF878A1 		ldr	r10, .L3+12
 122 00b2 2246     		mov	r2, r4
 123 00b4 1221     		movs	r1, #18
 124 00b6 5046     		mov	r0, r10
 125 00b8 FFF7FEFF 		bl	HAL_GPIO_WritePin
 126              	.LVL1:
  79:Core/Src/gpio.c **** 
  80:Core/Src/gpio.c ****   /*Configure GPIO pin Output Level */
  81:Core/Src/gpio.c ****   HAL_GPIO_WritePin(LED_R_GPIO_Port, LED_R_Pin, GPIO_PIN_RESET);
 127              		.loc 1 81 0
 128 00bc DFF86CB1 		ldr	fp, .L3+16
 129 00c0 2246     		mov	r2, r4
 130 00c2 0821     		movs	r1, #8
 131 00c4 5846     		mov	r0, fp
 132 00c6 FFF7FEFF 		bl	HAL_GPIO_WritePin
 133              	.LVL2:
  82:Core/Src/gpio.c **** 
  83:Core/Src/gpio.c ****   /*Configure GPIO pin Output Level */
  84:Core/Src/gpio.c ****   HAL_GPIO_WritePin(GPIOB, STM_VCORE_EN_Pin|STM_VCORE_D2_Pin|STM_VCORE_D1_Pin|STM_VCORE_D0_Pin, GPI
 134              		.loc 1 84 0
 135 00ca DFF86491 		ldr	r9, .L3+20
 136 00ce 2246     		mov	r2, r4
 137 00d0 4FF47041 		mov	r1, #61440
 138 00d4 4846     		mov	r0, r9
 139 00d6 FFF7FEFF 		bl	HAL_GPIO_WritePin
 140              	.LVL3:
  85:Core/Src/gpio.c **** 
  86:Core/Src/gpio.c ****   /*Configure GPIO pin Output Level */
  87:Core/Src/gpio.c ****   HAL_GPIO_WritePin(GPIOD, PERIPH_REG_EN_Pin|GPS_EXTINT0_Pin|GPS_FORCE_ON_Pin|SD_VSEL_Pin
 141              		.loc 1 87 0
 142 00da 524E     		ldr	r6, .L3+8
ARM GAS  /tmp/ccI1U7qO.s 			page 5


 143 00dc 2246     		mov	r2, r4
 144 00de 4CF24241 		movw	r1, #50242
 145 00e2 3046     		mov	r0, r6
 146 00e4 FFF7FEFF 		bl	HAL_GPIO_WritePin
 147              	.LVL4:
  88:Core/Src/gpio.c ****                           |FUEL_INT_Pin, GPIO_PIN_RESET);
  89:Core/Src/gpio.c **** 
  90:Core/Src/gpio.c ****   /*Configure GPIO pins : PEPin PEPin PEPin */
  91:Core/Src/gpio.c ****   GPIO_InitStruct.Pin = LED_L_Pin|SPI4_NCS_ACCEL_Pin|SP4_NCS_GYRO_Pin;
 148              		.loc 1 91 0
 149 00e8 0B23     		movs	r3, #11
 150 00ea 0793     		str	r3, [sp, #28]
  92:Core/Src/gpio.c ****   GPIO_InitStruct.Mode = GPIO_MODE_OUTPUT_PP;
 151              		.loc 1 92 0
 152 00ec 4FF00108 		mov	r8, #1
 153 00f0 CDF82080 		str	r8, [sp, #32]
  93:Core/Src/gpio.c ****   GPIO_InitStruct.Pull = GPIO_NOPULL;
 154              		.loc 1 93 0
 155 00f4 0994     		str	r4, [sp, #36]
  94:Core/Src/gpio.c ****   GPIO_InitStruct.Speed = GPIO_SPEED_FREQ_LOW;
 156              		.loc 1 94 0
 157 00f6 0A94     		str	r4, [sp, #40]
  95:Core/Src/gpio.c ****   HAL_GPIO_Init(GPIOE, &GPIO_InitStruct);
 158              		.loc 1 95 0
 159 00f8 07A9     		add	r1, sp, #28
 160 00fa 4948     		ldr	r0, .L3+4
 161 00fc FFF7FEFF 		bl	HAL_GPIO_Init
 162              	.LVL5:
  96:Core/Src/gpio.c **** 
  97:Core/Src/gpio.c ****   /*Configure GPIO pins : PC0 PC6 PC7 */
  98:Core/Src/gpio.c ****   GPIO_InitStruct.Pin = GPIO_PIN_0|GPIO_PIN_6|GPIO_PIN_7;
 163              		.loc 1 98 0
 164 0100 C123     		movs	r3, #193
 165 0102 0793     		str	r3, [sp, #28]
  99:Core/Src/gpio.c ****   GPIO_InitStruct.Mode = GPIO_MODE_AF_PP;
 166              		.loc 1 99 0
 167 0104 0225     		movs	r5, #2
 168 0106 0895     		str	r5, [sp, #32]
 100:Core/Src/gpio.c ****   GPIO_InitStruct.Pull = GPIO_NOPULL;
 169              		.loc 1 100 0
 170 0108 0994     		str	r4, [sp, #36]
 101:Core/Src/gpio.c ****   GPIO_InitStruct.Speed = GPIO_SPEED_FREQ_LOW;
 171              		.loc 1 101 0
 172 010a 0A94     		str	r4, [sp, #40]
 102:Core/Src/gpio.c ****   GPIO_InitStruct.Alternate = GPIO_AF14_LTDC;
 173              		.loc 1 102 0
 174 010c 0E27     		movs	r7, #14
 175 010e 0B97     		str	r7, [sp, #44]
 103:Core/Src/gpio.c ****   HAL_GPIO_Init(GPIOC, &GPIO_InitStruct);
 176              		.loc 1 103 0
 177 0110 07A9     		add	r1, sp, #28
 178 0112 5046     		mov	r0, r10
 179 0114 FFF7FEFF 		bl	HAL_GPIO_Init
 180              	.LVL6:
 104:Core/Src/gpio.c **** 
 105:Core/Src/gpio.c ****   /*Configure GPIO pins : PCPin PCPin */
 106:Core/Src/gpio.c ****   GPIO_InitStruct.Pin = MCU_3V3_EN_Pin|LCD_REG_EN_Pin;
ARM GAS  /tmp/ccI1U7qO.s 			page 6


 181              		.loc 1 106 0
 182 0118 1223     		movs	r3, #18
 183 011a 0793     		str	r3, [sp, #28]
 107:Core/Src/gpio.c ****   GPIO_InitStruct.Mode = GPIO_MODE_OUTPUT_PP;
 184              		.loc 1 107 0
 185 011c CDF82080 		str	r8, [sp, #32]
 108:Core/Src/gpio.c ****   GPIO_InitStruct.Pull = GPIO_NOPULL;
 186              		.loc 1 108 0
 187 0120 0994     		str	r4, [sp, #36]
 109:Core/Src/gpio.c ****   GPIO_InitStruct.Speed = GPIO_SPEED_FREQ_LOW;
 188              		.loc 1 109 0
 189 0122 0A94     		str	r4, [sp, #40]
 110:Core/Src/gpio.c ****   HAL_GPIO_Init(GPIOC, &GPIO_InitStruct);
 190              		.loc 1 110 0
 191 0124 07A9     		add	r1, sp, #28
 192 0126 5046     		mov	r0, r10
 193 0128 FFF7FEFF 		bl	HAL_GPIO_Init
 194              	.LVL7:
 111:Core/Src/gpio.c **** 
 112:Core/Src/gpio.c ****   /*Configure GPIO pins : PCPin PCPin */
 113:Core/Src/gpio.c ****   GPIO_InitStruct.Pin = SW_L_Pin|SW_R_Pin;
 195              		.loc 1 113 0
 196 012c 0C23     		movs	r3, #12
 197 012e 0793     		str	r3, [sp, #28]
 114:Core/Src/gpio.c ****   GPIO_InitStruct.Mode = GPIO_MODE_INPUT;
 198              		.loc 1 114 0
 199 0130 0894     		str	r4, [sp, #32]
 115:Core/Src/gpio.c ****   GPIO_InitStruct.Pull = GPIO_NOPULL;
 200              		.loc 1 115 0
 201 0132 0994     		str	r4, [sp, #36]
 116:Core/Src/gpio.c ****   HAL_GPIO_Init(GPIOC, &GPIO_InitStruct);
 202              		.loc 1 116 0
 203 0134 07A9     		add	r1, sp, #28
 204 0136 5046     		mov	r0, r10
 205 0138 FFF7FEFF 		bl	HAL_GPIO_Init
 206              	.LVL8:
 117:Core/Src/gpio.c **** 
 118:Core/Src/gpio.c ****   /*Configure GPIO pin : PtPin */
 119:Core/Src/gpio.c ****   GPIO_InitStruct.Pin = LED_R_Pin;
 207              		.loc 1 119 0
 208 013c 4FF0080A 		mov	r10, #8
 209 0140 CDF81CA0 		str	r10, [sp, #28]
 120:Core/Src/gpio.c ****   GPIO_InitStruct.Mode = GPIO_MODE_OUTPUT_PP;
 210              		.loc 1 120 0
 211 0144 CDF82080 		str	r8, [sp, #32]
 121:Core/Src/gpio.c ****   GPIO_InitStruct.Pull = GPIO_NOPULL;
 212              		.loc 1 121 0
 213 0148 0994     		str	r4, [sp, #36]
 122:Core/Src/gpio.c ****   GPIO_InitStruct.Speed = GPIO_SPEED_FREQ_LOW;
 214              		.loc 1 122 0
 215 014a 0A94     		str	r4, [sp, #40]
 123:Core/Src/gpio.c ****   HAL_GPIO_Init(LED_R_GPIO_Port, &GPIO_InitStruct);
 216              		.loc 1 123 0
 217 014c 07A9     		add	r1, sp, #28
 218 014e 5846     		mov	r0, fp
 219 0150 FFF7FEFF 		bl	HAL_GPIO_Init
 220              	.LVL9:
ARM GAS  /tmp/ccI1U7qO.s 			page 7


 124:Core/Src/gpio.c **** 
 125:Core/Src/gpio.c ****   /*Configure GPIO pins : PA4 PA5 PA8 PA15 */
 126:Core/Src/gpio.c ****   GPIO_InitStruct.Pin = GPIO_PIN_4|GPIO_PIN_5|GPIO_PIN_8|GPIO_PIN_15;
 221              		.loc 1 126 0
 222 0154 48F23013 		movw	r3, #33072
 223 0158 0793     		str	r3, [sp, #28]
 127:Core/Src/gpio.c ****   GPIO_InitStruct.Mode = GPIO_MODE_AF_PP;
 224              		.loc 1 127 0
 225 015a 0895     		str	r5, [sp, #32]
 128:Core/Src/gpio.c ****   GPIO_InitStruct.Pull = GPIO_NOPULL;
 226              		.loc 1 128 0
 227 015c 0994     		str	r4, [sp, #36]
 129:Core/Src/gpio.c ****   GPIO_InitStruct.Speed = GPIO_SPEED_FREQ_LOW;
 228              		.loc 1 129 0
 229 015e 0A94     		str	r4, [sp, #40]
 130:Core/Src/gpio.c ****   GPIO_InitStruct.Alternate = GPIO_AF14_LTDC;
 230              		.loc 1 130 0
 231 0160 0B97     		str	r7, [sp, #44]
 131:Core/Src/gpio.c ****   HAL_GPIO_Init(GPIOA, &GPIO_InitStruct);
 232              		.loc 1 131 0
 233 0162 07A9     		add	r1, sp, #28
 234 0164 5846     		mov	r0, fp
 235 0166 FFF7FEFF 		bl	HAL_GPIO_Init
 236              	.LVL10:
 132:Core/Src/gpio.c **** 
 133:Core/Src/gpio.c ****   /*Configure GPIO pins : PE12 PE13 PE14 PE15 */
 134:Core/Src/gpio.c ****   GPIO_InitStruct.Pin = GPIO_PIN_12|GPIO_PIN_13|GPIO_PIN_14|GPIO_PIN_15;
 237              		.loc 1 134 0
 238 016a 4FF4704B 		mov	fp, #61440
 239 016e CDF81CB0 		str	fp, [sp, #28]
 135:Core/Src/gpio.c ****   GPIO_InitStruct.Mode = GPIO_MODE_AF_PP;
 240              		.loc 1 135 0
 241 0172 0895     		str	r5, [sp, #32]
 136:Core/Src/gpio.c ****   GPIO_InitStruct.Pull = GPIO_NOPULL;
 242              		.loc 1 136 0
 243 0174 0994     		str	r4, [sp, #36]
 137:Core/Src/gpio.c ****   GPIO_InitStruct.Speed = GPIO_SPEED_FREQ_LOW;
 244              		.loc 1 137 0
 245 0176 0A94     		str	r4, [sp, #40]
 138:Core/Src/gpio.c ****   GPIO_InitStruct.Alternate = GPIO_AF14_LTDC;
 246              		.loc 1 138 0
 247 0178 0B97     		str	r7, [sp, #44]
 139:Core/Src/gpio.c ****   HAL_GPIO_Init(GPIOE, &GPIO_InitStruct);
 248              		.loc 1 139 0
 249 017a 07A9     		add	r1, sp, #28
 250 017c 2848     		ldr	r0, .L3+4
 251 017e FFF7FEFF 		bl	HAL_GPIO_Init
 252              	.LVL11:
 140:Core/Src/gpio.c **** 
 141:Core/Src/gpio.c ****   /*Configure GPIO pins : PB10 PB11 PB9 */
 142:Core/Src/gpio.c ****   GPIO_InitStruct.Pin = GPIO_PIN_10|GPIO_PIN_11|GPIO_PIN_9;
 253              		.loc 1 142 0
 254 0182 4FF46063 		mov	r3, #3584
 255 0186 0793     		str	r3, [sp, #28]
 143:Core/Src/gpio.c ****   GPIO_InitStruct.Mode = GPIO_MODE_AF_PP;
 256              		.loc 1 143 0
 257 0188 0895     		str	r5, [sp, #32]
ARM GAS  /tmp/ccI1U7qO.s 			page 8


 144:Core/Src/gpio.c ****   GPIO_InitStruct.Pull = GPIO_NOPULL;
 258              		.loc 1 144 0
 259 018a 0994     		str	r4, [sp, #36]
 145:Core/Src/gpio.c ****   GPIO_InitStruct.Speed = GPIO_SPEED_FREQ_LOW;
 260              		.loc 1 145 0
 261 018c 0A94     		str	r4, [sp, #40]
 146:Core/Src/gpio.c ****   GPIO_InitStruct.Alternate = GPIO_AF14_LTDC;
 262              		.loc 1 146 0
 263 018e 0B97     		str	r7, [sp, #44]
 147:Core/Src/gpio.c ****   HAL_GPIO_Init(GPIOB, &GPIO_InitStruct);
 264              		.loc 1 147 0
 265 0190 07A9     		add	r1, sp, #28
 266 0192 4846     		mov	r0, r9
 267 0194 FFF7FEFF 		bl	HAL_GPIO_Init
 268              	.LVL12:
 148:Core/Src/gpio.c **** 
 149:Core/Src/gpio.c ****   /*Configure GPIO pins : PBPin PBPin PBPin PBPin */
 150:Core/Src/gpio.c ****   GPIO_InitStruct.Pin = STM_VCORE_EN_Pin|STM_VCORE_D2_Pin|STM_VCORE_D1_Pin|STM_VCORE_D0_Pin;
 269              		.loc 1 150 0
 270 0198 CDF81CB0 		str	fp, [sp, #28]
 151:Core/Src/gpio.c ****   GPIO_InitStruct.Mode = GPIO_MODE_OUTPUT_PP;
 271              		.loc 1 151 0
 272 019c CDF82080 		str	r8, [sp, #32]
 152:Core/Src/gpio.c ****   GPIO_InitStruct.Pull = GPIO_NOPULL;
 273              		.loc 1 152 0
 274 01a0 0994     		str	r4, [sp, #36]
 153:Core/Src/gpio.c ****   GPIO_InitStruct.Speed = GPIO_SPEED_FREQ_LOW;
 275              		.loc 1 153 0
 276 01a2 0A94     		str	r4, [sp, #40]
 154:Core/Src/gpio.c ****   HAL_GPIO_Init(GPIOB, &GPIO_InitStruct);
 277              		.loc 1 154 0
 278 01a4 07A9     		add	r1, sp, #28
 279 01a6 4846     		mov	r0, r9
 280 01a8 FFF7FEFF 		bl	HAL_GPIO_Init
 281              	.LVL13:
 155:Core/Src/gpio.c **** 
 156:Core/Src/gpio.c ****   /*Configure GPIO pins : PDPin PDPin PDPin PDPin */
 157:Core/Src/gpio.c ****   GPIO_InitStruct.Pin = USART3_TX_NCP_Pin|USART3_RX_NCP_Pin|USART3_CTS_NCP_Pin|USART3_RTS_NCP_Pin;
 282              		.loc 1 157 0
 283 01ac 4FF4D853 		mov	r3, #6912
 284 01b0 0793     		str	r3, [sp, #28]
 158:Core/Src/gpio.c ****   GPIO_InitStruct.Mode = GPIO_MODE_AF_PP;
 285              		.loc 1 158 0
 286 01b2 0895     		str	r5, [sp, #32]
 159:Core/Src/gpio.c ****   GPIO_InitStruct.Pull = GPIO_NOPULL;
 287              		.loc 1 159 0
 288 01b4 0994     		str	r4, [sp, #36]
 160:Core/Src/gpio.c ****   GPIO_InitStruct.Speed = GPIO_SPEED_FREQ_LOW;
 289              		.loc 1 160 0
 290 01b6 0A94     		str	r4, [sp, #40]
 161:Core/Src/gpio.c ****   GPIO_InitStruct.Alternate = GPIO_AF7_USART3;
 291              		.loc 1 161 0
 292 01b8 0723     		movs	r3, #7
 293 01ba 0B93     		str	r3, [sp, #44]
 162:Core/Src/gpio.c ****   HAL_GPIO_Init(GPIOD, &GPIO_InitStruct);
 294              		.loc 1 162 0
 295 01bc 07A9     		add	r1, sp, #28
ARM GAS  /tmp/ccI1U7qO.s 			page 9


 296 01be 3046     		mov	r0, r6
 297 01c0 FFF7FEFF 		bl	HAL_GPIO_Init
 298              	.LVL14:
 163:Core/Src/gpio.c **** 
 164:Core/Src/gpio.c ****   /*Configure GPIO pins : PDPin PDPin PDPin PDPin
 165:Core/Src/gpio.c ****                            PDPin */
 166:Core/Src/gpio.c ****   GPIO_InitStruct.Pin = PERIPH_REG_EN_Pin|GPS_EXTINT0_Pin|GPS_FORCE_ON_Pin|SD_VSEL_Pin
 299              		.loc 1 166 0
 300 01c4 4CF24243 		movw	r3, #50242
 301 01c8 0793     		str	r3, [sp, #28]
 167:Core/Src/gpio.c ****                           |FUEL_INT_Pin;
 168:Core/Src/gpio.c ****   GPIO_InitStruct.Mode = GPIO_MODE_OUTPUT_PP;
 302              		.loc 1 168 0
 303 01ca CDF82080 		str	r8, [sp, #32]
 169:Core/Src/gpio.c ****   GPIO_InitStruct.Pull = GPIO_NOPULL;
 304              		.loc 1 169 0
 305 01ce 0994     		str	r4, [sp, #36]
 170:Core/Src/gpio.c ****   GPIO_InitStruct.Speed = GPIO_SPEED_FREQ_LOW;
 306              		.loc 1 170 0
 307 01d0 0A94     		str	r4, [sp, #40]
 171:Core/Src/gpio.c ****   HAL_GPIO_Init(GPIOD, &GPIO_InitStruct);
 308              		.loc 1 171 0
 309 01d2 07A9     		add	r1, sp, #28
 310 01d4 3046     		mov	r0, r6
 311 01d6 FFF7FEFF 		bl	HAL_GPIO_Init
 312              	.LVL15:
 172:Core/Src/gpio.c **** 
 173:Core/Src/gpio.c ****   /*Configure GPIO pins : PDPin PDPin PDPin PDPin
 174:Core/Src/gpio.c ****                            PDPin */
 175:Core/Src/gpio.c ****   GPIO_InitStruct.Pin = STM_VCORE_GOOD_Pin|SD_DET_Pin|ACCEL_INT2_Pin|ACCEL_INT1_Pin
 313              		.loc 1 175 0
 314 01da 42F2B103 		movw	r3, #8369
 315 01de 0793     		str	r3, [sp, #28]
 176:Core/Src/gpio.c ****                           |TOUCH_INT_Pin;
 177:Core/Src/gpio.c ****   GPIO_InitStruct.Mode = GPIO_MODE_INPUT;
 316              		.loc 1 177 0
 317 01e0 0894     		str	r4, [sp, #32]
 178:Core/Src/gpio.c ****   GPIO_InitStruct.Pull = GPIO_NOPULL;
 318              		.loc 1 178 0
 319 01e2 0994     		str	r4, [sp, #36]
 179:Core/Src/gpio.c ****   HAL_GPIO_Init(GPIOD, &GPIO_InitStruct);
 320              		.loc 1 179 0
 321 01e4 07A9     		add	r1, sp, #28
 322 01e6 3046     		mov	r0, r6
 323 01e8 FFF7FEFF 		bl	HAL_GPIO_Init
 324              	.LVL16:
 180:Core/Src/gpio.c **** 
 181:Core/Src/gpio.c ****   /*Configure GPIO pin : PtPin */
 182:Core/Src/gpio.c ****   GPIO_InitStruct.Pin = LTDC_G7_Pin;
 325              		.loc 1 182 0
 326 01ec CDF81CA0 		str	r10, [sp, #28]
 183:Core/Src/gpio.c ****   GPIO_InitStruct.Mode = GPIO_MODE_AF_PP;
 327              		.loc 1 183 0
 328 01f0 0895     		str	r5, [sp, #32]
 184:Core/Src/gpio.c ****   GPIO_InitStruct.Pull = GPIO_NOPULL;
 329              		.loc 1 184 0
 330 01f2 0994     		str	r4, [sp, #36]
ARM GAS  /tmp/ccI1U7qO.s 			page 10


 185:Core/Src/gpio.c ****   GPIO_InitStruct.Speed = GPIO_SPEED_FREQ_LOW;
 331              		.loc 1 185 0
 332 01f4 0A94     		str	r4, [sp, #40]
 186:Core/Src/gpio.c ****   GPIO_InitStruct.Alternate = GPIO_AF14_LTDC;
 333              		.loc 1 186 0
 334 01f6 0B97     		str	r7, [sp, #44]
 187:Core/Src/gpio.c ****   HAL_GPIO_Init(LTDC_G7_GPIO_Port, &GPIO_InitStruct);
 335              		.loc 1 187 0
 336 01f8 07A9     		add	r1, sp, #28
 337 01fa 3046     		mov	r0, r6
 338 01fc FFF7FEFF 		bl	HAL_GPIO_Init
 339              	.LVL17:
 188:Core/Src/gpio.c **** 
 189:Core/Src/gpio.c ****   /*Configure GPIO pin : PB5 */
 190:Core/Src/gpio.c ****   GPIO_InitStruct.Pin = GPIO_PIN_5;
 340              		.loc 1 190 0
 341 0200 2023     		movs	r3, #32
 342 0202 0793     		str	r3, [sp, #28]
 191:Core/Src/gpio.c ****   GPIO_InitStruct.Mode = GPIO_MODE_AF_PP;
 343              		.loc 1 191 0
 344 0204 0895     		str	r5, [sp, #32]
 192:Core/Src/gpio.c ****   GPIO_InitStruct.Pull = GPIO_NOPULL;
 345              		.loc 1 192 0
 346 0206 0994     		str	r4, [sp, #36]
 193:Core/Src/gpio.c ****   GPIO_InitStruct.Speed = GPIO_SPEED_FREQ_LOW;
 347              		.loc 1 193 0
 348 0208 0A94     		str	r4, [sp, #40]
 194:Core/Src/gpio.c ****   GPIO_InitStruct.Alternate = GPIO_AF3_LTDC;
 349              		.loc 1 194 0
 350 020a 0323     		movs	r3, #3
 351 020c 0B93     		str	r3, [sp, #44]
 195:Core/Src/gpio.c ****   HAL_GPIO_Init(GPIOB, &GPIO_InitStruct);
 352              		.loc 1 195 0
 353 020e 07A9     		add	r1, sp, #28
 354 0210 4846     		mov	r0, r9
 355 0212 FFF7FEFF 		bl	HAL_GPIO_Init
 356              	.LVL18:
 196:Core/Src/gpio.c **** 
 197:Core/Src/gpio.c **** }
 357              		.loc 1 197 0
 358 0216 0DB0     		add	sp, sp, #52
 359              	.LCFI2:
 360              		.cfi_def_cfa_offset 36
 361              		@ sp needed
 362 0218 BDE8F08F 		pop	{r4, r5, r6, r7, r8, r9, r10, fp, pc}
 363              	.L4:
 364              		.align	2
 365              	.L3:
 366 021c 00440258 		.word	1476543488
 367 0220 00100258 		.word	1476530176
 368 0224 000C0258 		.word	1476529152
 369 0228 00080258 		.word	1476528128
 370 022c 00000258 		.word	1476526080
 371 0230 00040258 		.word	1476527104
 372              		.cfi_endproc
 373              	.LFE343:
 375              		.text
ARM GAS  /tmp/ccI1U7qO.s 			page 11


 376              	.Letext0:
 377              		.file 2 "/usr/include/newlib/machine/_default_types.h"
 378              		.file 3 "/usr/include/newlib/sys/_stdint.h"
 379              		.file 4 "Drivers/CMSIS/Include/core_cm7.h"
 380              		.file 5 "Drivers/CMSIS/Device/ST/STM32H7xx/Include/system_stm32h7xx.h"
 381              		.file 6 "Drivers/CMSIS/Device/ST/STM32H7xx/Include/stm32h723xx.h"
 382              		.file 7 "/usr/include/newlib/sys/lock.h"
 383              		.file 8 "/usr/include/newlib/sys/_types.h"
 384              		.file 9 "/usr/lib/gcc/arm-none-eabi/7.3.1/include/stddef.h"
 385              		.file 10 "/usr/include/newlib/sys/reent.h"
 386              		.file 11 "/usr/include/newlib/math.h"
 387              		.file 12 "Drivers/STM32H7xx_HAL_Driver/Inc/stm32h7xx_hal_def.h"
 388              		.file 13 "Drivers/STM32H7xx_HAL_Driver/Inc/stm32h7xx_hal_gpio.h"
 389              		.file 14 "Drivers/STM32H7xx_HAL_Driver/Inc/stm32h7xx_hal_flash.h"
 390              		.file 15 "Drivers/STM32H7xx_HAL_Driver/Inc/stm32h7xx_hal_uart.h"
 391              		.file 16 "Drivers/STM32H7xx_HAL_Driver/Inc/stm32h7xx_hal.h"
ARM GAS  /tmp/ccI1U7qO.s 			page 12

