ARM GAS  /tmp/ccmrLUMM.s 			page 1


   1              		.cpu cortex-m7
   2              		.eabi_attribute 28, 1
   3              		.eabi_attribute 20, 1
   4              		.eabi_attribute 21, 1
   5              		.eabi_attribute 23, 3
   6              		.eabi_attribute 24, 1
   7              		.eabi_attribute 25, 1
   8              		.eabi_attribute 26, 1
   9              		.eabi_attribute 30, 1
  10              		.eabi_attribute 34, 1
  11              		.eabi_attribute 18, 4
  12              		.file	"stm32h7xx_hal_adc_ex.c"
  13              		.text
  14              	.Ltext0:
  15              		.cfi_sections	.debug_frame
  16              		.section	.text.HAL_ADCEx_Calibration_Start,"ax",%progbits
  17              		.align	1
  18              		.global	HAL_ADCEx_Calibration_Start
  19              		.syntax unified
  20              		.thumb
  21              		.thumb_func
  22              		.fpu fpv5-d16
  24              	HAL_ADCEx_Calibration_Start:
  25              	.LFB343:
  26              		.file 1 "Drivers/STM32H7xx_HAL_Driver/Src/stm32h7xx_hal_adc_ex.c"
   1:Drivers/STM32H7xx_HAL_Driver/Src/stm32h7xx_hal_adc_ex.c **** /**
   2:Drivers/STM32H7xx_HAL_Driver/Src/stm32h7xx_hal_adc_ex.c ****   ******************************************************************************
   3:Drivers/STM32H7xx_HAL_Driver/Src/stm32h7xx_hal_adc_ex.c ****   * @file    stm32h7xx_hal_adc_ex.c
   4:Drivers/STM32H7xx_HAL_Driver/Src/stm32h7xx_hal_adc_ex.c ****   * @author  MCD Application Team
   5:Drivers/STM32H7xx_HAL_Driver/Src/stm32h7xx_hal_adc_ex.c ****   * @brief   This file provides firmware functions to manage the following
   6:Drivers/STM32H7xx_HAL_Driver/Src/stm32h7xx_hal_adc_ex.c ****   *          functionalities of the Analog to Digital Convertor (ADC)
   7:Drivers/STM32H7xx_HAL_Driver/Src/stm32h7xx_hal_adc_ex.c ****   *          peripheral:
   8:Drivers/STM32H7xx_HAL_Driver/Src/stm32h7xx_hal_adc_ex.c ****   *           + Operation functions
   9:Drivers/STM32H7xx_HAL_Driver/Src/stm32h7xx_hal_adc_ex.c ****   *             ++ Start, stop, get result of conversions of ADC group injected,
  10:Drivers/STM32H7xx_HAL_Driver/Src/stm32h7xx_hal_adc_ex.c ****   *                using 2 possible modes: polling, interruption.
  11:Drivers/STM32H7xx_HAL_Driver/Src/stm32h7xx_hal_adc_ex.c ****   *             ++ Calibration
  12:Drivers/STM32H7xx_HAL_Driver/Src/stm32h7xx_hal_adc_ex.c ****   *               +++ ADC automatic self-calibration
  13:Drivers/STM32H7xx_HAL_Driver/Src/stm32h7xx_hal_adc_ex.c ****   *               +++ Calibration factors get or set
  14:Drivers/STM32H7xx_HAL_Driver/Src/stm32h7xx_hal_adc_ex.c ****   *             ++ Multimode feature when available
  15:Drivers/STM32H7xx_HAL_Driver/Src/stm32h7xx_hal_adc_ex.c ****   *           + Control functions
  16:Drivers/STM32H7xx_HAL_Driver/Src/stm32h7xx_hal_adc_ex.c ****   *             ++ Channels configuration on ADC group injected
  17:Drivers/STM32H7xx_HAL_Driver/Src/stm32h7xx_hal_adc_ex.c ****   *           + State functions
  18:Drivers/STM32H7xx_HAL_Driver/Src/stm32h7xx_hal_adc_ex.c ****   *             ++ ADC group injected contexts queue management
  19:Drivers/STM32H7xx_HAL_Driver/Src/stm32h7xx_hal_adc_ex.c ****   *          Other functions (generic functions) are available in file
  20:Drivers/STM32H7xx_HAL_Driver/Src/stm32h7xx_hal_adc_ex.c ****   *          "stm32h7xx_hal_adc.c".
  21:Drivers/STM32H7xx_HAL_Driver/Src/stm32h7xx_hal_adc_ex.c ****   *
  22:Drivers/STM32H7xx_HAL_Driver/Src/stm32h7xx_hal_adc_ex.c ****   @verbatim
  23:Drivers/STM32H7xx_HAL_Driver/Src/stm32h7xx_hal_adc_ex.c ****   [..]
  24:Drivers/STM32H7xx_HAL_Driver/Src/stm32h7xx_hal_adc_ex.c ****   (@) Sections "ADC peripheral features" and "How to use this driver" are
  25:Drivers/STM32H7xx_HAL_Driver/Src/stm32h7xx_hal_adc_ex.c ****       available in file of generic functions "stm32h7xx_hal_adc.c".
  26:Drivers/STM32H7xx_HAL_Driver/Src/stm32h7xx_hal_adc_ex.c ****   [..]
  27:Drivers/STM32H7xx_HAL_Driver/Src/stm32h7xx_hal_adc_ex.c ****   @endverbatim
  28:Drivers/STM32H7xx_HAL_Driver/Src/stm32h7xx_hal_adc_ex.c ****   ******************************************************************************
  29:Drivers/STM32H7xx_HAL_Driver/Src/stm32h7xx_hal_adc_ex.c ****   * @attention
  30:Drivers/STM32H7xx_HAL_Driver/Src/stm32h7xx_hal_adc_ex.c ****   *
  31:Drivers/STM32H7xx_HAL_Driver/Src/stm32h7xx_hal_adc_ex.c ****   * <h2><center>&copy; Copyright (c) 2017 STMicroelectronics.
  32:Drivers/STM32H7xx_HAL_Driver/Src/stm32h7xx_hal_adc_ex.c ****   * All rights reserved.</center></h2>
ARM GAS  /tmp/ccmrLUMM.s 			page 2


  33:Drivers/STM32H7xx_HAL_Driver/Src/stm32h7xx_hal_adc_ex.c ****   *
  34:Drivers/STM32H7xx_HAL_Driver/Src/stm32h7xx_hal_adc_ex.c ****   * This software component is licensed by ST under BSD 3-Clause license,
  35:Drivers/STM32H7xx_HAL_Driver/Src/stm32h7xx_hal_adc_ex.c ****   * the "License"; You may not use this file except in compliance with the
  36:Drivers/STM32H7xx_HAL_Driver/Src/stm32h7xx_hal_adc_ex.c ****   * License. You may obtain a copy of the License at:
  37:Drivers/STM32H7xx_HAL_Driver/Src/stm32h7xx_hal_adc_ex.c ****   *                        opensource.org/licenses/BSD-3-Clause
  38:Drivers/STM32H7xx_HAL_Driver/Src/stm32h7xx_hal_adc_ex.c ****   *
  39:Drivers/STM32H7xx_HAL_Driver/Src/stm32h7xx_hal_adc_ex.c ****   ******************************************************************************
  40:Drivers/STM32H7xx_HAL_Driver/Src/stm32h7xx_hal_adc_ex.c ****   */
  41:Drivers/STM32H7xx_HAL_Driver/Src/stm32h7xx_hal_adc_ex.c **** 
  42:Drivers/STM32H7xx_HAL_Driver/Src/stm32h7xx_hal_adc_ex.c **** /* Includes ------------------------------------------------------------------*/
  43:Drivers/STM32H7xx_HAL_Driver/Src/stm32h7xx_hal_adc_ex.c **** #include "stm32h7xx_hal.h"
  44:Drivers/STM32H7xx_HAL_Driver/Src/stm32h7xx_hal_adc_ex.c **** 
  45:Drivers/STM32H7xx_HAL_Driver/Src/stm32h7xx_hal_adc_ex.c **** /** @addtogroup STM32H7xx_HAL_Driver
  46:Drivers/STM32H7xx_HAL_Driver/Src/stm32h7xx_hal_adc_ex.c ****   * @{
  47:Drivers/STM32H7xx_HAL_Driver/Src/stm32h7xx_hal_adc_ex.c ****   */
  48:Drivers/STM32H7xx_HAL_Driver/Src/stm32h7xx_hal_adc_ex.c **** 
  49:Drivers/STM32H7xx_HAL_Driver/Src/stm32h7xx_hal_adc_ex.c **** /** @defgroup ADCEx ADCEx
  50:Drivers/STM32H7xx_HAL_Driver/Src/stm32h7xx_hal_adc_ex.c ****   * @brief ADC Extended HAL module driver
  51:Drivers/STM32H7xx_HAL_Driver/Src/stm32h7xx_hal_adc_ex.c ****   * @{
  52:Drivers/STM32H7xx_HAL_Driver/Src/stm32h7xx_hal_adc_ex.c ****   */
  53:Drivers/STM32H7xx_HAL_Driver/Src/stm32h7xx_hal_adc_ex.c **** 
  54:Drivers/STM32H7xx_HAL_Driver/Src/stm32h7xx_hal_adc_ex.c **** #ifdef HAL_ADC_MODULE_ENABLED
  55:Drivers/STM32H7xx_HAL_Driver/Src/stm32h7xx_hal_adc_ex.c **** 
  56:Drivers/STM32H7xx_HAL_Driver/Src/stm32h7xx_hal_adc_ex.c **** /* Private typedef -----------------------------------------------------------*/
  57:Drivers/STM32H7xx_HAL_Driver/Src/stm32h7xx_hal_adc_ex.c **** /* Private define ------------------------------------------------------------*/
  58:Drivers/STM32H7xx_HAL_Driver/Src/stm32h7xx_hal_adc_ex.c **** 
  59:Drivers/STM32H7xx_HAL_Driver/Src/stm32h7xx_hal_adc_ex.c **** /** @defgroup ADCEx_Private_Constants ADC Extended Private Constants
  60:Drivers/STM32H7xx_HAL_Driver/Src/stm32h7xx_hal_adc_ex.c ****   * @{
  61:Drivers/STM32H7xx_HAL_Driver/Src/stm32h7xx_hal_adc_ex.c ****   */
  62:Drivers/STM32H7xx_HAL_Driver/Src/stm32h7xx_hal_adc_ex.c **** 
  63:Drivers/STM32H7xx_HAL_Driver/Src/stm32h7xx_hal_adc_ex.c **** #define ADC_JSQR_FIELDS  ((ADC_JSQR_JL | ADC_JSQR_JEXTSEL | ADC_JSQR_JEXTEN |\
  64:Drivers/STM32H7xx_HAL_Driver/Src/stm32h7xx_hal_adc_ex.c ****                            ADC_JSQR_JSQ1  | ADC_JSQR_JSQ2 |\
  65:Drivers/STM32H7xx_HAL_Driver/Src/stm32h7xx_hal_adc_ex.c ****                            ADC_JSQR_JSQ3 | ADC_JSQR_JSQ4 ))  /*!< ADC_JSQR fields of parameters tha
  66:Drivers/STM32H7xx_HAL_Driver/Src/stm32h7xx_hal_adc_ex.c ****                                                                   once the ADC is enabled */
  67:Drivers/STM32H7xx_HAL_Driver/Src/stm32h7xx_hal_adc_ex.c **** 
  68:Drivers/STM32H7xx_HAL_Driver/Src/stm32h7xx_hal_adc_ex.c **** /* Fixed timeout value for ADC calibration.                                   */
  69:Drivers/STM32H7xx_HAL_Driver/Src/stm32h7xx_hal_adc_ex.c **** /* Fixed timeout value for ADC calibration.                                     */
  70:Drivers/STM32H7xx_HAL_Driver/Src/stm32h7xx_hal_adc_ex.c **** /* Values defined to be higher than worst cases: low clock frequency,         */
  71:Drivers/STM32H7xx_HAL_Driver/Src/stm32h7xx_hal_adc_ex.c **** /* maximum prescalers.                                                        */
  72:Drivers/STM32H7xx_HAL_Driver/Src/stm32h7xx_hal_adc_ex.c **** /* Ex of profile low frequency : f_ADC at 0.125 Mhz (minimum value              */
  73:Drivers/STM32H7xx_HAL_Driver/Src/stm32h7xx_hal_adc_ex.c **** /* according to Data sheet), calibration_time MAX = 165010 / f_ADC              */
  74:Drivers/STM32H7xx_HAL_Driver/Src/stm32h7xx_hal_adc_ex.c **** /*           165010 / 125000 = 1.32s                                            */
  75:Drivers/STM32H7xx_HAL_Driver/Src/stm32h7xx_hal_adc_ex.c **** /* At maximum CPU speed (480 MHz), this means                                   */
  76:Drivers/STM32H7xx_HAL_Driver/Src/stm32h7xx_hal_adc_ex.c **** /*    1.32 * 480 MHz = 633600000 CPU cycles                                     */
  77:Drivers/STM32H7xx_HAL_Driver/Src/stm32h7xx_hal_adc_ex.c **** #define ADC_CALIBRATION_TIMEOUT         (633600000U)   /*!< ADC calibration time-out value */
  78:Drivers/STM32H7xx_HAL_Driver/Src/stm32h7xx_hal_adc_ex.c **** 
  79:Drivers/STM32H7xx_HAL_Driver/Src/stm32h7xx_hal_adc_ex.c **** 
  80:Drivers/STM32H7xx_HAL_Driver/Src/stm32h7xx_hal_adc_ex.c **** /**
  81:Drivers/STM32H7xx_HAL_Driver/Src/stm32h7xx_hal_adc_ex.c ****   * @}
  82:Drivers/STM32H7xx_HAL_Driver/Src/stm32h7xx_hal_adc_ex.c ****   */
  83:Drivers/STM32H7xx_HAL_Driver/Src/stm32h7xx_hal_adc_ex.c **** 
  84:Drivers/STM32H7xx_HAL_Driver/Src/stm32h7xx_hal_adc_ex.c **** /* Private macro -------------------------------------------------------------*/
  85:Drivers/STM32H7xx_HAL_Driver/Src/stm32h7xx_hal_adc_ex.c **** /* Private variables ---------------------------------------------------------*/
  86:Drivers/STM32H7xx_HAL_Driver/Src/stm32h7xx_hal_adc_ex.c **** /* Private function prototypes -----------------------------------------------*/
  87:Drivers/STM32H7xx_HAL_Driver/Src/stm32h7xx_hal_adc_ex.c **** /* Exported functions --------------------------------------------------------*/
  88:Drivers/STM32H7xx_HAL_Driver/Src/stm32h7xx_hal_adc_ex.c **** 
  89:Drivers/STM32H7xx_HAL_Driver/Src/stm32h7xx_hal_adc_ex.c **** /** @defgroup ADCEx_Exported_Functions ADC Extended Exported Functions
ARM GAS  /tmp/ccmrLUMM.s 			page 3


  90:Drivers/STM32H7xx_HAL_Driver/Src/stm32h7xx_hal_adc_ex.c ****   * @{
  91:Drivers/STM32H7xx_HAL_Driver/Src/stm32h7xx_hal_adc_ex.c ****   */
  92:Drivers/STM32H7xx_HAL_Driver/Src/stm32h7xx_hal_adc_ex.c **** 
  93:Drivers/STM32H7xx_HAL_Driver/Src/stm32h7xx_hal_adc_ex.c **** /** @defgroup ADCEx_Exported_Functions_Group1 Extended Input and Output operation functions
  94:Drivers/STM32H7xx_HAL_Driver/Src/stm32h7xx_hal_adc_ex.c ****   * @brief    Extended IO operation functions
  95:Drivers/STM32H7xx_HAL_Driver/Src/stm32h7xx_hal_adc_ex.c ****   *
  96:Drivers/STM32H7xx_HAL_Driver/Src/stm32h7xx_hal_adc_ex.c **** @verbatim
  97:Drivers/STM32H7xx_HAL_Driver/Src/stm32h7xx_hal_adc_ex.c ****  ===============================================================================
  98:Drivers/STM32H7xx_HAL_Driver/Src/stm32h7xx_hal_adc_ex.c ****                       ##### IO operation functions #####
  99:Drivers/STM32H7xx_HAL_Driver/Src/stm32h7xx_hal_adc_ex.c ****  ===============================================================================
 100:Drivers/STM32H7xx_HAL_Driver/Src/stm32h7xx_hal_adc_ex.c ****     [..]  This section provides functions allowing to:
 101:Drivers/STM32H7xx_HAL_Driver/Src/stm32h7xx_hal_adc_ex.c **** 
 102:Drivers/STM32H7xx_HAL_Driver/Src/stm32h7xx_hal_adc_ex.c ****       (+) Perform the ADC self-calibration for single or differential ending.
 103:Drivers/STM32H7xx_HAL_Driver/Src/stm32h7xx_hal_adc_ex.c ****       (+) Get calibration factors for single or differential ending.
 104:Drivers/STM32H7xx_HAL_Driver/Src/stm32h7xx_hal_adc_ex.c ****       (+) Set calibration factors for single or differential ending.
 105:Drivers/STM32H7xx_HAL_Driver/Src/stm32h7xx_hal_adc_ex.c **** 
 106:Drivers/STM32H7xx_HAL_Driver/Src/stm32h7xx_hal_adc_ex.c ****       (+) Start conversion of ADC group injected.
 107:Drivers/STM32H7xx_HAL_Driver/Src/stm32h7xx_hal_adc_ex.c ****       (+) Stop conversion of ADC group injected.
 108:Drivers/STM32H7xx_HAL_Driver/Src/stm32h7xx_hal_adc_ex.c ****       (+) Poll for conversion complete on ADC group injected.
 109:Drivers/STM32H7xx_HAL_Driver/Src/stm32h7xx_hal_adc_ex.c ****       (+) Get result of ADC group injected channel conversion.
 110:Drivers/STM32H7xx_HAL_Driver/Src/stm32h7xx_hal_adc_ex.c ****       (+) Start conversion of ADC group injected and enable interruptions.
 111:Drivers/STM32H7xx_HAL_Driver/Src/stm32h7xx_hal_adc_ex.c ****       (+) Stop conversion of ADC group injected and disable interruptions.
 112:Drivers/STM32H7xx_HAL_Driver/Src/stm32h7xx_hal_adc_ex.c **** 
 113:Drivers/STM32H7xx_HAL_Driver/Src/stm32h7xx_hal_adc_ex.c ****       (+) When multimode feature is available, start multimode and enable DMA transfer.
 114:Drivers/STM32H7xx_HAL_Driver/Src/stm32h7xx_hal_adc_ex.c ****       (+) Stop multimode and disable ADC DMA transfer.
 115:Drivers/STM32H7xx_HAL_Driver/Src/stm32h7xx_hal_adc_ex.c ****       (+) Get result of multimode conversion.
 116:Drivers/STM32H7xx_HAL_Driver/Src/stm32h7xx_hal_adc_ex.c **** 
 117:Drivers/STM32H7xx_HAL_Driver/Src/stm32h7xx_hal_adc_ex.c **** @endverbatim
 118:Drivers/STM32H7xx_HAL_Driver/Src/stm32h7xx_hal_adc_ex.c ****   * @{
 119:Drivers/STM32H7xx_HAL_Driver/Src/stm32h7xx_hal_adc_ex.c ****   */
 120:Drivers/STM32H7xx_HAL_Driver/Src/stm32h7xx_hal_adc_ex.c **** 
 121:Drivers/STM32H7xx_HAL_Driver/Src/stm32h7xx_hal_adc_ex.c **** /**
 122:Drivers/STM32H7xx_HAL_Driver/Src/stm32h7xx_hal_adc_ex.c ****   * @brief  Perform an ADC automatic self-calibration
 123:Drivers/STM32H7xx_HAL_Driver/Src/stm32h7xx_hal_adc_ex.c ****   *         Calibration prerequisite: ADC must be disabled (execute this
 124:Drivers/STM32H7xx_HAL_Driver/Src/stm32h7xx_hal_adc_ex.c ****   *         function before HAL_ADC_Start() or after HAL_ADC_Stop() ).
 125:Drivers/STM32H7xx_HAL_Driver/Src/stm32h7xx_hal_adc_ex.c ****   * @param  hadc       ADC handle
 126:Drivers/STM32H7xx_HAL_Driver/Src/stm32h7xx_hal_adc_ex.c **** * @param  CalibrationMode       Selection of calibration offset or
 127:Drivers/STM32H7xx_HAL_Driver/Src/stm32h7xx_hal_adc_ex.c ****   *         linear calibration offset.
 128:Drivers/STM32H7xx_HAL_Driver/Src/stm32h7xx_hal_adc_ex.c ****   *           @arg ADC_CALIB_OFFSET       Channel in mode calibration offset
 129:Drivers/STM32H7xx_HAL_Driver/Src/stm32h7xx_hal_adc_ex.c ****   *           @arg ADC_CALIB_OFFSET_LINEARITY Channel in mode linear calibration offset
 130:Drivers/STM32H7xx_HAL_Driver/Src/stm32h7xx_hal_adc_ex.c ****   * @param  SingleDiff Selection of single-ended or differential input
 131:Drivers/STM32H7xx_HAL_Driver/Src/stm32h7xx_hal_adc_ex.c ****   *         This parameter can be one of the following values:
 132:Drivers/STM32H7xx_HAL_Driver/Src/stm32h7xx_hal_adc_ex.c ****   *           @arg @ref ADC_SINGLE_ENDED       Channel in mode input single ended
 133:Drivers/STM32H7xx_HAL_Driver/Src/stm32h7xx_hal_adc_ex.c ****   *           @arg @ref ADC_DIFFERENTIAL_ENDED Channel in mode input differential ended
 134:Drivers/STM32H7xx_HAL_Driver/Src/stm32h7xx_hal_adc_ex.c ****   * @retval HAL status
 135:Drivers/STM32H7xx_HAL_Driver/Src/stm32h7xx_hal_adc_ex.c ****   */
 136:Drivers/STM32H7xx_HAL_Driver/Src/stm32h7xx_hal_adc_ex.c **** HAL_StatusTypeDef HAL_ADCEx_Calibration_Start(ADC_HandleTypeDef *hadc, uint32_t CalibrationMode, ui
 137:Drivers/STM32H7xx_HAL_Driver/Src/stm32h7xx_hal_adc_ex.c **** {
  27              		.loc 1 137 0
  28              		.cfi_startproc
  29              		@ args = 0, pretend = 0, frame = 8
  30              		@ frame_needed = 0, uses_anonymous_args = 0
  31              	.LVL0:
  32 0000 F0B5     		push	{r4, r5, r6, r7, lr}
  33              	.LCFI0:
  34              		.cfi_def_cfa_offset 20
  35              		.cfi_offset 4, -20
ARM GAS  /tmp/ccmrLUMM.s 			page 4


  36              		.cfi_offset 5, -16
  37              		.cfi_offset 6, -12
  38              		.cfi_offset 7, -8
  39              		.cfi_offset 14, -4
  40 0002 83B0     		sub	sp, sp, #12
  41              	.LCFI1:
  42              		.cfi_def_cfa_offset 32
 138:Drivers/STM32H7xx_HAL_Driver/Src/stm32h7xx_hal_adc_ex.c ****   HAL_StatusTypeDef tmp_hal_status;
 139:Drivers/STM32H7xx_HAL_Driver/Src/stm32h7xx_hal_adc_ex.c ****   __IO uint32_t wait_loop_index = 0UL;
  43              		.loc 1 139 0
  44 0004 0024     		movs	r4, #0
  45 0006 0194     		str	r4, [sp, #4]
 140:Drivers/STM32H7xx_HAL_Driver/Src/stm32h7xx_hal_adc_ex.c **** 
 141:Drivers/STM32H7xx_HAL_Driver/Src/stm32h7xx_hal_adc_ex.c ****   /* Check the parameters */
 142:Drivers/STM32H7xx_HAL_Driver/Src/stm32h7xx_hal_adc_ex.c ****   assert_param(IS_ADC_ALL_INSTANCE(hadc->Instance));
 143:Drivers/STM32H7xx_HAL_Driver/Src/stm32h7xx_hal_adc_ex.c ****   assert_param(IS_ADC_SINGLE_DIFFERENTIAL(SingleDiff));
 144:Drivers/STM32H7xx_HAL_Driver/Src/stm32h7xx_hal_adc_ex.c **** 
 145:Drivers/STM32H7xx_HAL_Driver/Src/stm32h7xx_hal_adc_ex.c ****   /* Process locked */
 146:Drivers/STM32H7xx_HAL_Driver/Src/stm32h7xx_hal_adc_ex.c ****   __HAL_LOCK(hadc);
  46              		.loc 1 146 0
  47 0008 90F85C40 		ldrb	r4, [r0, #92]	@ zero_extendqisi2
  48 000c 012C     		cmp	r4, #1
  49 000e 44D0     		beq	.L8
  50 0010 1646     		mov	r6, r2
  51 0012 0F46     		mov	r7, r1
  52 0014 0446     		mov	r4, r0
  53              		.loc 1 146 0 is_stmt 0 discriminator 2
  54 0016 0123     		movs	r3, #1
  55 0018 80F85C30 		strb	r3, [r0, #92]
 147:Drivers/STM32H7xx_HAL_Driver/Src/stm32h7xx_hal_adc_ex.c **** 
 148:Drivers/STM32H7xx_HAL_Driver/Src/stm32h7xx_hal_adc_ex.c ****   /* Calibration prerequisite: ADC must be disabled. */
 149:Drivers/STM32H7xx_HAL_Driver/Src/stm32h7xx_hal_adc_ex.c **** 
 150:Drivers/STM32H7xx_HAL_Driver/Src/stm32h7xx_hal_adc_ex.c ****   /* Disable the ADC (if not already disabled) */
 151:Drivers/STM32H7xx_HAL_Driver/Src/stm32h7xx_hal_adc_ex.c ****   tmp_hal_status = ADC_Disable(hadc);
  56              		.loc 1 151 0 is_stmt 1 discriminator 2
  57 001c FFF7FEFF 		bl	ADC_Disable
  58              	.LVL1:
 152:Drivers/STM32H7xx_HAL_Driver/Src/stm32h7xx_hal_adc_ex.c **** 
 153:Drivers/STM32H7xx_HAL_Driver/Src/stm32h7xx_hal_adc_ex.c ****   /* Check if ADC is effectively disabled */
 154:Drivers/STM32H7xx_HAL_Driver/Src/stm32h7xx_hal_adc_ex.c ****   if (tmp_hal_status == HAL_OK)
  59              		.loc 1 154 0 discriminator 2
  60 0020 0546     		mov	r5, r0
  61 0022 0028     		cmp	r0, #0
  62 0024 2FD1     		bne	.L3
 155:Drivers/STM32H7xx_HAL_Driver/Src/stm32h7xx_hal_adc_ex.c ****   {
 156:Drivers/STM32H7xx_HAL_Driver/Src/stm32h7xx_hal_adc_ex.c ****     /* Set ADC state */
 157:Drivers/STM32H7xx_HAL_Driver/Src/stm32h7xx_hal_adc_ex.c ****     ADC_STATE_CLR_SET(hadc->State,
  63              		.loc 1 157 0
  64 0026 236E     		ldr	r3, [r4, #96]
  65 0028 1D48     		ldr	r0, .L10
  66              	.LVL2:
  67 002a 1840     		ands	r0, r0, r3
  68 002c 40F00200 		orr	r0, r0, #2
  69 0030 2066     		str	r0, [r4, #96]
 158:Drivers/STM32H7xx_HAL_Driver/Src/stm32h7xx_hal_adc_ex.c ****                       HAL_ADC_STATE_REG_BUSY | HAL_ADC_STATE_INJ_BUSY,
 159:Drivers/STM32H7xx_HAL_Driver/Src/stm32h7xx_hal_adc_ex.c ****                       HAL_ADC_STATE_BUSY_INTERNAL);
 160:Drivers/STM32H7xx_HAL_Driver/Src/stm32h7xx_hal_adc_ex.c **** 
ARM GAS  /tmp/ccmrLUMM.s 			page 5


 161:Drivers/STM32H7xx_HAL_Driver/Src/stm32h7xx_hal_adc_ex.c ****     /* Start ADC calibration in mode single-ended or differential */
 162:Drivers/STM32H7xx_HAL_Driver/Src/stm32h7xx_hal_adc_ex.c ****     LL_ADC_StartCalibration(hadc->Instance, CalibrationMode, SingleDiff);
  70              		.loc 1 162 0
  71 0032 2068     		ldr	r0, [r4]
  72              	.LVL3:
  73              	.LBB323:
  74              	.LBB324:
  75              		.file 2 "Drivers/STM32H7xx_HAL_Driver/Inc/stm32h7xx_ll_adc.h"
   1:Drivers/STM32H7xx_HAL_Driver/Inc/stm32h7xx_ll_adc.h **** /**
   2:Drivers/STM32H7xx_HAL_Driver/Inc/stm32h7xx_ll_adc.h ****   ******************************************************************************
   3:Drivers/STM32H7xx_HAL_Driver/Inc/stm32h7xx_ll_adc.h ****   * @file    stm32h7xx_ll_adc.h
   4:Drivers/STM32H7xx_HAL_Driver/Inc/stm32h7xx_ll_adc.h ****   * @author  MCD Application Team
   5:Drivers/STM32H7xx_HAL_Driver/Inc/stm32h7xx_ll_adc.h ****   * @brief   Header file of ADC LL module.
   6:Drivers/STM32H7xx_HAL_Driver/Inc/stm32h7xx_ll_adc.h ****   ******************************************************************************
   7:Drivers/STM32H7xx_HAL_Driver/Inc/stm32h7xx_ll_adc.h ****   * @attention
   8:Drivers/STM32H7xx_HAL_Driver/Inc/stm32h7xx_ll_adc.h ****   *
   9:Drivers/STM32H7xx_HAL_Driver/Inc/stm32h7xx_ll_adc.h ****   * <h2><center>&copy; Copyright (c) 2017 STMicroelectronics.
  10:Drivers/STM32H7xx_HAL_Driver/Inc/stm32h7xx_ll_adc.h ****   * All rights reserved.</center></h2>
  11:Drivers/STM32H7xx_HAL_Driver/Inc/stm32h7xx_ll_adc.h ****   *
  12:Drivers/STM32H7xx_HAL_Driver/Inc/stm32h7xx_ll_adc.h ****   * This software component is licensed by ST under BSD 3-Clause license,
  13:Drivers/STM32H7xx_HAL_Driver/Inc/stm32h7xx_ll_adc.h ****   * the "License"; You may not use this file except in compliance with the
  14:Drivers/STM32H7xx_HAL_Driver/Inc/stm32h7xx_ll_adc.h ****   * License. You may obtain a copy of the License at:
  15:Drivers/STM32H7xx_HAL_Driver/Inc/stm32h7xx_ll_adc.h ****   *                        opensource.org/licenses/BSD-3-Clause
  16:Drivers/STM32H7xx_HAL_Driver/Inc/stm32h7xx_ll_adc.h ****   *
  17:Drivers/STM32H7xx_HAL_Driver/Inc/stm32h7xx_ll_adc.h ****   ******************************************************************************
  18:Drivers/STM32H7xx_HAL_Driver/Inc/stm32h7xx_ll_adc.h ****   */
  19:Drivers/STM32H7xx_HAL_Driver/Inc/stm32h7xx_ll_adc.h **** 
  20:Drivers/STM32H7xx_HAL_Driver/Inc/stm32h7xx_ll_adc.h **** /* Define to prevent recursive inclusion -------------------------------------*/
  21:Drivers/STM32H7xx_HAL_Driver/Inc/stm32h7xx_ll_adc.h **** #ifndef STM32H7xx_LL_ADC_H
  22:Drivers/STM32H7xx_HAL_Driver/Inc/stm32h7xx_ll_adc.h **** #define STM32H7xx_LL_ADC_H
  23:Drivers/STM32H7xx_HAL_Driver/Inc/stm32h7xx_ll_adc.h **** 
  24:Drivers/STM32H7xx_HAL_Driver/Inc/stm32h7xx_ll_adc.h **** #ifdef __cplusplus
  25:Drivers/STM32H7xx_HAL_Driver/Inc/stm32h7xx_ll_adc.h **** extern "C" {
  26:Drivers/STM32H7xx_HAL_Driver/Inc/stm32h7xx_ll_adc.h **** #endif
  27:Drivers/STM32H7xx_HAL_Driver/Inc/stm32h7xx_ll_adc.h **** 
  28:Drivers/STM32H7xx_HAL_Driver/Inc/stm32h7xx_ll_adc.h **** /* Includes ------------------------------------------------------------------*/
  29:Drivers/STM32H7xx_HAL_Driver/Inc/stm32h7xx_ll_adc.h **** #include "stm32h7xx.h"
  30:Drivers/STM32H7xx_HAL_Driver/Inc/stm32h7xx_ll_adc.h **** 
  31:Drivers/STM32H7xx_HAL_Driver/Inc/stm32h7xx_ll_adc.h **** /** @addtogroup STM32H7xx_LL_Driver
  32:Drivers/STM32H7xx_HAL_Driver/Inc/stm32h7xx_ll_adc.h ****   * @{
  33:Drivers/STM32H7xx_HAL_Driver/Inc/stm32h7xx_ll_adc.h ****   */
  34:Drivers/STM32H7xx_HAL_Driver/Inc/stm32h7xx_ll_adc.h **** 
  35:Drivers/STM32H7xx_HAL_Driver/Inc/stm32h7xx_ll_adc.h **** #if defined (ADC1) || defined (ADC2) || defined (ADC3)
  36:Drivers/STM32H7xx_HAL_Driver/Inc/stm32h7xx_ll_adc.h **** 
  37:Drivers/STM32H7xx_HAL_Driver/Inc/stm32h7xx_ll_adc.h **** /** @defgroup ADC_LL ADC
  38:Drivers/STM32H7xx_HAL_Driver/Inc/stm32h7xx_ll_adc.h ****   * @{
  39:Drivers/STM32H7xx_HAL_Driver/Inc/stm32h7xx_ll_adc.h ****   */
  40:Drivers/STM32H7xx_HAL_Driver/Inc/stm32h7xx_ll_adc.h **** 
  41:Drivers/STM32H7xx_HAL_Driver/Inc/stm32h7xx_ll_adc.h **** /* Private types -------------------------------------------------------------*/
  42:Drivers/STM32H7xx_HAL_Driver/Inc/stm32h7xx_ll_adc.h **** /* Private variables ---------------------------------------------------------*/
  43:Drivers/STM32H7xx_HAL_Driver/Inc/stm32h7xx_ll_adc.h **** 
  44:Drivers/STM32H7xx_HAL_Driver/Inc/stm32h7xx_ll_adc.h **** /* Private constants ---------------------------------------------------------*/
  45:Drivers/STM32H7xx_HAL_Driver/Inc/stm32h7xx_ll_adc.h **** /** @defgroup ADC_LL_Private_Constants ADC Private Constants
  46:Drivers/STM32H7xx_HAL_Driver/Inc/stm32h7xx_ll_adc.h ****   * @{
  47:Drivers/STM32H7xx_HAL_Driver/Inc/stm32h7xx_ll_adc.h ****   */
  48:Drivers/STM32H7xx_HAL_Driver/Inc/stm32h7xx_ll_adc.h **** 
  49:Drivers/STM32H7xx_HAL_Driver/Inc/stm32h7xx_ll_adc.h **** /* Internal mask for ADC calibration:                                         */
ARM GAS  /tmp/ccmrLUMM.s 			page 6


  50:Drivers/STM32H7xx_HAL_Driver/Inc/stm32h7xx_ll_adc.h **** /* Internal register offset for ADC calibration factors configuration */
  51:Drivers/STM32H7xx_HAL_Driver/Inc/stm32h7xx_ll_adc.h **** 
  52:Drivers/STM32H7xx_HAL_Driver/Inc/stm32h7xx_ll_adc.h **** /* To select into literals LL_ADC_CALIB_OFFSET, LL_ADC_CALIB_LINEARITY, ...   */
  53:Drivers/STM32H7xx_HAL_Driver/Inc/stm32h7xx_ll_adc.h **** /* the relevant bits for:                                                     */
  54:Drivers/STM32H7xx_HAL_Driver/Inc/stm32h7xx_ll_adc.h **** /* (concatenation of multiple bits used in different registers)               */
  55:Drivers/STM32H7xx_HAL_Driver/Inc/stm32h7xx_ll_adc.h **** /* - ADC calibration configuration: configuration before calibration start    */
  56:Drivers/STM32H7xx_HAL_Driver/Inc/stm32h7xx_ll_adc.h **** /* - ADC calibration factors: register offset                                 */
  57:Drivers/STM32H7xx_HAL_Driver/Inc/stm32h7xx_ll_adc.h **** #define ADC_CALIB_FACTOR_OFFSET_REGOFFSET    (0x00000000UL) /* Register CALFACT defined as referenc
  58:Drivers/STM32H7xx_HAL_Driver/Inc/stm32h7xx_ll_adc.h **** #define ADC_CALIB_FACTOR_LINEARITY_REGOFFSET (0x00000001UL) /* Register CALFACT2 offset vs register
  59:Drivers/STM32H7xx_HAL_Driver/Inc/stm32h7xx_ll_adc.h **** #define ADC_CALIB_FACTOR_REGOFFSET_MASK      (ADC_CALIB_FACTOR_OFFSET_REGOFFSET | ADC_CALIB_FACTOR_
  60:Drivers/STM32H7xx_HAL_Driver/Inc/stm32h7xx_ll_adc.h **** #define ADC_CALIB_MODE_MASK                  (ADC_CR_ADCALLIN)
  61:Drivers/STM32H7xx_HAL_Driver/Inc/stm32h7xx_ll_adc.h **** #define ADC_CALIB_MODE_BINARY_MASK           (ADC_CALIB_FACTOR_REGOFFSET_MASK) /* Mask to get binar
  62:Drivers/STM32H7xx_HAL_Driver/Inc/stm32h7xx_ll_adc.h **** 
  63:Drivers/STM32H7xx_HAL_Driver/Inc/stm32h7xx_ll_adc.h **** 
  64:Drivers/STM32H7xx_HAL_Driver/Inc/stm32h7xx_ll_adc.h **** /* Internal mask for ADC group regular sequencer:                             */
  65:Drivers/STM32H7xx_HAL_Driver/Inc/stm32h7xx_ll_adc.h **** /* To select into literal LL_ADC_REG_RANK_x the relevant bits for:            */
  66:Drivers/STM32H7xx_HAL_Driver/Inc/stm32h7xx_ll_adc.h **** /* - sequencer register offset                                                */
  67:Drivers/STM32H7xx_HAL_Driver/Inc/stm32h7xx_ll_adc.h **** /* - sequencer rank bits position into the selected register                  */
  68:Drivers/STM32H7xx_HAL_Driver/Inc/stm32h7xx_ll_adc.h **** 
  69:Drivers/STM32H7xx_HAL_Driver/Inc/stm32h7xx_ll_adc.h **** /* Internal register offset for ADC group regular sequencer configuration */
  70:Drivers/STM32H7xx_HAL_Driver/Inc/stm32h7xx_ll_adc.h **** /* (offset placed into a spare area of literal definition) */
  71:Drivers/STM32H7xx_HAL_Driver/Inc/stm32h7xx_ll_adc.h **** #define ADC_SQR1_REGOFFSET                 (0x00000000UL)
  72:Drivers/STM32H7xx_HAL_Driver/Inc/stm32h7xx_ll_adc.h **** #define ADC_SQR2_REGOFFSET                 (0x00000100UL)
  73:Drivers/STM32H7xx_HAL_Driver/Inc/stm32h7xx_ll_adc.h **** #define ADC_SQR3_REGOFFSET                 (0x00000200UL)
  74:Drivers/STM32H7xx_HAL_Driver/Inc/stm32h7xx_ll_adc.h **** #define ADC_SQR4_REGOFFSET                 (0x00000300UL)
  75:Drivers/STM32H7xx_HAL_Driver/Inc/stm32h7xx_ll_adc.h **** 
  76:Drivers/STM32H7xx_HAL_Driver/Inc/stm32h7xx_ll_adc.h **** #define ADC_REG_SQRX_REGOFFSET_MASK        (ADC_SQR1_REGOFFSET | ADC_SQR2_REGOFFSET | ADC_SQR3_REGO
  77:Drivers/STM32H7xx_HAL_Driver/Inc/stm32h7xx_ll_adc.h **** #define ADC_SQRX_REGOFFSET_POS             (8UL) /* Position of bits ADC_SQRx_REGOFFSET in ADC_REG_
  78:Drivers/STM32H7xx_HAL_Driver/Inc/stm32h7xx_ll_adc.h **** #define ADC_REG_RANK_ID_SQRX_MASK          (ADC_CHANNEL_ID_NUMBER_MASK_POSBIT0)
  79:Drivers/STM32H7xx_HAL_Driver/Inc/stm32h7xx_ll_adc.h **** 
  80:Drivers/STM32H7xx_HAL_Driver/Inc/stm32h7xx_ll_adc.h **** /* Definition of ADC group regular sequencer bits information to be inserted  */
  81:Drivers/STM32H7xx_HAL_Driver/Inc/stm32h7xx_ll_adc.h **** /* into ADC group regular sequencer ranks literals definition.                */
  82:Drivers/STM32H7xx_HAL_Driver/Inc/stm32h7xx_ll_adc.h **** #define ADC_REG_RANK_1_SQRX_BITOFFSET_POS  ( 6UL) /* Value equivalent to bitfield "ADC_SQR1_SQ1" po
  83:Drivers/STM32H7xx_HAL_Driver/Inc/stm32h7xx_ll_adc.h **** #define ADC_REG_RANK_2_SQRX_BITOFFSET_POS  (12UL) /* Value equivalent to bitfield "ADC_SQR1_SQ2" po
  84:Drivers/STM32H7xx_HAL_Driver/Inc/stm32h7xx_ll_adc.h **** #define ADC_REG_RANK_3_SQRX_BITOFFSET_POS  (18UL) /* Value equivalent to bitfield "ADC_SQR1_SQ3" po
  85:Drivers/STM32H7xx_HAL_Driver/Inc/stm32h7xx_ll_adc.h **** #define ADC_REG_RANK_4_SQRX_BITOFFSET_POS  (24UL) /* Value equivalent to bitfield "ADC_SQR1_SQ4" po
  86:Drivers/STM32H7xx_HAL_Driver/Inc/stm32h7xx_ll_adc.h **** #define ADC_REG_RANK_5_SQRX_BITOFFSET_POS  ( 0UL) /* Value equivalent to bitfield "ADC_SQR2_SQ5" po
  87:Drivers/STM32H7xx_HAL_Driver/Inc/stm32h7xx_ll_adc.h **** #define ADC_REG_RANK_6_SQRX_BITOFFSET_POS  ( 6UL) /* Value equivalent to bitfield "ADC_SQR2_SQ6" po
  88:Drivers/STM32H7xx_HAL_Driver/Inc/stm32h7xx_ll_adc.h **** #define ADC_REG_RANK_7_SQRX_BITOFFSET_POS  (12UL) /* Value equivalent to bitfield "ADC_SQR2_SQ7" po
  89:Drivers/STM32H7xx_HAL_Driver/Inc/stm32h7xx_ll_adc.h **** #define ADC_REG_RANK_8_SQRX_BITOFFSET_POS  (18UL) /* Value equivalent to bitfield "ADC_SQR2_SQ8" po
  90:Drivers/STM32H7xx_HAL_Driver/Inc/stm32h7xx_ll_adc.h **** #define ADC_REG_RANK_9_SQRX_BITOFFSET_POS  (24UL) /* Value equivalent to bitfield "ADC_SQR2_SQ9" po
  91:Drivers/STM32H7xx_HAL_Driver/Inc/stm32h7xx_ll_adc.h **** #define ADC_REG_RANK_10_SQRX_BITOFFSET_POS ( 0UL) /* Value equivalent to bitfield "ADC_SQR3_SQ10" p
  92:Drivers/STM32H7xx_HAL_Driver/Inc/stm32h7xx_ll_adc.h **** #define ADC_REG_RANK_11_SQRX_BITOFFSET_POS ( 6UL) /* Value equivalent to bitfield "ADC_SQR3_SQ11" p
  93:Drivers/STM32H7xx_HAL_Driver/Inc/stm32h7xx_ll_adc.h **** #define ADC_REG_RANK_12_SQRX_BITOFFSET_POS (12UL) /* Value equivalent to bitfield "ADC_SQR3_SQ12" p
  94:Drivers/STM32H7xx_HAL_Driver/Inc/stm32h7xx_ll_adc.h **** #define ADC_REG_RANK_13_SQRX_BITOFFSET_POS (18UL) /* Value equivalent to bitfield "ADC_SQR3_SQ13" p
  95:Drivers/STM32H7xx_HAL_Driver/Inc/stm32h7xx_ll_adc.h **** #define ADC_REG_RANK_14_SQRX_BITOFFSET_POS (24UL) /* Value equivalent to bitfield "ADC_SQR3_SQ14" p
  96:Drivers/STM32H7xx_HAL_Driver/Inc/stm32h7xx_ll_adc.h **** #define ADC_REG_RANK_15_SQRX_BITOFFSET_POS ( 0UL) /* Value equivalent to bitfield "ADC_SQR4_SQ15" p
  97:Drivers/STM32H7xx_HAL_Driver/Inc/stm32h7xx_ll_adc.h **** #define ADC_REG_RANK_16_SQRX_BITOFFSET_POS ( 6UL) /* Value equivalent to bitfield "ADC_SQR4_SQ16" p
  98:Drivers/STM32H7xx_HAL_Driver/Inc/stm32h7xx_ll_adc.h **** 
  99:Drivers/STM32H7xx_HAL_Driver/Inc/stm32h7xx_ll_adc.h **** 
 100:Drivers/STM32H7xx_HAL_Driver/Inc/stm32h7xx_ll_adc.h **** 
 101:Drivers/STM32H7xx_HAL_Driver/Inc/stm32h7xx_ll_adc.h **** /* Internal mask for ADC group injected sequencer:                            */
 102:Drivers/STM32H7xx_HAL_Driver/Inc/stm32h7xx_ll_adc.h **** /* To select into literal LL_ADC_INJ_RANK_x the relevant bits for:            */
 103:Drivers/STM32H7xx_HAL_Driver/Inc/stm32h7xx_ll_adc.h **** /* - data register offset                                                     */
 104:Drivers/STM32H7xx_HAL_Driver/Inc/stm32h7xx_ll_adc.h **** /* - sequencer rank bits position into the selected register                  */
 105:Drivers/STM32H7xx_HAL_Driver/Inc/stm32h7xx_ll_adc.h **** 
 106:Drivers/STM32H7xx_HAL_Driver/Inc/stm32h7xx_ll_adc.h **** /* Internal register offset for ADC group injected data register */
ARM GAS  /tmp/ccmrLUMM.s 			page 7


 107:Drivers/STM32H7xx_HAL_Driver/Inc/stm32h7xx_ll_adc.h **** /* (offset placed into a spare area of literal definition) */
 108:Drivers/STM32H7xx_HAL_Driver/Inc/stm32h7xx_ll_adc.h **** #define ADC_JDR1_REGOFFSET                 (0x00000000UL)
 109:Drivers/STM32H7xx_HAL_Driver/Inc/stm32h7xx_ll_adc.h **** #define ADC_JDR2_REGOFFSET                 (0x00000100UL)
 110:Drivers/STM32H7xx_HAL_Driver/Inc/stm32h7xx_ll_adc.h **** #define ADC_JDR3_REGOFFSET                 (0x00000200UL)
 111:Drivers/STM32H7xx_HAL_Driver/Inc/stm32h7xx_ll_adc.h **** #define ADC_JDR4_REGOFFSET                 (0x00000300UL)
 112:Drivers/STM32H7xx_HAL_Driver/Inc/stm32h7xx_ll_adc.h **** 
 113:Drivers/STM32H7xx_HAL_Driver/Inc/stm32h7xx_ll_adc.h **** #define ADC_INJ_JDRX_REGOFFSET_MASK        (ADC_JDR1_REGOFFSET | ADC_JDR2_REGOFFSET | ADC_JDR3_REGO
 114:Drivers/STM32H7xx_HAL_Driver/Inc/stm32h7xx_ll_adc.h **** #define ADC_INJ_RANK_ID_JSQR_MASK          (ADC_CHANNEL_ID_NUMBER_MASK_POSBIT0)
 115:Drivers/STM32H7xx_HAL_Driver/Inc/stm32h7xx_ll_adc.h **** #define ADC_JDRX_REGOFFSET_POS             (8UL) /* Position of bits ADC_JDRx_REGOFFSET in ADC_INJ_
 116:Drivers/STM32H7xx_HAL_Driver/Inc/stm32h7xx_ll_adc.h **** 
 117:Drivers/STM32H7xx_HAL_Driver/Inc/stm32h7xx_ll_adc.h **** /* Definition of ADC group injected sequencer bits information to be inserted */
 118:Drivers/STM32H7xx_HAL_Driver/Inc/stm32h7xx_ll_adc.h **** /* into ADC group injected sequencer ranks literals definition.               */
 119:Drivers/STM32H7xx_HAL_Driver/Inc/stm32h7xx_ll_adc.h **** #define ADC_INJ_RANK_1_JSQR_BITOFFSET_POS  (ADC_JSQR_JSQ1_Pos)
 120:Drivers/STM32H7xx_HAL_Driver/Inc/stm32h7xx_ll_adc.h **** #define ADC_INJ_RANK_2_JSQR_BITOFFSET_POS  (ADC_JSQR_JSQ2_Pos)
 121:Drivers/STM32H7xx_HAL_Driver/Inc/stm32h7xx_ll_adc.h **** #define ADC_INJ_RANK_3_JSQR_BITOFFSET_POS  (ADC_JSQR_JSQ3_Pos)
 122:Drivers/STM32H7xx_HAL_Driver/Inc/stm32h7xx_ll_adc.h **** #define ADC_INJ_RANK_4_JSQR_BITOFFSET_POS  (ADC_JSQR_JSQ4_Pos)
 123:Drivers/STM32H7xx_HAL_Driver/Inc/stm32h7xx_ll_adc.h **** 
 124:Drivers/STM32H7xx_HAL_Driver/Inc/stm32h7xx_ll_adc.h **** 
 125:Drivers/STM32H7xx_HAL_Driver/Inc/stm32h7xx_ll_adc.h **** 
 126:Drivers/STM32H7xx_HAL_Driver/Inc/stm32h7xx_ll_adc.h **** /* Internal mask for ADC group regular trigger:                               */
 127:Drivers/STM32H7xx_HAL_Driver/Inc/stm32h7xx_ll_adc.h **** /* To select into literal LL_ADC_REG_TRIG_x the relevant bits for:            */
 128:Drivers/STM32H7xx_HAL_Driver/Inc/stm32h7xx_ll_adc.h **** /* - regular trigger source                                                   */
 129:Drivers/STM32H7xx_HAL_Driver/Inc/stm32h7xx_ll_adc.h **** /* - regular trigger edge                                                     */
 130:Drivers/STM32H7xx_HAL_Driver/Inc/stm32h7xx_ll_adc.h **** #define ADC_REG_TRIG_EXT_EDGE_DEFAULT       (ADC_CFGR_EXTEN_0) /* Trigger edge set to rising edge (
 131:Drivers/STM32H7xx_HAL_Driver/Inc/stm32h7xx_ll_adc.h **** 
 132:Drivers/STM32H7xx_HAL_Driver/Inc/stm32h7xx_ll_adc.h **** /* Mask containing trigger source masks for each of possible                  */
 133:Drivers/STM32H7xx_HAL_Driver/Inc/stm32h7xx_ll_adc.h **** /* trigger edge selection duplicated with shifts [0; 4; 8; 12]                */
 134:Drivers/STM32H7xx_HAL_Driver/Inc/stm32h7xx_ll_adc.h **** /* corresponding to {SW start; ext trigger; ext trigger; ext trigger}.        */
 135:Drivers/STM32H7xx_HAL_Driver/Inc/stm32h7xx_ll_adc.h **** #define ADC_REG_TRIG_SOURCE_MASK            (((LL_ADC_REG_TRIG_SOFTWARE & ADC_CFGR_EXTSEL) << (4U *
 136:Drivers/STM32H7xx_HAL_Driver/Inc/stm32h7xx_ll_adc.h ****                                              ((ADC_CFGR_EXTSEL)                            << (4U *
 137:Drivers/STM32H7xx_HAL_Driver/Inc/stm32h7xx_ll_adc.h ****                                              ((ADC_CFGR_EXTSEL)                            << (4U *
 138:Drivers/STM32H7xx_HAL_Driver/Inc/stm32h7xx_ll_adc.h ****                                              ((ADC_CFGR_EXTSEL)                            << (4U *
 139:Drivers/STM32H7xx_HAL_Driver/Inc/stm32h7xx_ll_adc.h **** 
 140:Drivers/STM32H7xx_HAL_Driver/Inc/stm32h7xx_ll_adc.h **** /* Mask containing trigger edge masks for each of possible                    */
 141:Drivers/STM32H7xx_HAL_Driver/Inc/stm32h7xx_ll_adc.h **** /* trigger edge selection duplicated with shifts [0; 4; 8; 12]                */
 142:Drivers/STM32H7xx_HAL_Driver/Inc/stm32h7xx_ll_adc.h **** /* corresponding to {SW start; ext trigger; ext trigger; ext trigger}.        */
 143:Drivers/STM32H7xx_HAL_Driver/Inc/stm32h7xx_ll_adc.h **** #define ADC_REG_TRIG_EDGE_MASK              (((LL_ADC_REG_TRIG_SOFTWARE & ADC_CFGR_EXTEN) << (4U * 
 144:Drivers/STM32H7xx_HAL_Driver/Inc/stm32h7xx_ll_adc.h ****                                              ((ADC_REG_TRIG_EXT_EDGE_DEFAULT)             << (4U * 
 145:Drivers/STM32H7xx_HAL_Driver/Inc/stm32h7xx_ll_adc.h ****                                              ((ADC_REG_TRIG_EXT_EDGE_DEFAULT)             << (4U * 
 146:Drivers/STM32H7xx_HAL_Driver/Inc/stm32h7xx_ll_adc.h ****                                              ((ADC_REG_TRIG_EXT_EDGE_DEFAULT)             << (4U * 
 147:Drivers/STM32H7xx_HAL_Driver/Inc/stm32h7xx_ll_adc.h **** 
 148:Drivers/STM32H7xx_HAL_Driver/Inc/stm32h7xx_ll_adc.h **** /* Definition of ADC group regular trigger bits information.                  */
 149:Drivers/STM32H7xx_HAL_Driver/Inc/stm32h7xx_ll_adc.h **** #define ADC_REG_TRIG_EXTSEL_BITOFFSET_POS  ( 6UL) /* Value equivalent to bitfield "ADC_CFGR_EXTSEL"
 150:Drivers/STM32H7xx_HAL_Driver/Inc/stm32h7xx_ll_adc.h **** #define ADC_REG_TRIG_EXTEN_BITOFFSET_POS   (10UL) /* Value equivalent to bitfield "ADC_CFGR_EXTEN" 
 151:Drivers/STM32H7xx_HAL_Driver/Inc/stm32h7xx_ll_adc.h **** 
 152:Drivers/STM32H7xx_HAL_Driver/Inc/stm32h7xx_ll_adc.h **** 
 153:Drivers/STM32H7xx_HAL_Driver/Inc/stm32h7xx_ll_adc.h **** 
 154:Drivers/STM32H7xx_HAL_Driver/Inc/stm32h7xx_ll_adc.h **** /* Internal mask for ADC group injected trigger:                              */
 155:Drivers/STM32H7xx_HAL_Driver/Inc/stm32h7xx_ll_adc.h **** /* To select into literal LL_ADC_INJ_TRIG_x the relevant bits for:            */
 156:Drivers/STM32H7xx_HAL_Driver/Inc/stm32h7xx_ll_adc.h **** /* - injected trigger source                                                  */
 157:Drivers/STM32H7xx_HAL_Driver/Inc/stm32h7xx_ll_adc.h **** /* - injected trigger edge                                                    */
 158:Drivers/STM32H7xx_HAL_Driver/Inc/stm32h7xx_ll_adc.h **** #define ADC_INJ_TRIG_EXT_EDGE_DEFAULT      (ADC_JSQR_JEXTEN_0) /* Trigger edge set to rising edge (
 159:Drivers/STM32H7xx_HAL_Driver/Inc/stm32h7xx_ll_adc.h **** 
 160:Drivers/STM32H7xx_HAL_Driver/Inc/stm32h7xx_ll_adc.h **** /* Mask containing trigger source masks for each of possible                  */
 161:Drivers/STM32H7xx_HAL_Driver/Inc/stm32h7xx_ll_adc.h **** /* trigger edge selection duplicated with shifts [0; 4; 8; 12]                */
 162:Drivers/STM32H7xx_HAL_Driver/Inc/stm32h7xx_ll_adc.h **** /* corresponding to {SW start; ext trigger; ext trigger; ext trigger}.        */
 163:Drivers/STM32H7xx_HAL_Driver/Inc/stm32h7xx_ll_adc.h **** #define ADC_INJ_TRIG_SOURCE_MASK            (((LL_ADC_INJ_TRIG_SOFTWARE & ADC_JSQR_JEXTSEL) << (4U 
ARM GAS  /tmp/ccmrLUMM.s 			page 8


 164:Drivers/STM32H7xx_HAL_Driver/Inc/stm32h7xx_ll_adc.h ****                                             ((ADC_JSQR_JEXTSEL)                             << (4U 
 165:Drivers/STM32H7xx_HAL_Driver/Inc/stm32h7xx_ll_adc.h ****                                             ((ADC_JSQR_JEXTSEL)                             << (4U 
 166:Drivers/STM32H7xx_HAL_Driver/Inc/stm32h7xx_ll_adc.h ****                                             ((ADC_JSQR_JEXTSEL)                             << (4U 
 167:Drivers/STM32H7xx_HAL_Driver/Inc/stm32h7xx_ll_adc.h **** 
 168:Drivers/STM32H7xx_HAL_Driver/Inc/stm32h7xx_ll_adc.h **** /* Mask containing trigger edge masks for each of possible                    */
 169:Drivers/STM32H7xx_HAL_Driver/Inc/stm32h7xx_ll_adc.h **** /* trigger edge selection duplicated with shifts [0; 4; 8; 12]                */
 170:Drivers/STM32H7xx_HAL_Driver/Inc/stm32h7xx_ll_adc.h **** /* corresponding to {SW start; ext trigger; ext trigger; ext trigger}.        */
 171:Drivers/STM32H7xx_HAL_Driver/Inc/stm32h7xx_ll_adc.h **** #define ADC_INJ_TRIG_EDGE_MASK              (((LL_ADC_INJ_TRIG_SOFTWARE & ADC_JSQR_JEXTEN) << (4U *
 172:Drivers/STM32H7xx_HAL_Driver/Inc/stm32h7xx_ll_adc.h ****                                              ((ADC_INJ_TRIG_EXT_EDGE_DEFAULT)              << (4U *
 173:Drivers/STM32H7xx_HAL_Driver/Inc/stm32h7xx_ll_adc.h ****                                              ((ADC_INJ_TRIG_EXT_EDGE_DEFAULT)              << (4U *
 174:Drivers/STM32H7xx_HAL_Driver/Inc/stm32h7xx_ll_adc.h ****                                              ((ADC_INJ_TRIG_EXT_EDGE_DEFAULT)              << (4U *
 175:Drivers/STM32H7xx_HAL_Driver/Inc/stm32h7xx_ll_adc.h **** 
 176:Drivers/STM32H7xx_HAL_Driver/Inc/stm32h7xx_ll_adc.h **** /* Definition of ADC group injected trigger bits information.                 */
 177:Drivers/STM32H7xx_HAL_Driver/Inc/stm32h7xx_ll_adc.h **** #define ADC_INJ_TRIG_EXTSEL_BITOFFSET_POS  ( 2UL) /* Value equivalent to bitfield "ADC_JSQR_JEXTSEL
 178:Drivers/STM32H7xx_HAL_Driver/Inc/stm32h7xx_ll_adc.h **** #define ADC_INJ_TRIG_EXTEN_BITOFFSET_POS   ( 6UL) /* Value equivalent to bitfield "ADC_JSQR_JEXTEN"
 179:Drivers/STM32H7xx_HAL_Driver/Inc/stm32h7xx_ll_adc.h **** 
 180:Drivers/STM32H7xx_HAL_Driver/Inc/stm32h7xx_ll_adc.h **** 
 181:Drivers/STM32H7xx_HAL_Driver/Inc/stm32h7xx_ll_adc.h **** 
 182:Drivers/STM32H7xx_HAL_Driver/Inc/stm32h7xx_ll_adc.h **** 
 183:Drivers/STM32H7xx_HAL_Driver/Inc/stm32h7xx_ll_adc.h **** 
 184:Drivers/STM32H7xx_HAL_Driver/Inc/stm32h7xx_ll_adc.h **** 
 185:Drivers/STM32H7xx_HAL_Driver/Inc/stm32h7xx_ll_adc.h **** /* Internal mask for ADC channel:                                             */
 186:Drivers/STM32H7xx_HAL_Driver/Inc/stm32h7xx_ll_adc.h **** /* To select into literal LL_ADC_CHANNEL_x the relevant bits for:             */
 187:Drivers/STM32H7xx_HAL_Driver/Inc/stm32h7xx_ll_adc.h **** /* - channel identifier defined by number                                     */
 188:Drivers/STM32H7xx_HAL_Driver/Inc/stm32h7xx_ll_adc.h **** /* - channel identifier defined by bitfield                                   */
 189:Drivers/STM32H7xx_HAL_Driver/Inc/stm32h7xx_ll_adc.h **** /* - channel differentiation between external channels (connected to          */
 190:Drivers/STM32H7xx_HAL_Driver/Inc/stm32h7xx_ll_adc.h **** /*   GPIO pins) and internal channels (connected to internal paths)           */
 191:Drivers/STM32H7xx_HAL_Driver/Inc/stm32h7xx_ll_adc.h **** /* - channel sampling time defined by SMPRx register offset                   */
 192:Drivers/STM32H7xx_HAL_Driver/Inc/stm32h7xx_ll_adc.h **** /*   and SMPx bits positions into SMPRx register                              */
 193:Drivers/STM32H7xx_HAL_Driver/Inc/stm32h7xx_ll_adc.h **** #define ADC_CHANNEL_ID_NUMBER_MASK         (ADC_CFGR_AWD1CH)
 194:Drivers/STM32H7xx_HAL_Driver/Inc/stm32h7xx_ll_adc.h **** #define ADC_CHANNEL_ID_BITFIELD_MASK       (ADC_AWD2CR_AWD2CH)
 195:Drivers/STM32H7xx_HAL_Driver/Inc/stm32h7xx_ll_adc.h **** #define ADC_CHANNEL_ID_NUMBER_BITOFFSET_POS (26UL)/* Value equivalent to bitfield "ADC_CHANNEL_ID_N
 196:Drivers/STM32H7xx_HAL_Driver/Inc/stm32h7xx_ll_adc.h **** #define ADC_CHANNEL_ID_MASK                (ADC_CHANNEL_ID_NUMBER_MASK | ADC_CHANNEL_ID_BITFIELD_MA
 197:Drivers/STM32H7xx_HAL_Driver/Inc/stm32h7xx_ll_adc.h **** /* Equivalent mask of ADC_CHANNEL_NUMBER_MASK aligned on register LSB (bit 0) */
 198:Drivers/STM32H7xx_HAL_Driver/Inc/stm32h7xx_ll_adc.h **** #define ADC_CHANNEL_ID_NUMBER_MASK_POSBIT0 (ADC_SQR2_SQ5) /* Equivalent to shift: (ADC_CHANNEL_NUMB
 199:Drivers/STM32H7xx_HAL_Driver/Inc/stm32h7xx_ll_adc.h **** 
 200:Drivers/STM32H7xx_HAL_Driver/Inc/stm32h7xx_ll_adc.h **** /* Channel differentiation between external and internal channels */
 201:Drivers/STM32H7xx_HAL_Driver/Inc/stm32h7xx_ll_adc.h **** #define ADC_CHANNEL_ID_INTERNAL_CH         (0x80000000UL) /* Marker of internal channel */
 202:Drivers/STM32H7xx_HAL_Driver/Inc/stm32h7xx_ll_adc.h **** #define ADC_CHANNEL_ID_INTERNAL_CH_MASK    (ADC_CHANNEL_ID_INTERNAL_CH)
 203:Drivers/STM32H7xx_HAL_Driver/Inc/stm32h7xx_ll_adc.h **** 
 204:Drivers/STM32H7xx_HAL_Driver/Inc/stm32h7xx_ll_adc.h **** /* Internal register offset for ADC channel sampling time configuration */
 205:Drivers/STM32H7xx_HAL_Driver/Inc/stm32h7xx_ll_adc.h **** /* (offset placed into a spare area of literal definition) */
 206:Drivers/STM32H7xx_HAL_Driver/Inc/stm32h7xx_ll_adc.h **** #define ADC_SMPR1_REGOFFSET                (0x00000000UL)
 207:Drivers/STM32H7xx_HAL_Driver/Inc/stm32h7xx_ll_adc.h **** #define ADC_SMPR2_REGOFFSET                (0x02000000UL)
 208:Drivers/STM32H7xx_HAL_Driver/Inc/stm32h7xx_ll_adc.h **** #define ADC_CHANNEL_SMPRX_REGOFFSET_MASK   (ADC_SMPR1_REGOFFSET | ADC_SMPR2_REGOFFSET)
 209:Drivers/STM32H7xx_HAL_Driver/Inc/stm32h7xx_ll_adc.h **** #define ADC_SMPRX_REGOFFSET_POS            (25UL) /* Position of bits ADC_SMPRx_REGOFFSET in ADC_CH
 210:Drivers/STM32H7xx_HAL_Driver/Inc/stm32h7xx_ll_adc.h **** 
 211:Drivers/STM32H7xx_HAL_Driver/Inc/stm32h7xx_ll_adc.h **** #define ADC_CHANNEL_SMPx_BITOFFSET_MASK    (0x01F00000UL)
 212:Drivers/STM32H7xx_HAL_Driver/Inc/stm32h7xx_ll_adc.h **** #define ADC_CHANNEL_SMPx_BITOFFSET_POS     (20UL)           /* Value equivalent to bitfield "ADC_CH
 213:Drivers/STM32H7xx_HAL_Driver/Inc/stm32h7xx_ll_adc.h **** 
 214:Drivers/STM32H7xx_HAL_Driver/Inc/stm32h7xx_ll_adc.h **** /* Definition of channels ID number information to be inserted into           */
 215:Drivers/STM32H7xx_HAL_Driver/Inc/stm32h7xx_ll_adc.h **** /* channels literals definition.                                              */
 216:Drivers/STM32H7xx_HAL_Driver/Inc/stm32h7xx_ll_adc.h **** #define ADC_CHANNEL_0_NUMBER               (0x00000000UL)
 217:Drivers/STM32H7xx_HAL_Driver/Inc/stm32h7xx_ll_adc.h **** #define ADC_CHANNEL_1_NUMBER               (                                                       
 218:Drivers/STM32H7xx_HAL_Driver/Inc/stm32h7xx_ll_adc.h **** #define ADC_CHANNEL_2_NUMBER               (                                                       
 219:Drivers/STM32H7xx_HAL_Driver/Inc/stm32h7xx_ll_adc.h **** #define ADC_CHANNEL_3_NUMBER               (                                                       
 220:Drivers/STM32H7xx_HAL_Driver/Inc/stm32h7xx_ll_adc.h **** #define ADC_CHANNEL_4_NUMBER               (                                        ADC_CFGR_AWD1CH
ARM GAS  /tmp/ccmrLUMM.s 			page 9


 221:Drivers/STM32H7xx_HAL_Driver/Inc/stm32h7xx_ll_adc.h **** #define ADC_CHANNEL_5_NUMBER               (                                        ADC_CFGR_AWD1CH
 222:Drivers/STM32H7xx_HAL_Driver/Inc/stm32h7xx_ll_adc.h **** #define ADC_CHANNEL_6_NUMBER               (                                        ADC_CFGR_AWD1CH
 223:Drivers/STM32H7xx_HAL_Driver/Inc/stm32h7xx_ll_adc.h **** #define ADC_CHANNEL_7_NUMBER               (                                        ADC_CFGR_AWD1CH
 224:Drivers/STM32H7xx_HAL_Driver/Inc/stm32h7xx_ll_adc.h **** #define ADC_CHANNEL_8_NUMBER               (                    ADC_CFGR_AWD1CH_3                  
 225:Drivers/STM32H7xx_HAL_Driver/Inc/stm32h7xx_ll_adc.h **** #define ADC_CHANNEL_9_NUMBER               (                    ADC_CFGR_AWD1CH_3                  
 226:Drivers/STM32H7xx_HAL_Driver/Inc/stm32h7xx_ll_adc.h **** #define ADC_CHANNEL_10_NUMBER              (                    ADC_CFGR_AWD1CH_3                  
 227:Drivers/STM32H7xx_HAL_Driver/Inc/stm32h7xx_ll_adc.h **** #define ADC_CHANNEL_11_NUMBER              (                    ADC_CFGR_AWD1CH_3                  
 228:Drivers/STM32H7xx_HAL_Driver/Inc/stm32h7xx_ll_adc.h **** #define ADC_CHANNEL_12_NUMBER              (                    ADC_CFGR_AWD1CH_3 | ADC_CFGR_AWD1CH
 229:Drivers/STM32H7xx_HAL_Driver/Inc/stm32h7xx_ll_adc.h **** #define ADC_CHANNEL_13_NUMBER              (                    ADC_CFGR_AWD1CH_3 | ADC_CFGR_AWD1CH
 230:Drivers/STM32H7xx_HAL_Driver/Inc/stm32h7xx_ll_adc.h **** #define ADC_CHANNEL_14_NUMBER              (                    ADC_CFGR_AWD1CH_3 | ADC_CFGR_AWD1CH
 231:Drivers/STM32H7xx_HAL_Driver/Inc/stm32h7xx_ll_adc.h **** #define ADC_CHANNEL_15_NUMBER              (                    ADC_CFGR_AWD1CH_3 | ADC_CFGR_AWD1CH
 232:Drivers/STM32H7xx_HAL_Driver/Inc/stm32h7xx_ll_adc.h **** #define ADC_CHANNEL_16_NUMBER              (ADC_CFGR_AWD1CH_4                                      
 233:Drivers/STM32H7xx_HAL_Driver/Inc/stm32h7xx_ll_adc.h **** #define ADC_CHANNEL_17_NUMBER              (ADC_CFGR_AWD1CH_4                                      
 234:Drivers/STM32H7xx_HAL_Driver/Inc/stm32h7xx_ll_adc.h **** #define ADC_CHANNEL_18_NUMBER              (ADC_CFGR_AWD1CH_4                                      
 235:Drivers/STM32H7xx_HAL_Driver/Inc/stm32h7xx_ll_adc.h **** #define ADC_CHANNEL_19_NUMBER              (ADC_CFGR_AWD1CH_4                                      
 236:Drivers/STM32H7xx_HAL_Driver/Inc/stm32h7xx_ll_adc.h **** 
 237:Drivers/STM32H7xx_HAL_Driver/Inc/stm32h7xx_ll_adc.h **** /* Definition of channels ID bitfield information to be inserted into         */
 238:Drivers/STM32H7xx_HAL_Driver/Inc/stm32h7xx_ll_adc.h **** /* channels literals definition.                                              */
 239:Drivers/STM32H7xx_HAL_Driver/Inc/stm32h7xx_ll_adc.h **** #define ADC_CHANNEL_0_BITFIELD             (ADC_AWD2CR_AWD2CH_0)
 240:Drivers/STM32H7xx_HAL_Driver/Inc/stm32h7xx_ll_adc.h **** #define ADC_CHANNEL_1_BITFIELD             (ADC_AWD2CR_AWD2CH_1)
 241:Drivers/STM32H7xx_HAL_Driver/Inc/stm32h7xx_ll_adc.h **** #define ADC_CHANNEL_2_BITFIELD             (ADC_AWD2CR_AWD2CH_2)
 242:Drivers/STM32H7xx_HAL_Driver/Inc/stm32h7xx_ll_adc.h **** #define ADC_CHANNEL_3_BITFIELD             (ADC_AWD2CR_AWD2CH_3)
 243:Drivers/STM32H7xx_HAL_Driver/Inc/stm32h7xx_ll_adc.h **** #define ADC_CHANNEL_4_BITFIELD             (ADC_AWD2CR_AWD2CH_4)
 244:Drivers/STM32H7xx_HAL_Driver/Inc/stm32h7xx_ll_adc.h **** #define ADC_CHANNEL_5_BITFIELD             (ADC_AWD2CR_AWD2CH_5)
 245:Drivers/STM32H7xx_HAL_Driver/Inc/stm32h7xx_ll_adc.h **** #define ADC_CHANNEL_6_BITFIELD             (ADC_AWD2CR_AWD2CH_6)
 246:Drivers/STM32H7xx_HAL_Driver/Inc/stm32h7xx_ll_adc.h **** #define ADC_CHANNEL_7_BITFIELD             (ADC_AWD2CR_AWD2CH_7)
 247:Drivers/STM32H7xx_HAL_Driver/Inc/stm32h7xx_ll_adc.h **** #define ADC_CHANNEL_8_BITFIELD             (ADC_AWD2CR_AWD2CH_8)
 248:Drivers/STM32H7xx_HAL_Driver/Inc/stm32h7xx_ll_adc.h **** #define ADC_CHANNEL_9_BITFIELD             (ADC_AWD2CR_AWD2CH_9)
 249:Drivers/STM32H7xx_HAL_Driver/Inc/stm32h7xx_ll_adc.h **** #define ADC_CHANNEL_10_BITFIELD            (ADC_AWD2CR_AWD2CH_10)
 250:Drivers/STM32H7xx_HAL_Driver/Inc/stm32h7xx_ll_adc.h **** #define ADC_CHANNEL_11_BITFIELD            (ADC_AWD2CR_AWD2CH_11)
 251:Drivers/STM32H7xx_HAL_Driver/Inc/stm32h7xx_ll_adc.h **** #define ADC_CHANNEL_12_BITFIELD            (ADC_AWD2CR_AWD2CH_12)
 252:Drivers/STM32H7xx_HAL_Driver/Inc/stm32h7xx_ll_adc.h **** #define ADC_CHANNEL_13_BITFIELD            (ADC_AWD2CR_AWD2CH_13)
 253:Drivers/STM32H7xx_HAL_Driver/Inc/stm32h7xx_ll_adc.h **** #define ADC_CHANNEL_14_BITFIELD            (ADC_AWD2CR_AWD2CH_14)
 254:Drivers/STM32H7xx_HAL_Driver/Inc/stm32h7xx_ll_adc.h **** #define ADC_CHANNEL_15_BITFIELD            (ADC_AWD2CR_AWD2CH_15)
 255:Drivers/STM32H7xx_HAL_Driver/Inc/stm32h7xx_ll_adc.h **** #define ADC_CHANNEL_16_BITFIELD            (ADC_AWD2CR_AWD2CH_16)
 256:Drivers/STM32H7xx_HAL_Driver/Inc/stm32h7xx_ll_adc.h **** #define ADC_CHANNEL_17_BITFIELD            (ADC_AWD2CR_AWD2CH_17)
 257:Drivers/STM32H7xx_HAL_Driver/Inc/stm32h7xx_ll_adc.h **** #define ADC_CHANNEL_18_BITFIELD            (ADC_AWD2CR_AWD2CH_18)
 258:Drivers/STM32H7xx_HAL_Driver/Inc/stm32h7xx_ll_adc.h **** #define ADC_CHANNEL_19_BITFIELD            (ADC_AWD2CR_AWD2CH_19)
 259:Drivers/STM32H7xx_HAL_Driver/Inc/stm32h7xx_ll_adc.h **** 
 260:Drivers/STM32H7xx_HAL_Driver/Inc/stm32h7xx_ll_adc.h **** /* Definition of channels sampling time information to be inserted into       */
 261:Drivers/STM32H7xx_HAL_Driver/Inc/stm32h7xx_ll_adc.h **** /* channels literals definition.                                              */
 262:Drivers/STM32H7xx_HAL_Driver/Inc/stm32h7xx_ll_adc.h **** #define ADC_CHANNEL_0_SMP                  (ADC_SMPR1_REGOFFSET | (( 0UL) << ADC_CHANNEL_SMPx_BITOF
 263:Drivers/STM32H7xx_HAL_Driver/Inc/stm32h7xx_ll_adc.h **** #define ADC_CHANNEL_1_SMP                  (ADC_SMPR1_REGOFFSET | (( 3UL) << ADC_CHANNEL_SMPx_BITOF
 264:Drivers/STM32H7xx_HAL_Driver/Inc/stm32h7xx_ll_adc.h **** #define ADC_CHANNEL_2_SMP                  (ADC_SMPR1_REGOFFSET | (( 6UL) << ADC_CHANNEL_SMPx_BITOF
 265:Drivers/STM32H7xx_HAL_Driver/Inc/stm32h7xx_ll_adc.h **** #define ADC_CHANNEL_3_SMP                  (ADC_SMPR1_REGOFFSET | (( 9UL) << ADC_CHANNEL_SMPx_BITOF
 266:Drivers/STM32H7xx_HAL_Driver/Inc/stm32h7xx_ll_adc.h **** #define ADC_CHANNEL_4_SMP                  (ADC_SMPR1_REGOFFSET | ((12UL) << ADC_CHANNEL_SMPx_BITOF
 267:Drivers/STM32H7xx_HAL_Driver/Inc/stm32h7xx_ll_adc.h **** #define ADC_CHANNEL_5_SMP                  (ADC_SMPR1_REGOFFSET | ((15UL) << ADC_CHANNEL_SMPx_BITOF
 268:Drivers/STM32H7xx_HAL_Driver/Inc/stm32h7xx_ll_adc.h **** #define ADC_CHANNEL_6_SMP                  (ADC_SMPR1_REGOFFSET | ((18UL) << ADC_CHANNEL_SMPx_BITOF
 269:Drivers/STM32H7xx_HAL_Driver/Inc/stm32h7xx_ll_adc.h **** #define ADC_CHANNEL_7_SMP                  (ADC_SMPR1_REGOFFSET | ((21UL) << ADC_CHANNEL_SMPx_BITOF
 270:Drivers/STM32H7xx_HAL_Driver/Inc/stm32h7xx_ll_adc.h **** #define ADC_CHANNEL_8_SMP                  (ADC_SMPR1_REGOFFSET | ((24UL) << ADC_CHANNEL_SMPx_BITOF
 271:Drivers/STM32H7xx_HAL_Driver/Inc/stm32h7xx_ll_adc.h **** #define ADC_CHANNEL_9_SMP                  (ADC_SMPR1_REGOFFSET | ((27UL) << ADC_CHANNEL_SMPx_BITOF
 272:Drivers/STM32H7xx_HAL_Driver/Inc/stm32h7xx_ll_adc.h **** #define ADC_CHANNEL_10_SMP                 (ADC_SMPR2_REGOFFSET | (( 0UL) << ADC_CHANNEL_SMPx_BITOF
 273:Drivers/STM32H7xx_HAL_Driver/Inc/stm32h7xx_ll_adc.h **** #define ADC_CHANNEL_11_SMP                 (ADC_SMPR2_REGOFFSET | (( 3UL) << ADC_CHANNEL_SMPx_BITOF
 274:Drivers/STM32H7xx_HAL_Driver/Inc/stm32h7xx_ll_adc.h **** #define ADC_CHANNEL_12_SMP                 (ADC_SMPR2_REGOFFSET | (( 6UL) << ADC_CHANNEL_SMPx_BITOF
 275:Drivers/STM32H7xx_HAL_Driver/Inc/stm32h7xx_ll_adc.h **** #define ADC_CHANNEL_13_SMP                 (ADC_SMPR2_REGOFFSET | (( 9UL) << ADC_CHANNEL_SMPx_BITOF
 276:Drivers/STM32H7xx_HAL_Driver/Inc/stm32h7xx_ll_adc.h **** #define ADC_CHANNEL_14_SMP                 (ADC_SMPR2_REGOFFSET | ((12UL) << ADC_CHANNEL_SMPx_BITOF
 277:Drivers/STM32H7xx_HAL_Driver/Inc/stm32h7xx_ll_adc.h **** #define ADC_CHANNEL_15_SMP                 (ADC_SMPR2_REGOFFSET | ((15UL) << ADC_CHANNEL_SMPx_BITOF
ARM GAS  /tmp/ccmrLUMM.s 			page 10


 278:Drivers/STM32H7xx_HAL_Driver/Inc/stm32h7xx_ll_adc.h **** #define ADC_CHANNEL_16_SMP                 (ADC_SMPR2_REGOFFSET | ((18UL) << ADC_CHANNEL_SMPx_BITOF
 279:Drivers/STM32H7xx_HAL_Driver/Inc/stm32h7xx_ll_adc.h **** #define ADC_CHANNEL_17_SMP                 (ADC_SMPR2_REGOFFSET | ((21UL) << ADC_CHANNEL_SMPx_BITOF
 280:Drivers/STM32H7xx_HAL_Driver/Inc/stm32h7xx_ll_adc.h **** #define ADC_CHANNEL_18_SMP                 (ADC_SMPR2_REGOFFSET | ((24UL) << ADC_CHANNEL_SMPx_BITOF
 281:Drivers/STM32H7xx_HAL_Driver/Inc/stm32h7xx_ll_adc.h **** #define ADC_CHANNEL_19_SMP                 (ADC_SMPR2_REGOFFSET | ((27UL) << ADC_CHANNEL_SMPx_BITOF
 282:Drivers/STM32H7xx_HAL_Driver/Inc/stm32h7xx_ll_adc.h **** 
 283:Drivers/STM32H7xx_HAL_Driver/Inc/stm32h7xx_ll_adc.h **** 
 284:Drivers/STM32H7xx_HAL_Driver/Inc/stm32h7xx_ll_adc.h **** /* Internal mask for ADC mode single or differential ended:                   */
 285:Drivers/STM32H7xx_HAL_Driver/Inc/stm32h7xx_ll_adc.h **** /* To select into literals LL_ADC_SINGLE_ENDED or LL_ADC_SINGLE_DIFFERENTIAL  */
 286:Drivers/STM32H7xx_HAL_Driver/Inc/stm32h7xx_ll_adc.h **** /* the relevant bits for:                                                     */
 287:Drivers/STM32H7xx_HAL_Driver/Inc/stm32h7xx_ll_adc.h **** /* (concatenation of multiple bits used in different registers)               */
 288:Drivers/STM32H7xx_HAL_Driver/Inc/stm32h7xx_ll_adc.h **** /* - ADC calibration: calibration start, calibration factor get or set        */
 289:Drivers/STM32H7xx_HAL_Driver/Inc/stm32h7xx_ll_adc.h **** /* - ADC channels: set each ADC channel ending mode                           */
 290:Drivers/STM32H7xx_HAL_Driver/Inc/stm32h7xx_ll_adc.h **** #define ADC_SINGLEDIFF_CALIB_START_MASK    (ADC_CR_ADCALDIF)
 291:Drivers/STM32H7xx_HAL_Driver/Inc/stm32h7xx_ll_adc.h **** #define ADC_SINGLEDIFF_CALIB_FACTOR_MASK   (ADC_CALFACT_CALFACT_D | ADC_CALFACT_CALFACT_S)
 292:Drivers/STM32H7xx_HAL_Driver/Inc/stm32h7xx_ll_adc.h **** #define ADC_SINGLEDIFF_CHANNEL_MASK        (ADC_CHANNEL_ID_BITFIELD_MASK) /* Equivalent to ADC_DIFS
 293:Drivers/STM32H7xx_HAL_Driver/Inc/stm32h7xx_ll_adc.h **** #define ADC_SINGLEDIFF_CHANNEL_SHIFT_MASK  (ADC_CALFACT_CALFACT_S_4 | ADC_CALFACT_CALFACT_S_3) /* B
 294:Drivers/STM32H7xx_HAL_Driver/Inc/stm32h7xx_ll_adc.h **** #define ADC_SINGLEDIFF_CALIB_F_BIT_D_MASK   (0x00010000UL)                           /* Selection o
 295:Drivers/STM32H7xx_HAL_Driver/Inc/stm32h7xx_ll_adc.h **** #define ADC_SINGLEDIFF_CALIB_F_BIT_D_POS    (16UL)                                   /* Selection o
 296:Drivers/STM32H7xx_HAL_Driver/Inc/stm32h7xx_ll_adc.h **** #define ADC_SINGLEDIFF_CALIB_F_BIT_D_SHIFT4 (ADC_SINGLEDIFF_CALIB_F_BIT_D_POS - 4UL) /* Shift of bi
 297:Drivers/STM32H7xx_HAL_Driver/Inc/stm32h7xx_ll_adc.h **** 
 298:Drivers/STM32H7xx_HAL_Driver/Inc/stm32h7xx_ll_adc.h **** /* Internal mask for ADC analog watchdog:                                     */
 299:Drivers/STM32H7xx_HAL_Driver/Inc/stm32h7xx_ll_adc.h **** /* To select into literals LL_ADC_AWD_CHANNELx_xxx the relevant bits for:     */
 300:Drivers/STM32H7xx_HAL_Driver/Inc/stm32h7xx_ll_adc.h **** /* (concatenation of multiple bits used in different analog watchdogs,        */
 301:Drivers/STM32H7xx_HAL_Driver/Inc/stm32h7xx_ll_adc.h **** /* (feature of several watchdogs not available on all STM32 families)).       */
 302:Drivers/STM32H7xx_HAL_Driver/Inc/stm32h7xx_ll_adc.h **** /* - analog watchdog 1: monitored channel defined by number,                  */
 303:Drivers/STM32H7xx_HAL_Driver/Inc/stm32h7xx_ll_adc.h **** /*   selection of ADC group (ADC groups regular and-or injected).             */
 304:Drivers/STM32H7xx_HAL_Driver/Inc/stm32h7xx_ll_adc.h **** /* - analog watchdog 2 and 3: monitored channel defined by bitfield, no       */
 305:Drivers/STM32H7xx_HAL_Driver/Inc/stm32h7xx_ll_adc.h **** /*   selection on groups.                                                     */
 306:Drivers/STM32H7xx_HAL_Driver/Inc/stm32h7xx_ll_adc.h **** 
 307:Drivers/STM32H7xx_HAL_Driver/Inc/stm32h7xx_ll_adc.h **** /* Internal register offset for ADC analog watchdog channel configuration */
 308:Drivers/STM32H7xx_HAL_Driver/Inc/stm32h7xx_ll_adc.h **** #define ADC_AWD_CR1_REGOFFSET              (0x00000000UL)
 309:Drivers/STM32H7xx_HAL_Driver/Inc/stm32h7xx_ll_adc.h **** #define ADC_AWD_CR2_REGOFFSET              (0x00100000UL)
 310:Drivers/STM32H7xx_HAL_Driver/Inc/stm32h7xx_ll_adc.h **** #define ADC_AWD_CR3_REGOFFSET              (0x00200000UL)
 311:Drivers/STM32H7xx_HAL_Driver/Inc/stm32h7xx_ll_adc.h **** 
 312:Drivers/STM32H7xx_HAL_Driver/Inc/stm32h7xx_ll_adc.h **** /* Register offset gap between AWD1 and AWD2-AWD3 configuration registers */
 313:Drivers/STM32H7xx_HAL_Driver/Inc/stm32h7xx_ll_adc.h **** /* (Set separately as ADC_AWD_CRX_REGOFFSET to spare 32 bits space */
 314:Drivers/STM32H7xx_HAL_Driver/Inc/stm32h7xx_ll_adc.h **** #define ADC_AWD_CR12_REGOFFSETGAP_MASK     (ADC_AWD2CR_AWD2CH_0)
 315:Drivers/STM32H7xx_HAL_Driver/Inc/stm32h7xx_ll_adc.h **** #define ADC_AWD_CR12_REGOFFSETGAP_VAL      (0x00000024UL)
 316:Drivers/STM32H7xx_HAL_Driver/Inc/stm32h7xx_ll_adc.h **** 
 317:Drivers/STM32H7xx_HAL_Driver/Inc/stm32h7xx_ll_adc.h **** #define ADC_AWD_CRX_REGOFFSET_MASK         (ADC_AWD_CR1_REGOFFSET | ADC_AWD_CR2_REGOFFSET | ADC_AWD
 318:Drivers/STM32H7xx_HAL_Driver/Inc/stm32h7xx_ll_adc.h **** 
 319:Drivers/STM32H7xx_HAL_Driver/Inc/stm32h7xx_ll_adc.h **** #define ADC_AWD_CR1_CHANNEL_MASK           (ADC_CFGR_AWD1CH | ADC_CFGR_JAWD1EN | ADC_CFGR_AWD1EN | 
 320:Drivers/STM32H7xx_HAL_Driver/Inc/stm32h7xx_ll_adc.h **** #define ADC_AWD_CR23_CHANNEL_MASK          (ADC_AWD2CR_AWD2CH)
 321:Drivers/STM32H7xx_HAL_Driver/Inc/stm32h7xx_ll_adc.h **** #define ADC_AWD_CR_ALL_CHANNEL_MASK        (ADC_AWD_CR1_CHANNEL_MASK | ADC_AWD_CR23_CHANNEL_MASK)
 322:Drivers/STM32H7xx_HAL_Driver/Inc/stm32h7xx_ll_adc.h **** 
 323:Drivers/STM32H7xx_HAL_Driver/Inc/stm32h7xx_ll_adc.h **** #define ADC_AWD_CRX_REGOFFSET_POS          (20UL) /* Position of bits ADC_AWD_CRx_REGOFFSET in ADC_
 324:Drivers/STM32H7xx_HAL_Driver/Inc/stm32h7xx_ll_adc.h **** 
 325:Drivers/STM32H7xx_HAL_Driver/Inc/stm32h7xx_ll_adc.h **** /* Internal register offset for ADC analog watchdog threshold configuration */
 326:Drivers/STM32H7xx_HAL_Driver/Inc/stm32h7xx_ll_adc.h **** #define ADC_AWD_TR1_REGOFFSET              (ADC_AWD_CR1_REGOFFSET)
 327:Drivers/STM32H7xx_HAL_Driver/Inc/stm32h7xx_ll_adc.h **** #define ADC_AWD_TR2_REGOFFSET              (ADC_AWD_CR2_REGOFFSET)
 328:Drivers/STM32H7xx_HAL_Driver/Inc/stm32h7xx_ll_adc.h **** #define ADC_AWD_TR3_REGOFFSET              (ADC_AWD_CR3_REGOFFSET)
 329:Drivers/STM32H7xx_HAL_Driver/Inc/stm32h7xx_ll_adc.h **** #define ADC_AWD_TRX_REGOFFSET_MASK         (ADC_AWD_TR1_REGOFFSET | ADC_AWD_TR2_REGOFFSET | ADC_AWD
 330:Drivers/STM32H7xx_HAL_Driver/Inc/stm32h7xx_ll_adc.h **** #define ADC_AWD_TRX_REGOFFSET_POS          (ADC_AWD_CRX_REGOFFSET_POS)     /* Position of bits ADC_
 331:Drivers/STM32H7xx_HAL_Driver/Inc/stm32h7xx_ll_adc.h **** #if defined(ADC_VER_V5_V90)
 332:Drivers/STM32H7xx_HAL_Driver/Inc/stm32h7xx_ll_adc.h **** #define ADC_AWD_TRX_BIT_HIGH_MASK          (0x00010000UL)                   /* Selection of 1 bit t
 333:Drivers/STM32H7xx_HAL_Driver/Inc/stm32h7xx_ll_adc.h **** #define ADC_AWD_TRX_BIT_HIGH_POS           (16UL)                           /* Selection of 1 bit t
 334:Drivers/STM32H7xx_HAL_Driver/Inc/stm32h7xx_ll_adc.h **** #define ADC_AWD_TRX_BIT_HIGH_SHIFT4        (ADC_AWD_TRX_BIT_HIGH_POS - 4UL) /* Shift of bit ADC_AWD
ARM GAS  /tmp/ccmrLUMM.s 			page 11


 335:Drivers/STM32H7xx_HAL_Driver/Inc/stm32h7xx_ll_adc.h **** #endif  /* ADC_VER_V5_V90 */
 336:Drivers/STM32H7xx_HAL_Driver/Inc/stm32h7xx_ll_adc.h **** 
 337:Drivers/STM32H7xx_HAL_Driver/Inc/stm32h7xx_ll_adc.h **** /* Register offset gap between AWD1 and AWD2-AWD3 thresholds registers */
 338:Drivers/STM32H7xx_HAL_Driver/Inc/stm32h7xx_ll_adc.h **** /* (Set separately as ADC_AWD_TRX_REGOFFSET to spare 32 bits space */
 339:Drivers/STM32H7xx_HAL_Driver/Inc/stm32h7xx_ll_adc.h **** #define ADC_AWD_TR12_REGOFFSETGAP_MASK     (ADC_AWD2CR_AWD2CH_0)
 340:Drivers/STM32H7xx_HAL_Driver/Inc/stm32h7xx_ll_adc.h **** #define ADC_AWD_TR12_REGOFFSETGAP_VAL      (0x00000022UL)
 341:Drivers/STM32H7xx_HAL_Driver/Inc/stm32h7xx_ll_adc.h **** 
 342:Drivers/STM32H7xx_HAL_Driver/Inc/stm32h7xx_ll_adc.h **** /* Legacy literals */
 343:Drivers/STM32H7xx_HAL_Driver/Inc/stm32h7xx_ll_adc.h **** #define LL_ADC_AWD1_TR                      LL_ADC_AWD1
 344:Drivers/STM32H7xx_HAL_Driver/Inc/stm32h7xx_ll_adc.h **** #define LL_ADC_AWD2_TR                      LL_ADC_AWD2
 345:Drivers/STM32H7xx_HAL_Driver/Inc/stm32h7xx_ll_adc.h **** #define LL_ADC_AWD3_TR                      LL_ADC_AWD3
 346:Drivers/STM32H7xx_HAL_Driver/Inc/stm32h7xx_ll_adc.h **** 
 347:Drivers/STM32H7xx_HAL_Driver/Inc/stm32h7xx_ll_adc.h **** /* Internal mask for ADC offset:                                              */
 348:Drivers/STM32H7xx_HAL_Driver/Inc/stm32h7xx_ll_adc.h **** /* Internal register offset for ADC offset number configuration */
 349:Drivers/STM32H7xx_HAL_Driver/Inc/stm32h7xx_ll_adc.h **** #define ADC_OFR1_REGOFFSET                 (0x00000000UL)
 350:Drivers/STM32H7xx_HAL_Driver/Inc/stm32h7xx_ll_adc.h **** #define ADC_OFR2_REGOFFSET                 (0x00000001UL)
 351:Drivers/STM32H7xx_HAL_Driver/Inc/stm32h7xx_ll_adc.h **** #define ADC_OFR3_REGOFFSET                 (0x00000002UL)
 352:Drivers/STM32H7xx_HAL_Driver/Inc/stm32h7xx_ll_adc.h **** #define ADC_OFR4_REGOFFSET                 (0x00000003UL)
 353:Drivers/STM32H7xx_HAL_Driver/Inc/stm32h7xx_ll_adc.h **** #define ADC_OFRx_REGOFFSET_MASK            (ADC_OFR1_REGOFFSET | ADC_OFR2_REGOFFSET | ADC_OFR3_REGO
 354:Drivers/STM32H7xx_HAL_Driver/Inc/stm32h7xx_ll_adc.h **** 
 355:Drivers/STM32H7xx_HAL_Driver/Inc/stm32h7xx_ll_adc.h **** 
 356:Drivers/STM32H7xx_HAL_Driver/Inc/stm32h7xx_ll_adc.h **** /* ADC registers bits positions */
 357:Drivers/STM32H7xx_HAL_Driver/Inc/stm32h7xx_ll_adc.h **** #define ADC_CFGR_RES_BITOFFSET_POS         (ADC_CFGR_RES_Pos)
 358:Drivers/STM32H7xx_HAL_Driver/Inc/stm32h7xx_ll_adc.h **** #define ADC_CFGR_AWD1SGL_BITOFFSET_POS     (ADC_CFGR_AWD1SGL_Pos)
 359:Drivers/STM32H7xx_HAL_Driver/Inc/stm32h7xx_ll_adc.h **** #define ADC_CFGR_AWD1EN_BITOFFSET_POS      (ADC_CFGR_AWD1EN_Pos)
 360:Drivers/STM32H7xx_HAL_Driver/Inc/stm32h7xx_ll_adc.h **** #define ADC_CFGR_JAWD1EN_BITOFFSET_POS     (ADC_CFGR_JAWD1EN_Pos)
 361:Drivers/STM32H7xx_HAL_Driver/Inc/stm32h7xx_ll_adc.h **** #if defined(ADC_VER_V5_V90)
 362:Drivers/STM32H7xx_HAL_Driver/Inc/stm32h7xx_ll_adc.h **** #define ADC_CFGR_RES_BITOFFSET_POS_ADC3    (ADC3_CFGR_RES_Pos)
 363:Drivers/STM32H7xx_HAL_Driver/Inc/stm32h7xx_ll_adc.h **** #endif /* ADC_VER_V5_V90 */
 364:Drivers/STM32H7xx_HAL_Driver/Inc/stm32h7xx_ll_adc.h **** 
 365:Drivers/STM32H7xx_HAL_Driver/Inc/stm32h7xx_ll_adc.h **** 
 366:Drivers/STM32H7xx_HAL_Driver/Inc/stm32h7xx_ll_adc.h **** /* ADC registers bits groups */
 367:Drivers/STM32H7xx_HAL_Driver/Inc/stm32h7xx_ll_adc.h **** #define ADC_CR_BITS_PROPERTY_RS            (ADC_CR_ADCAL | ADC_CR_JADSTP | ADC_CR_ADSTP | ADC_CR_JA
 368:Drivers/STM32H7xx_HAL_Driver/Inc/stm32h7xx_ll_adc.h **** 
 369:Drivers/STM32H7xx_HAL_Driver/Inc/stm32h7xx_ll_adc.h **** 
 370:Drivers/STM32H7xx_HAL_Driver/Inc/stm32h7xx_ll_adc.h **** /* ADC internal channels related definitions */
 371:Drivers/STM32H7xx_HAL_Driver/Inc/stm32h7xx_ll_adc.h **** /* Internal voltage reference VrefInt */
 372:Drivers/STM32H7xx_HAL_Driver/Inc/stm32h7xx_ll_adc.h **** #if defined(ADC_VER_V5_3)
 373:Drivers/STM32H7xx_HAL_Driver/Inc/stm32h7xx_ll_adc.h **** #define VREFINT_CAL_ADDR                   ((uint16_t*) (0x8fff810UL))  /* Internal voltage referen
 374:Drivers/STM32H7xx_HAL_Driver/Inc/stm32h7xx_ll_adc.h ****                                                                         /* Adress related to STM32H
 375:Drivers/STM32H7xx_HAL_Driver/Inc/stm32h7xx_ll_adc.h **** #else /* ADC_VER_V5_90 || ADC_VER_V5_X */
 376:Drivers/STM32H7xx_HAL_Driver/Inc/stm32h7xx_ll_adc.h **** #define VREFINT_CAL_ADDR                   ((uint16_t*) (0x1FF1E860UL)) /* Internal voltage referen
 377:Drivers/STM32H7xx_HAL_Driver/Inc/stm32h7xx_ll_adc.h **** #endif /* ADC_VER_V5_3 */
 378:Drivers/STM32H7xx_HAL_Driver/Inc/stm32h7xx_ll_adc.h **** #define VREFINT_CAL_VREF                   (3300UL)                     /* Analog voltage reference
 379:Drivers/STM32H7xx_HAL_Driver/Inc/stm32h7xx_ll_adc.h **** /* Temperature sensor */
 380:Drivers/STM32H7xx_HAL_Driver/Inc/stm32h7xx_ll_adc.h **** #if defined(ADC_VER_V5_3)
 381:Drivers/STM32H7xx_HAL_Driver/Inc/stm32h7xx_ll_adc.h **** #define TEMPSENSOR_CAL1_ADDR               ((uint16_t*) (0x8fff814UL))  /* Internal temperature sen
 382:Drivers/STM32H7xx_HAL_Driver/Inc/stm32h7xx_ll_adc.h **** #define TEMPSENSOR_CAL2_ADDR               ((uint16_t*) (0x8fff818UL))  /* Internal temperature sen
 383:Drivers/STM32H7xx_HAL_Driver/Inc/stm32h7xx_ll_adc.h ****                                                                         /* Adresses related to STM3
 384:Drivers/STM32H7xx_HAL_Driver/Inc/stm32h7xx_ll_adc.h **** #else /* ADC_VER_V5_90 || ADC_VER_V5_X */
 385:Drivers/STM32H7xx_HAL_Driver/Inc/stm32h7xx_ll_adc.h **** #define TEMPSENSOR_CAL1_ADDR               ((uint16_t*) (0x1FF1E820UL)) /* Internal temperature sen
 386:Drivers/STM32H7xx_HAL_Driver/Inc/stm32h7xx_ll_adc.h **** #define TEMPSENSOR_CAL2_ADDR               ((uint16_t*) (0x1FF1E840UL)) /* Internal temperature sen
 387:Drivers/STM32H7xx_HAL_Driver/Inc/stm32h7xx_ll_adc.h **** #endif /* ADC_VER_V5_3 */
 388:Drivers/STM32H7xx_HAL_Driver/Inc/stm32h7xx_ll_adc.h **** 
 389:Drivers/STM32H7xx_HAL_Driver/Inc/stm32h7xx_ll_adc.h **** #define TEMPSENSOR_CAL1_TEMP               (30L)                        /* Internal temperature sen
 390:Drivers/STM32H7xx_HAL_Driver/Inc/stm32h7xx_ll_adc.h **** #define TEMPSENSOR_CAL2_TEMP               (110L)                       /* Internal temperature sen
 391:Drivers/STM32H7xx_HAL_Driver/Inc/stm32h7xx_ll_adc.h **** #define TEMPSENSOR_CAL_VREFANALOG          (3300UL)                     /* Analog voltage reference
ARM GAS  /tmp/ccmrLUMM.s 			page 12


 392:Drivers/STM32H7xx_HAL_Driver/Inc/stm32h7xx_ll_adc.h **** 
 393:Drivers/STM32H7xx_HAL_Driver/Inc/stm32h7xx_ll_adc.h **** /* Registers addresses with ADC linearity calibration content (programmed during device production,
 394:Drivers/STM32H7xx_HAL_Driver/Inc/stm32h7xx_ll_adc.h **** #define ADC_LINEAR_CALIB_REG_1_ADDR ((uint32_t*) (0x1FF1EC00UL))
 395:Drivers/STM32H7xx_HAL_Driver/Inc/stm32h7xx_ll_adc.h **** #define ADC_LINEAR_CALIB_REG_2_ADDR ((uint32_t*) (0x1FF1EC04UL))
 396:Drivers/STM32H7xx_HAL_Driver/Inc/stm32h7xx_ll_adc.h **** #define ADC_LINEAR_CALIB_REG_3_ADDR ((uint32_t*) (0x1FF1EC08UL))
 397:Drivers/STM32H7xx_HAL_Driver/Inc/stm32h7xx_ll_adc.h **** #define ADC_LINEAR_CALIB_REG_4_ADDR ((uint32_t*) (0x1FF1EC0CUL))
 398:Drivers/STM32H7xx_HAL_Driver/Inc/stm32h7xx_ll_adc.h **** #define ADC_LINEAR_CALIB_REG_5_ADDR ((uint32_t*) (0x1FF1EC10UL))
 399:Drivers/STM32H7xx_HAL_Driver/Inc/stm32h7xx_ll_adc.h **** #define ADC_LINEAR_CALIB_REG_6_ADDR ((uint32_t*) (0x1FF1EC14UL))
 400:Drivers/STM32H7xx_HAL_Driver/Inc/stm32h7xx_ll_adc.h **** #define ADC_LINEAR_CALIB_REG_COUNT  (6UL)
 401:Drivers/STM32H7xx_HAL_Driver/Inc/stm32h7xx_ll_adc.h **** /**
 402:Drivers/STM32H7xx_HAL_Driver/Inc/stm32h7xx_ll_adc.h ****   * @}
 403:Drivers/STM32H7xx_HAL_Driver/Inc/stm32h7xx_ll_adc.h ****   */
 404:Drivers/STM32H7xx_HAL_Driver/Inc/stm32h7xx_ll_adc.h **** 
 405:Drivers/STM32H7xx_HAL_Driver/Inc/stm32h7xx_ll_adc.h **** 
 406:Drivers/STM32H7xx_HAL_Driver/Inc/stm32h7xx_ll_adc.h **** /* Private macros ------------------------------------------------------------*/
 407:Drivers/STM32H7xx_HAL_Driver/Inc/stm32h7xx_ll_adc.h **** /** @defgroup ADC_LL_Private_Macros ADC Private Macros
 408:Drivers/STM32H7xx_HAL_Driver/Inc/stm32h7xx_ll_adc.h ****   * @{
 409:Drivers/STM32H7xx_HAL_Driver/Inc/stm32h7xx_ll_adc.h ****   */
 410:Drivers/STM32H7xx_HAL_Driver/Inc/stm32h7xx_ll_adc.h **** 
 411:Drivers/STM32H7xx_HAL_Driver/Inc/stm32h7xx_ll_adc.h **** /**
 412:Drivers/STM32H7xx_HAL_Driver/Inc/stm32h7xx_ll_adc.h ****   * @brief  Driver macro reserved for internal use: set a pointer to
 413:Drivers/STM32H7xx_HAL_Driver/Inc/stm32h7xx_ll_adc.h ****   *         a register from a register basis from which an offset
 414:Drivers/STM32H7xx_HAL_Driver/Inc/stm32h7xx_ll_adc.h ****   *         is applied.
 415:Drivers/STM32H7xx_HAL_Driver/Inc/stm32h7xx_ll_adc.h ****   * @param  __REG__ Register basis from which the offset is applied.
 416:Drivers/STM32H7xx_HAL_Driver/Inc/stm32h7xx_ll_adc.h ****   * @param  __REG_OFFFSET__ Offset to be applied (unit: number of registers).
 417:Drivers/STM32H7xx_HAL_Driver/Inc/stm32h7xx_ll_adc.h ****   * @retval Pointer to register address
 418:Drivers/STM32H7xx_HAL_Driver/Inc/stm32h7xx_ll_adc.h ****   */
 419:Drivers/STM32H7xx_HAL_Driver/Inc/stm32h7xx_ll_adc.h **** #define __ADC_PTR_REG_OFFSET(__REG__, __REG_OFFFSET__)                         \
 420:Drivers/STM32H7xx_HAL_Driver/Inc/stm32h7xx_ll_adc.h ****  ((__IO uint32_t *)((uint32_t) ((uint32_t)(&(__REG__)) + ((__REG_OFFFSET__) << 2UL))))
 421:Drivers/STM32H7xx_HAL_Driver/Inc/stm32h7xx_ll_adc.h **** 
 422:Drivers/STM32H7xx_HAL_Driver/Inc/stm32h7xx_ll_adc.h **** /**
 423:Drivers/STM32H7xx_HAL_Driver/Inc/stm32h7xx_ll_adc.h ****   * @}
 424:Drivers/STM32H7xx_HAL_Driver/Inc/stm32h7xx_ll_adc.h ****   */
 425:Drivers/STM32H7xx_HAL_Driver/Inc/stm32h7xx_ll_adc.h **** 
 426:Drivers/STM32H7xx_HAL_Driver/Inc/stm32h7xx_ll_adc.h **** 
 427:Drivers/STM32H7xx_HAL_Driver/Inc/stm32h7xx_ll_adc.h **** /* Exported types ------------------------------------------------------------*/
 428:Drivers/STM32H7xx_HAL_Driver/Inc/stm32h7xx_ll_adc.h **** #if defined(USE_FULL_LL_DRIVER)
 429:Drivers/STM32H7xx_HAL_Driver/Inc/stm32h7xx_ll_adc.h **** /** @defgroup ADC_LL_ES_INIT ADC Exported Init structure
 430:Drivers/STM32H7xx_HAL_Driver/Inc/stm32h7xx_ll_adc.h ****   * @{
 431:Drivers/STM32H7xx_HAL_Driver/Inc/stm32h7xx_ll_adc.h ****   */
 432:Drivers/STM32H7xx_HAL_Driver/Inc/stm32h7xx_ll_adc.h **** 
 433:Drivers/STM32H7xx_HAL_Driver/Inc/stm32h7xx_ll_adc.h **** /**
 434:Drivers/STM32H7xx_HAL_Driver/Inc/stm32h7xx_ll_adc.h ****   * @brief  Structure definition of some features of ADC common parameters
 435:Drivers/STM32H7xx_HAL_Driver/Inc/stm32h7xx_ll_adc.h ****   *         and multimode
 436:Drivers/STM32H7xx_HAL_Driver/Inc/stm32h7xx_ll_adc.h ****   *         (all ADC instances belonging to the same ADC common instance).
 437:Drivers/STM32H7xx_HAL_Driver/Inc/stm32h7xx_ll_adc.h ****   * @note   The setting of these parameters by function @ref LL_ADC_CommonInit()
 438:Drivers/STM32H7xx_HAL_Driver/Inc/stm32h7xx_ll_adc.h ****   *         is conditioned to ADC instances state (all ADC instances
 439:Drivers/STM32H7xx_HAL_Driver/Inc/stm32h7xx_ll_adc.h ****   *         sharing the same ADC common instance):
 440:Drivers/STM32H7xx_HAL_Driver/Inc/stm32h7xx_ll_adc.h ****   *         All ADC instances sharing the same ADC common instance must be
 441:Drivers/STM32H7xx_HAL_Driver/Inc/stm32h7xx_ll_adc.h ****   *         disabled.
 442:Drivers/STM32H7xx_HAL_Driver/Inc/stm32h7xx_ll_adc.h ****   */
 443:Drivers/STM32H7xx_HAL_Driver/Inc/stm32h7xx_ll_adc.h **** typedef struct
 444:Drivers/STM32H7xx_HAL_Driver/Inc/stm32h7xx_ll_adc.h **** {
 445:Drivers/STM32H7xx_HAL_Driver/Inc/stm32h7xx_ll_adc.h ****   uint32_t CommonClock;                 /*!< Set parameter common to several ADC: Clock source and 
 446:Drivers/STM32H7xx_HAL_Driver/Inc/stm32h7xx_ll_adc.h ****                                              This parameter can be a value of @ref ADC_LL_EC_COMMON
 447:Drivers/STM32H7xx_HAL_Driver/Inc/stm32h7xx_ll_adc.h ****                                              @note On this STM32 serie, if ADC group injected is us
 448:Drivers/STM32H7xx_HAL_Driver/Inc/stm32h7xx_ll_adc.h ****                                                    clock ratio constraints between ADC clock and AH
ARM GAS  /tmp/ccmrLUMM.s 			page 13


 449:Drivers/STM32H7xx_HAL_Driver/Inc/stm32h7xx_ll_adc.h ****                                                    must be respected. Refer to reference manual.
 450:Drivers/STM32H7xx_HAL_Driver/Inc/stm32h7xx_ll_adc.h **** 
 451:Drivers/STM32H7xx_HAL_Driver/Inc/stm32h7xx_ll_adc.h ****                                              This feature can be modified afterwards using unitary 
 452:Drivers/STM32H7xx_HAL_Driver/Inc/stm32h7xx_ll_adc.h **** 
 453:Drivers/STM32H7xx_HAL_Driver/Inc/stm32h7xx_ll_adc.h ****   uint32_t Multimode;                   /*!< Set ADC multimode configuration to operate in independ
 454:Drivers/STM32H7xx_HAL_Driver/Inc/stm32h7xx_ll_adc.h ****                                              This parameter can be a value of @ref ADC_LL_EC_MULTI_
 455:Drivers/STM32H7xx_HAL_Driver/Inc/stm32h7xx_ll_adc.h **** 
 456:Drivers/STM32H7xx_HAL_Driver/Inc/stm32h7xx_ll_adc.h ****                                              This feature can be modified afterwards using unitary 
 457:Drivers/STM32H7xx_HAL_Driver/Inc/stm32h7xx_ll_adc.h **** 
 458:Drivers/STM32H7xx_HAL_Driver/Inc/stm32h7xx_ll_adc.h ****   uint32_t MultiDMATransfer;            /*!< Set ADC dual ADC mode DMA transfer data format: Each D
 459:Drivers/STM32H7xx_HAL_Driver/Inc/stm32h7xx_ll_adc.h ****                                              This parameter can be a value of @ref ADC_LL_EC_MULTI_
 460:Drivers/STM32H7xx_HAL_Driver/Inc/stm32h7xx_ll_adc.h **** 
 461:Drivers/STM32H7xx_HAL_Driver/Inc/stm32h7xx_ll_adc.h ****                                              This feature can be modified afterwards using unitary 
 462:Drivers/STM32H7xx_HAL_Driver/Inc/stm32h7xx_ll_adc.h **** 
 463:Drivers/STM32H7xx_HAL_Driver/Inc/stm32h7xx_ll_adc.h ****   uint32_t MultiTwoSamplingDelay;       /*!< Set ADC multimode delay between 2 sampling phases.
 464:Drivers/STM32H7xx_HAL_Driver/Inc/stm32h7xx_ll_adc.h ****                                              This parameter can be a value of @ref ADC_LL_EC_MULTI_
 465:Drivers/STM32H7xx_HAL_Driver/Inc/stm32h7xx_ll_adc.h **** 
 466:Drivers/STM32H7xx_HAL_Driver/Inc/stm32h7xx_ll_adc.h ****                                              This feature can be modified afterwards using unitary 
 467:Drivers/STM32H7xx_HAL_Driver/Inc/stm32h7xx_ll_adc.h **** 
 468:Drivers/STM32H7xx_HAL_Driver/Inc/stm32h7xx_ll_adc.h **** } LL_ADC_CommonInitTypeDef;
 469:Drivers/STM32H7xx_HAL_Driver/Inc/stm32h7xx_ll_adc.h **** 
 470:Drivers/STM32H7xx_HAL_Driver/Inc/stm32h7xx_ll_adc.h **** /**
 471:Drivers/STM32H7xx_HAL_Driver/Inc/stm32h7xx_ll_adc.h ****   * @brief  Structure definition of some features of ADC instance.
 472:Drivers/STM32H7xx_HAL_Driver/Inc/stm32h7xx_ll_adc.h ****   * @note   These parameters have an impact on ADC scope: ADC instance.
 473:Drivers/STM32H7xx_HAL_Driver/Inc/stm32h7xx_ll_adc.h ****   *         Affects both group regular and group injected (availability
 474:Drivers/STM32H7xx_HAL_Driver/Inc/stm32h7xx_ll_adc.h ****   *         of ADC group injected depends on STM32 families).
 475:Drivers/STM32H7xx_HAL_Driver/Inc/stm32h7xx_ll_adc.h ****   *         Refer to corresponding unitary functions into
 476:Drivers/STM32H7xx_HAL_Driver/Inc/stm32h7xx_ll_adc.h ****   *         @ref ADC_LL_EF_Configuration_ADC_Instance .
 477:Drivers/STM32H7xx_HAL_Driver/Inc/stm32h7xx_ll_adc.h ****   * @note   The setting of these parameters by function @ref LL_ADC_Init()
 478:Drivers/STM32H7xx_HAL_Driver/Inc/stm32h7xx_ll_adc.h ****   *         is conditioned to ADC state:
 479:Drivers/STM32H7xx_HAL_Driver/Inc/stm32h7xx_ll_adc.h ****   *         ADC instance must be disabled.
 480:Drivers/STM32H7xx_HAL_Driver/Inc/stm32h7xx_ll_adc.h ****   *         This condition is applied to all ADC features, for efficiency
 481:Drivers/STM32H7xx_HAL_Driver/Inc/stm32h7xx_ll_adc.h ****   *         and compatibility over all STM32 families. However, the different
 482:Drivers/STM32H7xx_HAL_Driver/Inc/stm32h7xx_ll_adc.h ****   *         features can be set under different ADC state conditions
 483:Drivers/STM32H7xx_HAL_Driver/Inc/stm32h7xx_ll_adc.h ****   *         (setting possible with ADC enabled without conversion on going,
 484:Drivers/STM32H7xx_HAL_Driver/Inc/stm32h7xx_ll_adc.h ****   *         ADC enabled with conversion on going, ...)
 485:Drivers/STM32H7xx_HAL_Driver/Inc/stm32h7xx_ll_adc.h ****   *         Each feature can be updated afterwards with a unitary function
 486:Drivers/STM32H7xx_HAL_Driver/Inc/stm32h7xx_ll_adc.h ****   *         and potentially with ADC in a different state than disabled,
 487:Drivers/STM32H7xx_HAL_Driver/Inc/stm32h7xx_ll_adc.h ****   *         refer to description of each function for setting
 488:Drivers/STM32H7xx_HAL_Driver/Inc/stm32h7xx_ll_adc.h ****   *         conditioned to ADC state.
 489:Drivers/STM32H7xx_HAL_Driver/Inc/stm32h7xx_ll_adc.h ****   */
 490:Drivers/STM32H7xx_HAL_Driver/Inc/stm32h7xx_ll_adc.h **** typedef struct
 491:Drivers/STM32H7xx_HAL_Driver/Inc/stm32h7xx_ll_adc.h **** {
 492:Drivers/STM32H7xx_HAL_Driver/Inc/stm32h7xx_ll_adc.h ****   uint32_t Resolution;                  /*!< Set ADC resolution.
 493:Drivers/STM32H7xx_HAL_Driver/Inc/stm32h7xx_ll_adc.h ****                                              This parameter can be a value of @ref ADC_LL_EC_RESOLU
 494:Drivers/STM32H7xx_HAL_Driver/Inc/stm32h7xx_ll_adc.h **** 
 495:Drivers/STM32H7xx_HAL_Driver/Inc/stm32h7xx_ll_adc.h ****                                              This feature can be modified afterwards using unitary 
 496:Drivers/STM32H7xx_HAL_Driver/Inc/stm32h7xx_ll_adc.h **** 
 497:Drivers/STM32H7xx_HAL_Driver/Inc/stm32h7xx_ll_adc.h ****   uint32_t LeftBitShift;                /*!< Configures the left shifting applied to the final resu
 498:Drivers/STM32H7xx_HAL_Driver/Inc/stm32h7xx_ll_adc.h ****                                              This parameter can be a value of @ref ADC_LL_EC_LEFT_B
 499:Drivers/STM32H7xx_HAL_Driver/Inc/stm32h7xx_ll_adc.h **** 
 500:Drivers/STM32H7xx_HAL_Driver/Inc/stm32h7xx_ll_adc.h ****   uint32_t LowPowerMode;                /*!< Set ADC low power mode.
 501:Drivers/STM32H7xx_HAL_Driver/Inc/stm32h7xx_ll_adc.h ****                                              This parameter can be a value of @ref ADC_LL_EC_LP_MOD
 502:Drivers/STM32H7xx_HAL_Driver/Inc/stm32h7xx_ll_adc.h **** 
 503:Drivers/STM32H7xx_HAL_Driver/Inc/stm32h7xx_ll_adc.h ****                                              This feature can be modified afterwards using unitary 
 504:Drivers/STM32H7xx_HAL_Driver/Inc/stm32h7xx_ll_adc.h **** 
 505:Drivers/STM32H7xx_HAL_Driver/Inc/stm32h7xx_ll_adc.h **** } LL_ADC_InitTypeDef;
ARM GAS  /tmp/ccmrLUMM.s 			page 14


 506:Drivers/STM32H7xx_HAL_Driver/Inc/stm32h7xx_ll_adc.h **** 
 507:Drivers/STM32H7xx_HAL_Driver/Inc/stm32h7xx_ll_adc.h **** /**
 508:Drivers/STM32H7xx_HAL_Driver/Inc/stm32h7xx_ll_adc.h ****   * @brief  Structure definition of some features of ADC group regular.
 509:Drivers/STM32H7xx_HAL_Driver/Inc/stm32h7xx_ll_adc.h ****   * @note   These parameters have an impact on ADC scope: ADC group regular.
 510:Drivers/STM32H7xx_HAL_Driver/Inc/stm32h7xx_ll_adc.h ****   *         Refer to corresponding unitary functions into
 511:Drivers/STM32H7xx_HAL_Driver/Inc/stm32h7xx_ll_adc.h ****   *         @ref ADC_LL_EF_Configuration_ADC_Group_Regular
 512:Drivers/STM32H7xx_HAL_Driver/Inc/stm32h7xx_ll_adc.h ****   *         (functions with prefix "REG").
 513:Drivers/STM32H7xx_HAL_Driver/Inc/stm32h7xx_ll_adc.h ****   * @note   The setting of these parameters by function @ref LL_ADC_REG_Init()
 514:Drivers/STM32H7xx_HAL_Driver/Inc/stm32h7xx_ll_adc.h ****   *         is conditioned to ADC state:
 515:Drivers/STM32H7xx_HAL_Driver/Inc/stm32h7xx_ll_adc.h ****   *         ADC instance must be disabled.
 516:Drivers/STM32H7xx_HAL_Driver/Inc/stm32h7xx_ll_adc.h ****   *         This condition is applied to all ADC features, for efficiency
 517:Drivers/STM32H7xx_HAL_Driver/Inc/stm32h7xx_ll_adc.h ****   *         and compatibility over all STM32 families. However, the different
 518:Drivers/STM32H7xx_HAL_Driver/Inc/stm32h7xx_ll_adc.h ****   *         features can be set under different ADC state conditions
 519:Drivers/STM32H7xx_HAL_Driver/Inc/stm32h7xx_ll_adc.h ****   *         (setting possible with ADC enabled without conversion on going,
 520:Drivers/STM32H7xx_HAL_Driver/Inc/stm32h7xx_ll_adc.h ****   *         ADC enabled with conversion on going, ...)
 521:Drivers/STM32H7xx_HAL_Driver/Inc/stm32h7xx_ll_adc.h ****   *         Each feature can be updated afterwards with a unitary function
 522:Drivers/STM32H7xx_HAL_Driver/Inc/stm32h7xx_ll_adc.h ****   *         and potentially with ADC in a different state than disabled,
 523:Drivers/STM32H7xx_HAL_Driver/Inc/stm32h7xx_ll_adc.h ****   *         refer to description of each function for setting
 524:Drivers/STM32H7xx_HAL_Driver/Inc/stm32h7xx_ll_adc.h ****   *         conditioned to ADC state.
 525:Drivers/STM32H7xx_HAL_Driver/Inc/stm32h7xx_ll_adc.h ****   */
 526:Drivers/STM32H7xx_HAL_Driver/Inc/stm32h7xx_ll_adc.h **** typedef struct
 527:Drivers/STM32H7xx_HAL_Driver/Inc/stm32h7xx_ll_adc.h **** {
 528:Drivers/STM32H7xx_HAL_Driver/Inc/stm32h7xx_ll_adc.h ****   uint32_t TriggerSource;               /*!< Set ADC group regular conversion trigger source: inter
 529:Drivers/STM32H7xx_HAL_Driver/Inc/stm32h7xx_ll_adc.h ****                                              This parameter can be a value of @ref ADC_LL_EC_REG_TR
 530:Drivers/STM32H7xx_HAL_Driver/Inc/stm32h7xx_ll_adc.h ****                                              @note On this STM32 serie, setting trigger source to e
 531:Drivers/STM32H7xx_HAL_Driver/Inc/stm32h7xx_ll_adc.h ****                                                    (default setting for compatibility with some ADC
 532:Drivers/STM32H7xx_HAL_Driver/Inc/stm32h7xx_ll_adc.h ****                                                    In case of need to modify trigger edge, use func
 533:Drivers/STM32H7xx_HAL_Driver/Inc/stm32h7xx_ll_adc.h **** 
 534:Drivers/STM32H7xx_HAL_Driver/Inc/stm32h7xx_ll_adc.h ****                                              This feature can be modified afterwards using unitary 
 535:Drivers/STM32H7xx_HAL_Driver/Inc/stm32h7xx_ll_adc.h **** 
 536:Drivers/STM32H7xx_HAL_Driver/Inc/stm32h7xx_ll_adc.h ****   uint32_t SequencerLength;             /*!< Set ADC group regular sequencer length.
 537:Drivers/STM32H7xx_HAL_Driver/Inc/stm32h7xx_ll_adc.h ****                                              This parameter can be a value of @ref ADC_LL_EC_REG_SE
 538:Drivers/STM32H7xx_HAL_Driver/Inc/stm32h7xx_ll_adc.h **** 
 539:Drivers/STM32H7xx_HAL_Driver/Inc/stm32h7xx_ll_adc.h ****                                              This feature can be modified afterwards using unitary 
 540:Drivers/STM32H7xx_HAL_Driver/Inc/stm32h7xx_ll_adc.h **** 
 541:Drivers/STM32H7xx_HAL_Driver/Inc/stm32h7xx_ll_adc.h ****   uint32_t SequencerDiscont;            /*!< Set ADC group regular sequencer discontinuous mode: se
 542:Drivers/STM32H7xx_HAL_Driver/Inc/stm32h7xx_ll_adc.h ****                                              This parameter can be a value of @ref ADC_LL_EC_REG_SE
 543:Drivers/STM32H7xx_HAL_Driver/Inc/stm32h7xx_ll_adc.h ****                                              @note This parameter has an effect only if group regul
 544:Drivers/STM32H7xx_HAL_Driver/Inc/stm32h7xx_ll_adc.h ****                                                    (scan length of 2 ranks or more).
 545:Drivers/STM32H7xx_HAL_Driver/Inc/stm32h7xx_ll_adc.h **** 
 546:Drivers/STM32H7xx_HAL_Driver/Inc/stm32h7xx_ll_adc.h ****                                              This feature can be modified afterwards using unitary 
 547:Drivers/STM32H7xx_HAL_Driver/Inc/stm32h7xx_ll_adc.h **** 
 548:Drivers/STM32H7xx_HAL_Driver/Inc/stm32h7xx_ll_adc.h ****   uint32_t ContinuousMode;              /*!< Set ADC continuous conversion mode on ADC group regula
 549:Drivers/STM32H7xx_HAL_Driver/Inc/stm32h7xx_ll_adc.h ****                                              This parameter can be a value of @ref ADC_LL_EC_REG_CO
 550:Drivers/STM32H7xx_HAL_Driver/Inc/stm32h7xx_ll_adc.h ****                                              Note: It is not possible to enable both ADC group regu
 551:Drivers/STM32H7xx_HAL_Driver/Inc/stm32h7xx_ll_adc.h **** 
 552:Drivers/STM32H7xx_HAL_Driver/Inc/stm32h7xx_ll_adc.h ****                                              This feature can be modified afterwards using unitary 
 553:Drivers/STM32H7xx_HAL_Driver/Inc/stm32h7xx_ll_adc.h **** 
 554:Drivers/STM32H7xx_HAL_Driver/Inc/stm32h7xx_ll_adc.h ****   uint32_t DataTransferMode;            /*!< Set ADC group regular conversion data transfer mode: n
 555:Drivers/STM32H7xx_HAL_Driver/Inc/stm32h7xx_ll_adc.h ****                                              This parameter can be a value of @ref ADC_LL_EC_REG_DA
 556:Drivers/STM32H7xx_HAL_Driver/Inc/stm32h7xx_ll_adc.h **** 
 557:Drivers/STM32H7xx_HAL_Driver/Inc/stm32h7xx_ll_adc.h ****                                              This feature can be modified afterwards using unitary 
 558:Drivers/STM32H7xx_HAL_Driver/Inc/stm32h7xx_ll_adc.h **** 
 559:Drivers/STM32H7xx_HAL_Driver/Inc/stm32h7xx_ll_adc.h ****   uint32_t Overrun;                     /*!< Set ADC group regular behavior in case of overrun:
 560:Drivers/STM32H7xx_HAL_Driver/Inc/stm32h7xx_ll_adc.h ****                                              data preserved or overwritten.
 561:Drivers/STM32H7xx_HAL_Driver/Inc/stm32h7xx_ll_adc.h ****                                              This parameter can be a value of @ref ADC_LL_EC_REG_OV
 562:Drivers/STM32H7xx_HAL_Driver/Inc/stm32h7xx_ll_adc.h **** 
ARM GAS  /tmp/ccmrLUMM.s 			page 15


 563:Drivers/STM32H7xx_HAL_Driver/Inc/stm32h7xx_ll_adc.h ****                                              This feature can be modified afterwards using unitary 
 564:Drivers/STM32H7xx_HAL_Driver/Inc/stm32h7xx_ll_adc.h **** 
 565:Drivers/STM32H7xx_HAL_Driver/Inc/stm32h7xx_ll_adc.h **** } LL_ADC_REG_InitTypeDef;
 566:Drivers/STM32H7xx_HAL_Driver/Inc/stm32h7xx_ll_adc.h **** 
 567:Drivers/STM32H7xx_HAL_Driver/Inc/stm32h7xx_ll_adc.h **** /**
 568:Drivers/STM32H7xx_HAL_Driver/Inc/stm32h7xx_ll_adc.h ****   * @brief  Structure definition of some features of ADC group injected.
 569:Drivers/STM32H7xx_HAL_Driver/Inc/stm32h7xx_ll_adc.h ****   * @note   These parameters have an impact on ADC scope: ADC group injected.
 570:Drivers/STM32H7xx_HAL_Driver/Inc/stm32h7xx_ll_adc.h ****   *         Refer to corresponding unitary functions into
 571:Drivers/STM32H7xx_HAL_Driver/Inc/stm32h7xx_ll_adc.h ****   *         @ref ADC_LL_EF_Configuration_ADC_Group_Regular
 572:Drivers/STM32H7xx_HAL_Driver/Inc/stm32h7xx_ll_adc.h ****   *         (functions with prefix "INJ").
 573:Drivers/STM32H7xx_HAL_Driver/Inc/stm32h7xx_ll_adc.h ****   * @note   The setting of these parameters by function @ref LL_ADC_INJ_Init()
 574:Drivers/STM32H7xx_HAL_Driver/Inc/stm32h7xx_ll_adc.h ****   *         is conditioned to ADC state:
 575:Drivers/STM32H7xx_HAL_Driver/Inc/stm32h7xx_ll_adc.h ****   *         ADC instance must be disabled.
 576:Drivers/STM32H7xx_HAL_Driver/Inc/stm32h7xx_ll_adc.h ****   *         This condition is applied to all ADC features, for efficiency
 577:Drivers/STM32H7xx_HAL_Driver/Inc/stm32h7xx_ll_adc.h ****   *         and compatibility over all STM32 families. However, the different
 578:Drivers/STM32H7xx_HAL_Driver/Inc/stm32h7xx_ll_adc.h ****   *         features can be set under different ADC state conditions
 579:Drivers/STM32H7xx_HAL_Driver/Inc/stm32h7xx_ll_adc.h ****   *         (setting possible with ADC enabled without conversion on going,
 580:Drivers/STM32H7xx_HAL_Driver/Inc/stm32h7xx_ll_adc.h ****   *         ADC enabled with conversion on going, ...)
 581:Drivers/STM32H7xx_HAL_Driver/Inc/stm32h7xx_ll_adc.h ****   *         Each feature can be updated afterwards with a unitary function
 582:Drivers/STM32H7xx_HAL_Driver/Inc/stm32h7xx_ll_adc.h ****   *         and potentially with ADC in a different state than disabled,
 583:Drivers/STM32H7xx_HAL_Driver/Inc/stm32h7xx_ll_adc.h ****   *         refer to description of each function for setting
 584:Drivers/STM32H7xx_HAL_Driver/Inc/stm32h7xx_ll_adc.h ****   *         conditioned to ADC state.
 585:Drivers/STM32H7xx_HAL_Driver/Inc/stm32h7xx_ll_adc.h ****   */
 586:Drivers/STM32H7xx_HAL_Driver/Inc/stm32h7xx_ll_adc.h **** typedef struct
 587:Drivers/STM32H7xx_HAL_Driver/Inc/stm32h7xx_ll_adc.h **** {
 588:Drivers/STM32H7xx_HAL_Driver/Inc/stm32h7xx_ll_adc.h ****   uint32_t TriggerSource;               /*!< Set ADC group injected conversion trigger source: inte
 589:Drivers/STM32H7xx_HAL_Driver/Inc/stm32h7xx_ll_adc.h ****                                              This parameter can be a value of @ref ADC_LL_EC_INJ_TR
 590:Drivers/STM32H7xx_HAL_Driver/Inc/stm32h7xx_ll_adc.h ****                                              @note On this STM32 serie, setting trigger source to e
 591:Drivers/STM32H7xx_HAL_Driver/Inc/stm32h7xx_ll_adc.h ****                                                    (default setting for compatibility with some ADC
 592:Drivers/STM32H7xx_HAL_Driver/Inc/stm32h7xx_ll_adc.h ****                                                    In case of need to modify trigger edge, use func
 593:Drivers/STM32H7xx_HAL_Driver/Inc/stm32h7xx_ll_adc.h **** 
 594:Drivers/STM32H7xx_HAL_Driver/Inc/stm32h7xx_ll_adc.h ****                                              This feature can be modified afterwards using unitary 
 595:Drivers/STM32H7xx_HAL_Driver/Inc/stm32h7xx_ll_adc.h **** 
 596:Drivers/STM32H7xx_HAL_Driver/Inc/stm32h7xx_ll_adc.h ****   uint32_t SequencerLength;             /*!< Set ADC group injected sequencer length.
 597:Drivers/STM32H7xx_HAL_Driver/Inc/stm32h7xx_ll_adc.h ****                                              This parameter can be a value of @ref ADC_LL_EC_INJ_SE
 598:Drivers/STM32H7xx_HAL_Driver/Inc/stm32h7xx_ll_adc.h **** 
 599:Drivers/STM32H7xx_HAL_Driver/Inc/stm32h7xx_ll_adc.h ****                                              This feature can be modified afterwards using unitary 
 600:Drivers/STM32H7xx_HAL_Driver/Inc/stm32h7xx_ll_adc.h **** 
 601:Drivers/STM32H7xx_HAL_Driver/Inc/stm32h7xx_ll_adc.h ****   uint32_t SequencerDiscont;            /*!< Set ADC group injected sequencer discontinuous mode: s
 602:Drivers/STM32H7xx_HAL_Driver/Inc/stm32h7xx_ll_adc.h ****                                              This parameter can be a value of @ref ADC_LL_EC_INJ_SE
 603:Drivers/STM32H7xx_HAL_Driver/Inc/stm32h7xx_ll_adc.h ****                                              @note This parameter has an effect only if group injec
 604:Drivers/STM32H7xx_HAL_Driver/Inc/stm32h7xx_ll_adc.h ****                                                    (scan length of 2 ranks or more).
 605:Drivers/STM32H7xx_HAL_Driver/Inc/stm32h7xx_ll_adc.h **** 
 606:Drivers/STM32H7xx_HAL_Driver/Inc/stm32h7xx_ll_adc.h ****                                              This feature can be modified afterwards using unitary 
 607:Drivers/STM32H7xx_HAL_Driver/Inc/stm32h7xx_ll_adc.h **** 
 608:Drivers/STM32H7xx_HAL_Driver/Inc/stm32h7xx_ll_adc.h ****   uint32_t TrigAuto;                    /*!< Set ADC group injected conversion trigger: independent
 609:Drivers/STM32H7xx_HAL_Driver/Inc/stm32h7xx_ll_adc.h ****                                              This parameter can be a value of @ref ADC_LL_EC_INJ_TR
 610:Drivers/STM32H7xx_HAL_Driver/Inc/stm32h7xx_ll_adc.h ****                                              Note: This parameter must be set to set to independent
 611:Drivers/STM32H7xx_HAL_Driver/Inc/stm32h7xx_ll_adc.h **** 
 612:Drivers/STM32H7xx_HAL_Driver/Inc/stm32h7xx_ll_adc.h ****                                              This feature can be modified afterwards using unitary 
 613:Drivers/STM32H7xx_HAL_Driver/Inc/stm32h7xx_ll_adc.h **** 
 614:Drivers/STM32H7xx_HAL_Driver/Inc/stm32h7xx_ll_adc.h **** } LL_ADC_INJ_InitTypeDef;
 615:Drivers/STM32H7xx_HAL_Driver/Inc/stm32h7xx_ll_adc.h **** 
 616:Drivers/STM32H7xx_HAL_Driver/Inc/stm32h7xx_ll_adc.h **** /**
 617:Drivers/STM32H7xx_HAL_Driver/Inc/stm32h7xx_ll_adc.h ****   * @}
 618:Drivers/STM32H7xx_HAL_Driver/Inc/stm32h7xx_ll_adc.h ****   */
 619:Drivers/STM32H7xx_HAL_Driver/Inc/stm32h7xx_ll_adc.h **** #endif /* USE_FULL_LL_DRIVER */
ARM GAS  /tmp/ccmrLUMM.s 			page 16


 620:Drivers/STM32H7xx_HAL_Driver/Inc/stm32h7xx_ll_adc.h **** 
 621:Drivers/STM32H7xx_HAL_Driver/Inc/stm32h7xx_ll_adc.h **** /* Exported constants --------------------------------------------------------*/
 622:Drivers/STM32H7xx_HAL_Driver/Inc/stm32h7xx_ll_adc.h **** /** @defgroup ADC_LL_Exported_Constants ADC Exported Constants
 623:Drivers/STM32H7xx_HAL_Driver/Inc/stm32h7xx_ll_adc.h ****   * @{
 624:Drivers/STM32H7xx_HAL_Driver/Inc/stm32h7xx_ll_adc.h ****   */
 625:Drivers/STM32H7xx_HAL_Driver/Inc/stm32h7xx_ll_adc.h **** 
 626:Drivers/STM32H7xx_HAL_Driver/Inc/stm32h7xx_ll_adc.h **** /** @defgroup ADC_LL_EC_FLAG ADC flags
 627:Drivers/STM32H7xx_HAL_Driver/Inc/stm32h7xx_ll_adc.h ****   * @brief    Flags defines which can be used with LL_ADC_ReadReg function
 628:Drivers/STM32H7xx_HAL_Driver/Inc/stm32h7xx_ll_adc.h ****   * @{
 629:Drivers/STM32H7xx_HAL_Driver/Inc/stm32h7xx_ll_adc.h ****   */
 630:Drivers/STM32H7xx_HAL_Driver/Inc/stm32h7xx_ll_adc.h **** #define LL_ADC_FLAG_ADRDY                  ADC_ISR_ADRDY      /*!< ADC flag ADC instance ready */
 631:Drivers/STM32H7xx_HAL_Driver/Inc/stm32h7xx_ll_adc.h **** #define LL_ADC_FLAG_EOC                    ADC_ISR_EOC        /*!< ADC flag ADC group regular end o
 632:Drivers/STM32H7xx_HAL_Driver/Inc/stm32h7xx_ll_adc.h **** #define LL_ADC_FLAG_EOS                    ADC_ISR_EOS        /*!< ADC flag ADC group regular end o
 633:Drivers/STM32H7xx_HAL_Driver/Inc/stm32h7xx_ll_adc.h **** #define LL_ADC_FLAG_OVR                    ADC_ISR_OVR        /*!< ADC flag ADC group regular overr
 634:Drivers/STM32H7xx_HAL_Driver/Inc/stm32h7xx_ll_adc.h **** #define LL_ADC_FLAG_EOSMP                  ADC_ISR_EOSMP      /*!< ADC flag ADC group regular end o
 635:Drivers/STM32H7xx_HAL_Driver/Inc/stm32h7xx_ll_adc.h **** #define LL_ADC_FLAG_JEOC                   ADC_ISR_JEOC       /*!< ADC flag ADC group injected end 
 636:Drivers/STM32H7xx_HAL_Driver/Inc/stm32h7xx_ll_adc.h **** #define LL_ADC_FLAG_JEOS                   ADC_ISR_JEOS       /*!< ADC flag ADC group injected end 
 637:Drivers/STM32H7xx_HAL_Driver/Inc/stm32h7xx_ll_adc.h **** #define LL_ADC_FLAG_JQOVF                  ADC_ISR_JQOVF      /*!< ADC flag ADC group injected cont
 638:Drivers/STM32H7xx_HAL_Driver/Inc/stm32h7xx_ll_adc.h **** #define LL_ADC_FLAG_AWD1                   ADC_ISR_AWD1       /*!< ADC flag ADC analog watchdog 1 *
 639:Drivers/STM32H7xx_HAL_Driver/Inc/stm32h7xx_ll_adc.h **** #define LL_ADC_FLAG_AWD2                   ADC_ISR_AWD2       /*!< ADC flag ADC analog watchdog 2 *
 640:Drivers/STM32H7xx_HAL_Driver/Inc/stm32h7xx_ll_adc.h **** #define LL_ADC_FLAG_AWD3                   ADC_ISR_AWD3       /*!< ADC flag ADC analog watchdog 3 *
 641:Drivers/STM32H7xx_HAL_Driver/Inc/stm32h7xx_ll_adc.h **** #define LL_ADC_FLAG_ADRDY_MST              ADC_CSR_ADRDY_MST  /*!< ADC flag ADC multimode master in
 642:Drivers/STM32H7xx_HAL_Driver/Inc/stm32h7xx_ll_adc.h **** #define LL_ADC_FLAG_ADRDY_SLV              ADC_CSR_ADRDY_SLV  /*!< ADC flag ADC multimode slave ins
 643:Drivers/STM32H7xx_HAL_Driver/Inc/stm32h7xx_ll_adc.h **** #define LL_ADC_FLAG_EOC_MST                ADC_CSR_EOC_MST    /*!< ADC flag ADC multimode master gr
 644:Drivers/STM32H7xx_HAL_Driver/Inc/stm32h7xx_ll_adc.h **** #define LL_ADC_FLAG_EOC_SLV                ADC_CSR_EOC_SLV    /*!< ADC flag ADC multimode slave gro
 645:Drivers/STM32H7xx_HAL_Driver/Inc/stm32h7xx_ll_adc.h **** #define LL_ADC_FLAG_EOS_MST                ADC_CSR_EOS_MST    /*!< ADC flag ADC multimode master gr
 646:Drivers/STM32H7xx_HAL_Driver/Inc/stm32h7xx_ll_adc.h **** #define LL_ADC_FLAG_EOS_SLV                ADC_CSR_EOS_SLV    /*!< ADC flag ADC multimode slave gro
 647:Drivers/STM32H7xx_HAL_Driver/Inc/stm32h7xx_ll_adc.h **** #define LL_ADC_FLAG_OVR_MST                ADC_CSR_OVR_MST    /*!< ADC flag ADC multimode master gr
 648:Drivers/STM32H7xx_HAL_Driver/Inc/stm32h7xx_ll_adc.h **** #define LL_ADC_FLAG_OVR_SLV                ADC_CSR_OVR_SLV    /*!< ADC flag ADC multimode slave gro
 649:Drivers/STM32H7xx_HAL_Driver/Inc/stm32h7xx_ll_adc.h **** #define LL_ADC_FLAG_EOSMP_MST              ADC_CSR_EOSMP_MST  /*!< ADC flag ADC multimode master gr
 650:Drivers/STM32H7xx_HAL_Driver/Inc/stm32h7xx_ll_adc.h **** #define LL_ADC_FLAG_EOSMP_SLV              ADC_CSR_EOSMP_SLV  /*!< ADC flag ADC multimode slave gro
 651:Drivers/STM32H7xx_HAL_Driver/Inc/stm32h7xx_ll_adc.h **** #define LL_ADC_FLAG_JEOC_MST               ADC_CSR_JEOC_MST   /*!< ADC flag ADC multimode master gr
 652:Drivers/STM32H7xx_HAL_Driver/Inc/stm32h7xx_ll_adc.h **** #define LL_ADC_FLAG_JEOC_SLV               ADC_CSR_JEOC_SLV   /*!< ADC flag ADC multimode slave gro
 653:Drivers/STM32H7xx_HAL_Driver/Inc/stm32h7xx_ll_adc.h **** #define LL_ADC_FLAG_JEOS_MST               ADC_CSR_JEOS_MST   /*!< ADC flag ADC multimode master gr
 654:Drivers/STM32H7xx_HAL_Driver/Inc/stm32h7xx_ll_adc.h **** #define LL_ADC_FLAG_JEOS_SLV               ADC_CSR_JEOS_SLV   /*!< ADC flag ADC multimode slave gro
 655:Drivers/STM32H7xx_HAL_Driver/Inc/stm32h7xx_ll_adc.h **** #define LL_ADC_FLAG_JQOVF_MST              ADC_CSR_JQOVF_MST  /*!< ADC flag ADC multimode master gr
 656:Drivers/STM32H7xx_HAL_Driver/Inc/stm32h7xx_ll_adc.h **** #define LL_ADC_FLAG_JQOVF_SLV              ADC_CSR_JQOVF_SLV  /*!< ADC flag ADC multimode slave gro
 657:Drivers/STM32H7xx_HAL_Driver/Inc/stm32h7xx_ll_adc.h **** #define LL_ADC_FLAG_AWD1_MST               ADC_CSR_AWD1_MST   /*!< ADC flag ADC multimode master an
 658:Drivers/STM32H7xx_HAL_Driver/Inc/stm32h7xx_ll_adc.h **** #define LL_ADC_FLAG_AWD1_SLV               ADC_CSR_AWD1_SLV   /*!< ADC flag ADC multimode slave ana
 659:Drivers/STM32H7xx_HAL_Driver/Inc/stm32h7xx_ll_adc.h **** #define LL_ADC_FLAG_AWD2_MST               ADC_CSR_AWD2_MST   /*!< ADC flag ADC multimode master an
 660:Drivers/STM32H7xx_HAL_Driver/Inc/stm32h7xx_ll_adc.h **** #define LL_ADC_FLAG_AWD2_SLV               ADC_CSR_AWD2_SLV   /*!< ADC flag ADC multimode slave ana
 661:Drivers/STM32H7xx_HAL_Driver/Inc/stm32h7xx_ll_adc.h **** #define LL_ADC_FLAG_AWD3_MST               ADC_CSR_AWD3_MST   /*!< ADC flag ADC multimode master an
 662:Drivers/STM32H7xx_HAL_Driver/Inc/stm32h7xx_ll_adc.h **** #define LL_ADC_FLAG_AWD3_SLV               ADC_CSR_AWD3_SLV   /*!< ADC flag ADC multimode slave ana
 663:Drivers/STM32H7xx_HAL_Driver/Inc/stm32h7xx_ll_adc.h **** /**
 664:Drivers/STM32H7xx_HAL_Driver/Inc/stm32h7xx_ll_adc.h ****   * @}
 665:Drivers/STM32H7xx_HAL_Driver/Inc/stm32h7xx_ll_adc.h ****   */
 666:Drivers/STM32H7xx_HAL_Driver/Inc/stm32h7xx_ll_adc.h **** 
 667:Drivers/STM32H7xx_HAL_Driver/Inc/stm32h7xx_ll_adc.h **** /** @defgroup ADC_LL_EC_IT ADC interruptions for configuration (interruption enable or disable)
 668:Drivers/STM32H7xx_HAL_Driver/Inc/stm32h7xx_ll_adc.h ****   * @brief    IT defines which can be used with LL_ADC_ReadReg and  LL_ADC_WriteReg functions
 669:Drivers/STM32H7xx_HAL_Driver/Inc/stm32h7xx_ll_adc.h ****   * @{
 670:Drivers/STM32H7xx_HAL_Driver/Inc/stm32h7xx_ll_adc.h ****   */
 671:Drivers/STM32H7xx_HAL_Driver/Inc/stm32h7xx_ll_adc.h **** #define LL_ADC_IT_ADRDY                    ADC_IER_ADRDYIE    /*!< ADC interruption ADC instance re
 672:Drivers/STM32H7xx_HAL_Driver/Inc/stm32h7xx_ll_adc.h **** #define LL_ADC_IT_EOC                      ADC_IER_EOCIE      /*!< ADC interruption ADC group regul
 673:Drivers/STM32H7xx_HAL_Driver/Inc/stm32h7xx_ll_adc.h **** #define LL_ADC_IT_EOS                      ADC_IER_EOSIE      /*!< ADC interruption ADC group regul
 674:Drivers/STM32H7xx_HAL_Driver/Inc/stm32h7xx_ll_adc.h **** #define LL_ADC_IT_OVR                      ADC_IER_OVRIE      /*!< ADC interruption ADC group regul
 675:Drivers/STM32H7xx_HAL_Driver/Inc/stm32h7xx_ll_adc.h **** #define LL_ADC_IT_EOSMP                    ADC_IER_EOSMPIE    /*!< ADC interruption ADC group regul
 676:Drivers/STM32H7xx_HAL_Driver/Inc/stm32h7xx_ll_adc.h **** #define LL_ADC_IT_JEOC                     ADC_IER_JEOCIE     /*!< ADC interruption ADC group injec
ARM GAS  /tmp/ccmrLUMM.s 			page 17


 677:Drivers/STM32H7xx_HAL_Driver/Inc/stm32h7xx_ll_adc.h **** #define LL_ADC_IT_JEOS                     ADC_IER_JEOSIE     /*!< ADC interruption ADC group injec
 678:Drivers/STM32H7xx_HAL_Driver/Inc/stm32h7xx_ll_adc.h **** #define LL_ADC_IT_JQOVF                    ADC_IER_JQOVFIE    /*!< ADC interruption ADC group injec
 679:Drivers/STM32H7xx_HAL_Driver/Inc/stm32h7xx_ll_adc.h **** #define LL_ADC_IT_AWD1                     ADC_IER_AWD1IE     /*!< ADC interruption ADC analog watc
 680:Drivers/STM32H7xx_HAL_Driver/Inc/stm32h7xx_ll_adc.h **** #define LL_ADC_IT_AWD2                     ADC_IER_AWD2IE     /*!< ADC interruption ADC analog watc
 681:Drivers/STM32H7xx_HAL_Driver/Inc/stm32h7xx_ll_adc.h **** #define LL_ADC_IT_AWD3                     ADC_IER_AWD3IE     /*!< ADC interruption ADC analog watc
 682:Drivers/STM32H7xx_HAL_Driver/Inc/stm32h7xx_ll_adc.h **** /**
 683:Drivers/STM32H7xx_HAL_Driver/Inc/stm32h7xx_ll_adc.h ****   * @}
 684:Drivers/STM32H7xx_HAL_Driver/Inc/stm32h7xx_ll_adc.h ****   */
 685:Drivers/STM32H7xx_HAL_Driver/Inc/stm32h7xx_ll_adc.h **** 
 686:Drivers/STM32H7xx_HAL_Driver/Inc/stm32h7xx_ll_adc.h **** /** @defgroup ADC_LL_EC_REGISTERS  ADC registers compliant with specific purpose
 687:Drivers/STM32H7xx_HAL_Driver/Inc/stm32h7xx_ll_adc.h ****   * @{
 688:Drivers/STM32H7xx_HAL_Driver/Inc/stm32h7xx_ll_adc.h ****   */
 689:Drivers/STM32H7xx_HAL_Driver/Inc/stm32h7xx_ll_adc.h **** /* List of ADC registers intended to be used (most commonly) with             */
 690:Drivers/STM32H7xx_HAL_Driver/Inc/stm32h7xx_ll_adc.h **** /* DMA transfer.                                                              */
 691:Drivers/STM32H7xx_HAL_Driver/Inc/stm32h7xx_ll_adc.h **** /* Refer to function @ref LL_ADC_DMA_GetRegAddr().                            */
 692:Drivers/STM32H7xx_HAL_Driver/Inc/stm32h7xx_ll_adc.h **** #define LL_ADC_DMA_REG_REGULAR_DATA          (0x00000000UL) /* ADC group regular conversion data re
 693:Drivers/STM32H7xx_HAL_Driver/Inc/stm32h7xx_ll_adc.h **** #define LL_ADC_DMA_REG_REGULAR_DATA_MULTI    (0x00000001UL) /* ADC group regular conversion data re
 694:Drivers/STM32H7xx_HAL_Driver/Inc/stm32h7xx_ll_adc.h **** /**
 695:Drivers/STM32H7xx_HAL_Driver/Inc/stm32h7xx_ll_adc.h ****   * @}
 696:Drivers/STM32H7xx_HAL_Driver/Inc/stm32h7xx_ll_adc.h ****   */
 697:Drivers/STM32H7xx_HAL_Driver/Inc/stm32h7xx_ll_adc.h **** 
 698:Drivers/STM32H7xx_HAL_Driver/Inc/stm32h7xx_ll_adc.h **** /** @defgroup ADC_LL_EC_COMMON_CLOCK_SOURCE  ADC common - Clock source
 699:Drivers/STM32H7xx_HAL_Driver/Inc/stm32h7xx_ll_adc.h ****   * @{
 700:Drivers/STM32H7xx_HAL_Driver/Inc/stm32h7xx_ll_adc.h ****   */
 701:Drivers/STM32H7xx_HAL_Driver/Inc/stm32h7xx_ll_adc.h **** #define LL_ADC_CLOCK_SYNC_PCLK_DIV1        (ADC_CCR_CKMODE_0)                                    /*
 702:Drivers/STM32H7xx_HAL_Driver/Inc/stm32h7xx_ll_adc.h **** #define LL_ADC_CLOCK_SYNC_PCLK_DIV2        (ADC_CCR_CKMODE_1                   )                 /*
 703:Drivers/STM32H7xx_HAL_Driver/Inc/stm32h7xx_ll_adc.h **** #define LL_ADC_CLOCK_SYNC_PCLK_DIV4        (ADC_CCR_CKMODE_1 | ADC_CCR_CKMODE_0)                 /*
 704:Drivers/STM32H7xx_HAL_Driver/Inc/stm32h7xx_ll_adc.h **** #define LL_ADC_CLOCK_ASYNC_DIV1            (0x00000000UL)                                        /*
 705:Drivers/STM32H7xx_HAL_Driver/Inc/stm32h7xx_ll_adc.h **** #define LL_ADC_CLOCK_ASYNC_DIV2            (ADC_CCR_PRESC_0)                                     /*
 706:Drivers/STM32H7xx_HAL_Driver/Inc/stm32h7xx_ll_adc.h **** #define LL_ADC_CLOCK_ASYNC_DIV4            (ADC_CCR_PRESC_1                  )                   /*
 707:Drivers/STM32H7xx_HAL_Driver/Inc/stm32h7xx_ll_adc.h **** #define LL_ADC_CLOCK_ASYNC_DIV6            (ADC_CCR_PRESC_1 | ADC_CCR_PRESC_0)                   /*
 708:Drivers/STM32H7xx_HAL_Driver/Inc/stm32h7xx_ll_adc.h **** #define LL_ADC_CLOCK_ASYNC_DIV8            (ADC_CCR_PRESC_2                                    ) /*
 709:Drivers/STM32H7xx_HAL_Driver/Inc/stm32h7xx_ll_adc.h **** #define LL_ADC_CLOCK_ASYNC_DIV10           (ADC_CCR_PRESC_2                   | ADC_CCR_PRESC_0) /*
 710:Drivers/STM32H7xx_HAL_Driver/Inc/stm32h7xx_ll_adc.h **** #define LL_ADC_CLOCK_ASYNC_DIV12           (ADC_CCR_PRESC_2 | ADC_CCR_PRESC_1                  ) /*
 711:Drivers/STM32H7xx_HAL_Driver/Inc/stm32h7xx_ll_adc.h **** #define LL_ADC_CLOCK_ASYNC_DIV16           (ADC_CCR_PRESC_2 | ADC_CCR_PRESC_1 | ADC_CCR_PRESC_0) /*
 712:Drivers/STM32H7xx_HAL_Driver/Inc/stm32h7xx_ll_adc.h **** #define LL_ADC_CLOCK_ASYNC_DIV32           (ADC_CCR_PRESC_3)                                     /*
 713:Drivers/STM32H7xx_HAL_Driver/Inc/stm32h7xx_ll_adc.h **** #define LL_ADC_CLOCK_ASYNC_DIV64           (ADC_CCR_PRESC_3 | ADC_CCR_PRESC_0)                   /*
 714:Drivers/STM32H7xx_HAL_Driver/Inc/stm32h7xx_ll_adc.h **** #define LL_ADC_CLOCK_ASYNC_DIV128          (ADC_CCR_PRESC_3 | ADC_CCR_PRESC_1)                   /*
 715:Drivers/STM32H7xx_HAL_Driver/Inc/stm32h7xx_ll_adc.h **** #define LL_ADC_CLOCK_ASYNC_DIV256          (ADC_CCR_PRESC_3 | ADC_CCR_PRESC_1 | ADC_CCR_PRESC_0) /*
 716:Drivers/STM32H7xx_HAL_Driver/Inc/stm32h7xx_ll_adc.h **** /**
 717:Drivers/STM32H7xx_HAL_Driver/Inc/stm32h7xx_ll_adc.h ****   * @}
 718:Drivers/STM32H7xx_HAL_Driver/Inc/stm32h7xx_ll_adc.h ****   */
 719:Drivers/STM32H7xx_HAL_Driver/Inc/stm32h7xx_ll_adc.h **** 
 720:Drivers/STM32H7xx_HAL_Driver/Inc/stm32h7xx_ll_adc.h **** /** @defgroup ADC_LL_EC_COMMON_PATH_INTERNAL  ADC common - Measurement path to internal channels
 721:Drivers/STM32H7xx_HAL_Driver/Inc/stm32h7xx_ll_adc.h ****   * @{
 722:Drivers/STM32H7xx_HAL_Driver/Inc/stm32h7xx_ll_adc.h ****   */
 723:Drivers/STM32H7xx_HAL_Driver/Inc/stm32h7xx_ll_adc.h **** /* Note: Other measurement paths to internal channels may be available        */
 724:Drivers/STM32H7xx_HAL_Driver/Inc/stm32h7xx_ll_adc.h **** /*       (connections to other peripherals).                                  */
 725:Drivers/STM32H7xx_HAL_Driver/Inc/stm32h7xx_ll_adc.h **** /*       If they are not listed below, they do not require any specific       */
 726:Drivers/STM32H7xx_HAL_Driver/Inc/stm32h7xx_ll_adc.h **** /*       path enable. In this case, Access to measurement path is done        */
 727:Drivers/STM32H7xx_HAL_Driver/Inc/stm32h7xx_ll_adc.h **** /*       only by selecting the corresponding ADC internal channel.            */
 728:Drivers/STM32H7xx_HAL_Driver/Inc/stm32h7xx_ll_adc.h **** #define LL_ADC_PATH_INTERNAL_NONE          (0x00000000UL)         /*!< ADC measurement pathes all d
 729:Drivers/STM32H7xx_HAL_Driver/Inc/stm32h7xx_ll_adc.h **** #define LL_ADC_PATH_INTERNAL_VREFINT       (ADC_CCR_VREFEN)       /*!< ADC measurement path to inte
 730:Drivers/STM32H7xx_HAL_Driver/Inc/stm32h7xx_ll_adc.h **** #define LL_ADC_PATH_INTERNAL_TEMPSENSOR    (ADC_CCR_TSEN)         /*!< ADC measurement path to inte
 731:Drivers/STM32H7xx_HAL_Driver/Inc/stm32h7xx_ll_adc.h **** #define LL_ADC_PATH_INTERNAL_VBAT          (ADC_CCR_VBATEN)       /*!< ADC measurement path to inte
 732:Drivers/STM32H7xx_HAL_Driver/Inc/stm32h7xx_ll_adc.h **** /**
 733:Drivers/STM32H7xx_HAL_Driver/Inc/stm32h7xx_ll_adc.h ****   * @}
ARM GAS  /tmp/ccmrLUMM.s 			page 18


 734:Drivers/STM32H7xx_HAL_Driver/Inc/stm32h7xx_ll_adc.h ****   */
 735:Drivers/STM32H7xx_HAL_Driver/Inc/stm32h7xx_ll_adc.h **** 
 736:Drivers/STM32H7xx_HAL_Driver/Inc/stm32h7xx_ll_adc.h **** /** @defgroup ADC_LL_EC_BOOST_MODE ADC instance - Boost mode
 737:Drivers/STM32H7xx_HAL_Driver/Inc/stm32h7xx_ll_adc.h ****   * @{
 738:Drivers/STM32H7xx_HAL_Driver/Inc/stm32h7xx_ll_adc.h ****   */
 739:Drivers/STM32H7xx_HAL_Driver/Inc/stm32h7xx_ll_adc.h **** #define LL_ADC_BOOST_MODE_6MHZ25   (0x00000000UL)                                            /*!< B
 740:Drivers/STM32H7xx_HAL_Driver/Inc/stm32h7xx_ll_adc.h **** #define LL_ADC_BOOST_MODE_12MHZ5   (                                        ADC_CR_BOOST_0)  /*!< B
 741:Drivers/STM32H7xx_HAL_Driver/Inc/stm32h7xx_ll_adc.h **** #define LL_ADC_BOOST_MODE_20MHZ    (                       ADC_CR_BOOST_1                 )  /*!< B
 742:Drivers/STM32H7xx_HAL_Driver/Inc/stm32h7xx_ll_adc.h **** #define LL_ADC_BOOST_MODE_25MHZ    ((ADC_CR_BOOST_0 <<2) | ADC_CR_BOOST_1                 )  /*!< B
 743:Drivers/STM32H7xx_HAL_Driver/Inc/stm32h7xx_ll_adc.h **** #define LL_ADC_BOOST_MODE_50MHZ    ((ADC_CR_BOOST_0 <<2) | ADC_CR_BOOST_1 | ADC_CR_BOOST_0)  /*!< B
 744:Drivers/STM32H7xx_HAL_Driver/Inc/stm32h7xx_ll_adc.h **** /**
 745:Drivers/STM32H7xx_HAL_Driver/Inc/stm32h7xx_ll_adc.h ****   * @}
 746:Drivers/STM32H7xx_HAL_Driver/Inc/stm32h7xx_ll_adc.h ****   */
 747:Drivers/STM32H7xx_HAL_Driver/Inc/stm32h7xx_ll_adc.h **** 
 748:Drivers/STM32H7xx_HAL_Driver/Inc/stm32h7xx_ll_adc.h **** /** @defgroup ADC_LL_EC_CALIBRATION_OFFSET_LINEARITY  ADC instance - Calibration mode for offset an
 749:Drivers/STM32H7xx_HAL_Driver/Inc/stm32h7xx_ll_adc.h ****   * @{
 750:Drivers/STM32H7xx_HAL_Driver/Inc/stm32h7xx_ll_adc.h ****   */
 751:Drivers/STM32H7xx_HAL_Driver/Inc/stm32h7xx_ll_adc.h **** #define LL_ADC_CALIB_OFFSET                (ADC_CALIB_FACTOR_OFFSET_REGOFFSET)                     
 752:Drivers/STM32H7xx_HAL_Driver/Inc/stm32h7xx_ll_adc.h **** #define LL_ADC_CALIB_LINEARITY             (ADC_CALIB_FACTOR_LINEARITY_REGOFFSET)                  
 753:Drivers/STM32H7xx_HAL_Driver/Inc/stm32h7xx_ll_adc.h **** #define LL_ADC_CALIB_OFFSET_LINEARITY      (ADC_CALIB_FACTOR_LINEARITY_REGOFFSET | ADC_CR_ADCALLIN)
 754:Drivers/STM32H7xx_HAL_Driver/Inc/stm32h7xx_ll_adc.h **** /**
 755:Drivers/STM32H7xx_HAL_Driver/Inc/stm32h7xx_ll_adc.h ****   * @}
 756:Drivers/STM32H7xx_HAL_Driver/Inc/stm32h7xx_ll_adc.h ****   */
 757:Drivers/STM32H7xx_HAL_Driver/Inc/stm32h7xx_ll_adc.h **** 
 758:Drivers/STM32H7xx_HAL_Driver/Inc/stm32h7xx_ll_adc.h **** /** @defgroup ADC_LL_EC_CALIBRATION_LINEARITY_WORD  ADC instance - Calibration linearity words
 759:Drivers/STM32H7xx_HAL_Driver/Inc/stm32h7xx_ll_adc.h ****   * @{
 760:Drivers/STM32H7xx_HAL_Driver/Inc/stm32h7xx_ll_adc.h ****   */
 761:Drivers/STM32H7xx_HAL_Driver/Inc/stm32h7xx_ll_adc.h **** #define LL_ADC_CALIB_LINEARITY_WORD1       (ADC_CR_LINCALRDYW1)    /*!< ADC calibration linearity w
 762:Drivers/STM32H7xx_HAL_Driver/Inc/stm32h7xx_ll_adc.h **** #define LL_ADC_CALIB_LINEARITY_WORD2       (ADC_CR_LINCALRDYW2)    /*!< ADC calibration linearity w
 763:Drivers/STM32H7xx_HAL_Driver/Inc/stm32h7xx_ll_adc.h **** #define LL_ADC_CALIB_LINEARITY_WORD3       (ADC_CR_LINCALRDYW3)    /*!< ADC calibration linearity w
 764:Drivers/STM32H7xx_HAL_Driver/Inc/stm32h7xx_ll_adc.h **** #define LL_ADC_CALIB_LINEARITY_WORD4       (ADC_CR_LINCALRDYW4)    /*!< ADC calibration linearity w
 765:Drivers/STM32H7xx_HAL_Driver/Inc/stm32h7xx_ll_adc.h **** #define LL_ADC_CALIB_LINEARITY_WORD5       (ADC_CR_LINCALRDYW5)    /*!< ADC calibration linearity w
 766:Drivers/STM32H7xx_HAL_Driver/Inc/stm32h7xx_ll_adc.h **** #define LL_ADC_CALIB_LINEARITY_WORD6       (ADC_CR_LINCALRDYW6)    /*!< ADC calibration linearity w
 767:Drivers/STM32H7xx_HAL_Driver/Inc/stm32h7xx_ll_adc.h **** /**
 768:Drivers/STM32H7xx_HAL_Driver/Inc/stm32h7xx_ll_adc.h ****   * @}
 769:Drivers/STM32H7xx_HAL_Driver/Inc/stm32h7xx_ll_adc.h ****   */
 770:Drivers/STM32H7xx_HAL_Driver/Inc/stm32h7xx_ll_adc.h **** 
 771:Drivers/STM32H7xx_HAL_Driver/Inc/stm32h7xx_ll_adc.h **** /** @defgroup ADC_LL_EC_RESOLUTION  ADC instance - Resolution
 772:Drivers/STM32H7xx_HAL_Driver/Inc/stm32h7xx_ll_adc.h ****   * @{
 773:Drivers/STM32H7xx_HAL_Driver/Inc/stm32h7xx_ll_adc.h ****   */
 774:Drivers/STM32H7xx_HAL_Driver/Inc/stm32h7xx_ll_adc.h **** #define LL_ADC_RESOLUTION_16B              (0x00000000UL)                                      /*!<
 775:Drivers/STM32H7xx_HAL_Driver/Inc/stm32h7xx_ll_adc.h **** #define LL_ADC_RESOLUTION_14B              (                                  ADC_CFGR_RES_0)  /*!<
 776:Drivers/STM32H7xx_HAL_Driver/Inc/stm32h7xx_ll_adc.h **** #define LL_ADC_RESOLUTION_12B              (                 ADC_CFGR_RES_1                 )  /*!<
 777:Drivers/STM32H7xx_HAL_Driver/Inc/stm32h7xx_ll_adc.h **** #define LL_ADC_RESOLUTION_10B              (                 ADC_CFGR_RES_1 | ADC_CFGR_RES_0)  /*!<
 778:Drivers/STM32H7xx_HAL_Driver/Inc/stm32h7xx_ll_adc.h **** 
 779:Drivers/STM32H7xx_HAL_Driver/Inc/stm32h7xx_ll_adc.h **** #if defined (ADC_VER_V5_X)
 780:Drivers/STM32H7xx_HAL_Driver/Inc/stm32h7xx_ll_adc.h **** #define LL_ADC_RESOLUTION_14B_OPT          (ADC_CFGR_RES_2 |                  ADC_CFGR_RES_0)  /*!<
 781:Drivers/STM32H7xx_HAL_Driver/Inc/stm32h7xx_ll_adc.h **** #define LL_ADC_RESOLUTION_12B_OPT          (ADC_CFGR_RES_2 | ADC_CFGR_RES_1                 )  /*!<
 782:Drivers/STM32H7xx_HAL_Driver/Inc/stm32h7xx_ll_adc.h **** #endif
 783:Drivers/STM32H7xx_HAL_Driver/Inc/stm32h7xx_ll_adc.h **** 
 784:Drivers/STM32H7xx_HAL_Driver/Inc/stm32h7xx_ll_adc.h **** #if defined (ADC_VER_V5_3) || defined(ADC_VER_V5_V90)
 785:Drivers/STM32H7xx_HAL_Driver/Inc/stm32h7xx_ll_adc.h **** #define LL_ADC_RESOLUTION_8B               (ADC_CFGR_RES_2|ADC_CFGR_RES_1 | ADC_CFGR_RES_0) /*!< AD
 786:Drivers/STM32H7xx_HAL_Driver/Inc/stm32h7xx_ll_adc.h **** #else
 787:Drivers/STM32H7xx_HAL_Driver/Inc/stm32h7xx_ll_adc.h **** #define LL_ADC_RESOLUTION_8B               (ADC_CFGR_RES_2                                ) /*!< AD
 788:Drivers/STM32H7xx_HAL_Driver/Inc/stm32h7xx_ll_adc.h ****                                                                                             /*!< Th
 789:Drivers/STM32H7xx_HAL_Driver/Inc/stm32h7xx_ll_adc.h ****                                                                                                    
 790:Drivers/STM32H7xx_HAL_Driver/Inc/stm32h7xx_ll_adc.h ****                                                                                                    
ARM GAS  /tmp/ccmrLUMM.s 			page 19


 791:Drivers/STM32H7xx_HAL_Driver/Inc/stm32h7xx_ll_adc.h **** #endif
 792:Drivers/STM32H7xx_HAL_Driver/Inc/stm32h7xx_ll_adc.h **** #if defined(ADC_VER_V5_V90)
 793:Drivers/STM32H7xx_HAL_Driver/Inc/stm32h7xx_ll_adc.h **** #define LL_ADC_RESOLUTION_6B               (ADC3_CFGR_RES_1 | ADC3_CFGR_RES_0)   /*!< ADC resolutio
 794:Drivers/STM32H7xx_HAL_Driver/Inc/stm32h7xx_ll_adc.h **** #endif  /* ADC_VER_V5_V90 */
 795:Drivers/STM32H7xx_HAL_Driver/Inc/stm32h7xx_ll_adc.h **** /**
 796:Drivers/STM32H7xx_HAL_Driver/Inc/stm32h7xx_ll_adc.h ****   * @}
 797:Drivers/STM32H7xx_HAL_Driver/Inc/stm32h7xx_ll_adc.h ****   */
 798:Drivers/STM32H7xx_HAL_Driver/Inc/stm32h7xx_ll_adc.h **** 
 799:Drivers/STM32H7xx_HAL_Driver/Inc/stm32h7xx_ll_adc.h **** #if defined(ADC_VER_V5_V90)
 800:Drivers/STM32H7xx_HAL_Driver/Inc/stm32h7xx_ll_adc.h **** /** @defgroup ADC_LL_EC_DATA_ALIGN  ADC instance - Data alignment
 801:Drivers/STM32H7xx_HAL_Driver/Inc/stm32h7xx_ll_adc.h ****   * @{
 802:Drivers/STM32H7xx_HAL_Driver/Inc/stm32h7xx_ll_adc.h ****   */
 803:Drivers/STM32H7xx_HAL_Driver/Inc/stm32h7xx_ll_adc.h **** #define LL_ADC_DATA_ALIGN_RIGHT            (0x00000000UL)         /*!< ADC conversion data alignmen
 804:Drivers/STM32H7xx_HAL_Driver/Inc/stm32h7xx_ll_adc.h **** #define LL_ADC_DATA_ALIGN_LEFT             (ADC3_CFGR_ALIGN)       /*!< ADC conversion data alignme
 805:Drivers/STM32H7xx_HAL_Driver/Inc/stm32h7xx_ll_adc.h **** /**
 806:Drivers/STM32H7xx_HAL_Driver/Inc/stm32h7xx_ll_adc.h ****   * @}
 807:Drivers/STM32H7xx_HAL_Driver/Inc/stm32h7xx_ll_adc.h ****   */
 808:Drivers/STM32H7xx_HAL_Driver/Inc/stm32h7xx_ll_adc.h **** 
 809:Drivers/STM32H7xx_HAL_Driver/Inc/stm32h7xx_ll_adc.h **** #endif  /* ADC_VER_V5_V90 */
 810:Drivers/STM32H7xx_HAL_Driver/Inc/stm32h7xx_ll_adc.h **** 
 811:Drivers/STM32H7xx_HAL_Driver/Inc/stm32h7xx_ll_adc.h **** /** @defgroup ADC_LL_EC_LEFT_BIT_SHIFT   ADC left Shift
 812:Drivers/STM32H7xx_HAL_Driver/Inc/stm32h7xx_ll_adc.h ****   * @{
 813:Drivers/STM32H7xx_HAL_Driver/Inc/stm32h7xx_ll_adc.h ****   */
 814:Drivers/STM32H7xx_HAL_Driver/Inc/stm32h7xx_ll_adc.h **** #define LL_ADC_LEFT_BIT_SHIFT_NONE  (0x00000000UL)                                                 
 815:Drivers/STM32H7xx_HAL_Driver/Inc/stm32h7xx_ll_adc.h **** #define LL_ADC_LEFT_BIT_SHIFT_1     (ADC_CFGR2_LSHIFT_0)                                           
 816:Drivers/STM32H7xx_HAL_Driver/Inc/stm32h7xx_ll_adc.h **** #define LL_ADC_LEFT_BIT_SHIFT_2     (ADC_CFGR2_LSHIFT_1)                                           
 817:Drivers/STM32H7xx_HAL_Driver/Inc/stm32h7xx_ll_adc.h **** #define LL_ADC_LEFT_BIT_SHIFT_3     (ADC_CFGR2_LSHIFT_1 | ADC_CFGR2_LSHIFT_0)                      
 818:Drivers/STM32H7xx_HAL_Driver/Inc/stm32h7xx_ll_adc.h **** #define LL_ADC_LEFT_BIT_SHIFT_4     (ADC_CFGR2_LSHIFT_2)                                           
 819:Drivers/STM32H7xx_HAL_Driver/Inc/stm32h7xx_ll_adc.h **** #define LL_ADC_LEFT_BIT_SHIFT_5     (ADC_CFGR2_LSHIFT_2 | ADC_CFGR2_LSHIFT_0)                      
 820:Drivers/STM32H7xx_HAL_Driver/Inc/stm32h7xx_ll_adc.h **** #define LL_ADC_LEFT_BIT_SHIFT_6     (ADC_CFGR2_LSHIFT_2 | ADC_CFGR2_LSHIFT_1)                      
 821:Drivers/STM32H7xx_HAL_Driver/Inc/stm32h7xx_ll_adc.h **** #define LL_ADC_LEFT_BIT_SHIFT_7     (ADC_CFGR2_LSHIFT_2 | ADC_CFGR2_LSHIFT_1 | ADC_CFGR2_LSHIFT_0) 
 822:Drivers/STM32H7xx_HAL_Driver/Inc/stm32h7xx_ll_adc.h **** #define LL_ADC_LEFT_BIT_SHIFT_8     (ADC_CFGR2_LSHIFT_3)                                           
 823:Drivers/STM32H7xx_HAL_Driver/Inc/stm32h7xx_ll_adc.h **** #define LL_ADC_LEFT_BIT_SHIFT_9     (ADC_CFGR2_LSHIFT_3 | ADC_CFGR2_LSHIFT_0)                      
 824:Drivers/STM32H7xx_HAL_Driver/Inc/stm32h7xx_ll_adc.h **** #define LL_ADC_LEFT_BIT_SHIFT_10    (ADC_CFGR2_LSHIFT_3 | ADC_CFGR2_LSHIFT_1)                      
 825:Drivers/STM32H7xx_HAL_Driver/Inc/stm32h7xx_ll_adc.h **** #define LL_ADC_LEFT_BIT_SHIFT_11    (ADC_CFGR2_LSHIFT_3 | ADC_CFGR2_LSHIFT_1 | ADC_CFGR2_LSHIFT_0) 
 826:Drivers/STM32H7xx_HAL_Driver/Inc/stm32h7xx_ll_adc.h **** #define LL_ADC_LEFT_BIT_SHIFT_12    (ADC_CFGR2_LSHIFT_3 | ADC_CFGR2_LSHIFT_2)                      
 827:Drivers/STM32H7xx_HAL_Driver/Inc/stm32h7xx_ll_adc.h **** #define LL_ADC_LEFT_BIT_SHIFT_13    (ADC_CFGR2_LSHIFT_3 | ADC_CFGR2_LSHIFT_2 | ADC_CFGR2_LSHIFT_0) 
 828:Drivers/STM32H7xx_HAL_Driver/Inc/stm32h7xx_ll_adc.h **** #define LL_ADC_LEFT_BIT_SHIFT_14    (ADC_CFGR2_LSHIFT_3 | ADC_CFGR2_LSHIFT_2 | ADC_CFGR2_LSHIFT_1) 
 829:Drivers/STM32H7xx_HAL_Driver/Inc/stm32h7xx_ll_adc.h **** #define LL_ADC_LEFT_BIT_SHIFT_15    (ADC_CFGR2_LSHIFT_3 | ADC_CFGR2_LSHIFT_2 | ADC_CFGR2_LSHIFT_1 |
 830:Drivers/STM32H7xx_HAL_Driver/Inc/stm32h7xx_ll_adc.h **** /**
 831:Drivers/STM32H7xx_HAL_Driver/Inc/stm32h7xx_ll_adc.h ****   * @}
 832:Drivers/STM32H7xx_HAL_Driver/Inc/stm32h7xx_ll_adc.h ****   */
 833:Drivers/STM32H7xx_HAL_Driver/Inc/stm32h7xx_ll_adc.h **** 
 834:Drivers/STM32H7xx_HAL_Driver/Inc/stm32h7xx_ll_adc.h **** /** @defgroup ADC_LL_EC_LP_MODE  ADC instance - Low power mode
 835:Drivers/STM32H7xx_HAL_Driver/Inc/stm32h7xx_ll_adc.h ****   * @{
 836:Drivers/STM32H7xx_HAL_Driver/Inc/stm32h7xx_ll_adc.h ****   */
 837:Drivers/STM32H7xx_HAL_Driver/Inc/stm32h7xx_ll_adc.h **** #define LL_ADC_LP_MODE_NONE                (0x00000000UL)                      /*!< No ADC low powe
 838:Drivers/STM32H7xx_HAL_Driver/Inc/stm32h7xx_ll_adc.h **** #define LL_ADC_LP_AUTOWAIT                 (ADC_CFGR_AUTDLY)                   /*!< ADC low power m
 839:Drivers/STM32H7xx_HAL_Driver/Inc/stm32h7xx_ll_adc.h **** /**
 840:Drivers/STM32H7xx_HAL_Driver/Inc/stm32h7xx_ll_adc.h ****   * @}
 841:Drivers/STM32H7xx_HAL_Driver/Inc/stm32h7xx_ll_adc.h ****   */
 842:Drivers/STM32H7xx_HAL_Driver/Inc/stm32h7xx_ll_adc.h **** 
 843:Drivers/STM32H7xx_HAL_Driver/Inc/stm32h7xx_ll_adc.h **** /** @defgroup ADC_LL_EC_OFFSET_NB  ADC instance - Offset number
 844:Drivers/STM32H7xx_HAL_Driver/Inc/stm32h7xx_ll_adc.h ****   * @{
 845:Drivers/STM32H7xx_HAL_Driver/Inc/stm32h7xx_ll_adc.h ****   */
 846:Drivers/STM32H7xx_HAL_Driver/Inc/stm32h7xx_ll_adc.h **** #define LL_ADC_OFFSET_1                    ADC_OFR1_REGOFFSET /*!< ADC offset number 1: ADC channel
 847:Drivers/STM32H7xx_HAL_Driver/Inc/stm32h7xx_ll_adc.h **** #define LL_ADC_OFFSET_2                    ADC_OFR2_REGOFFSET /*!< ADC offset number 2: ADC channel
ARM GAS  /tmp/ccmrLUMM.s 			page 20


 848:Drivers/STM32H7xx_HAL_Driver/Inc/stm32h7xx_ll_adc.h **** #define LL_ADC_OFFSET_3                    ADC_OFR3_REGOFFSET /*!< ADC offset number 3: ADC channel
 849:Drivers/STM32H7xx_HAL_Driver/Inc/stm32h7xx_ll_adc.h **** #define LL_ADC_OFFSET_4                    ADC_OFR4_REGOFFSET /*!< ADC offset number 4: ADC channel
 850:Drivers/STM32H7xx_HAL_Driver/Inc/stm32h7xx_ll_adc.h **** /**
 851:Drivers/STM32H7xx_HAL_Driver/Inc/stm32h7xx_ll_adc.h ****   * @}
 852:Drivers/STM32H7xx_HAL_Driver/Inc/stm32h7xx_ll_adc.h ****   */
 853:Drivers/STM32H7xx_HAL_Driver/Inc/stm32h7xx_ll_adc.h **** 
 854:Drivers/STM32H7xx_HAL_Driver/Inc/stm32h7xx_ll_adc.h **** /** @defgroup ADC_LL_EC_OFFSET_SIGNED_SATURATION ADC instance - Offset signed saturation mode
 855:Drivers/STM32H7xx_HAL_Driver/Inc/stm32h7xx_ll_adc.h ****   * @{
 856:Drivers/STM32H7xx_HAL_Driver/Inc/stm32h7xx_ll_adc.h ****   */
 857:Drivers/STM32H7xx_HAL_Driver/Inc/stm32h7xx_ll_adc.h **** #define LL_ADC_OFFSET_SIGNED_SATURATION_DISABLE   (0x00000000UL)   /*!< ADC offset signed saturatio
 858:Drivers/STM32H7xx_HAL_Driver/Inc/stm32h7xx_ll_adc.h **** #define LL_ADC_OFFSET_SIGNED_SATURATION_ENABLE    (ADC_OFR1_SSATE) /*!< ADC offset signed saturatio
 859:Drivers/STM32H7xx_HAL_Driver/Inc/stm32h7xx_ll_adc.h **** /**
 860:Drivers/STM32H7xx_HAL_Driver/Inc/stm32h7xx_ll_adc.h ****   * @}
 861:Drivers/STM32H7xx_HAL_Driver/Inc/stm32h7xx_ll_adc.h ****   */
 862:Drivers/STM32H7xx_HAL_Driver/Inc/stm32h7xx_ll_adc.h **** 
 863:Drivers/STM32H7xx_HAL_Driver/Inc/stm32h7xx_ll_adc.h **** /** @defgroup ADC_LL_EC_OFFSET_RSHIFT ADC instance - Offset right shift
 864:Drivers/STM32H7xx_HAL_Driver/Inc/stm32h7xx_ll_adc.h ****   * @{
 865:Drivers/STM32H7xx_HAL_Driver/Inc/stm32h7xx_ll_adc.h ****   */
 866:Drivers/STM32H7xx_HAL_Driver/Inc/stm32h7xx_ll_adc.h **** #define LL_ADC_OFFSET_RSHIFT_DISABLE   (0x00000000UL)      /*!< ADC offset right shift is disabled 
 867:Drivers/STM32H7xx_HAL_Driver/Inc/stm32h7xx_ll_adc.h **** #define LL_ADC_OFFSET_RSHIFT_ENABLE    (ADC_CFGR2_RSHIFT1) /*!< ADC offset right shif is enabled (a
 868:Drivers/STM32H7xx_HAL_Driver/Inc/stm32h7xx_ll_adc.h **** /**
 869:Drivers/STM32H7xx_HAL_Driver/Inc/stm32h7xx_ll_adc.h ****   * @}
 870:Drivers/STM32H7xx_HAL_Driver/Inc/stm32h7xx_ll_adc.h ****   */
 871:Drivers/STM32H7xx_HAL_Driver/Inc/stm32h7xx_ll_adc.h **** #if defined(ADC_VER_V5_V90)
 872:Drivers/STM32H7xx_HAL_Driver/Inc/stm32h7xx_ll_adc.h **** /** @defgroup ADC_LL_EC_OFFSET_SATURATION ADC instance - Offset saturation mode
 873:Drivers/STM32H7xx_HAL_Driver/Inc/stm32h7xx_ll_adc.h ****   * @{
 874:Drivers/STM32H7xx_HAL_Driver/Inc/stm32h7xx_ll_adc.h ****   */
 875:Drivers/STM32H7xx_HAL_Driver/Inc/stm32h7xx_ll_adc.h **** #define LL_ADC_OFFSET_SATURATION_DISABLE   (0x00000000UL)           /*!< ADC offset saturation is d
 876:Drivers/STM32H7xx_HAL_Driver/Inc/stm32h7xx_ll_adc.h **** #define LL_ADC_OFFSET_SATURATION_ENABLE    (ADC3_OFR1_SATEN)        /*!< ADC offset saturation is e
 877:Drivers/STM32H7xx_HAL_Driver/Inc/stm32h7xx_ll_adc.h **** /**
 878:Drivers/STM32H7xx_HAL_Driver/Inc/stm32h7xx_ll_adc.h ****   * @}
 879:Drivers/STM32H7xx_HAL_Driver/Inc/stm32h7xx_ll_adc.h ****   */
 880:Drivers/STM32H7xx_HAL_Driver/Inc/stm32h7xx_ll_adc.h **** 
 881:Drivers/STM32H7xx_HAL_Driver/Inc/stm32h7xx_ll_adc.h **** /** @defgroup ADC_LL_EC_OFFSET_STATE ADC instance - Offset state
 882:Drivers/STM32H7xx_HAL_Driver/Inc/stm32h7xx_ll_adc.h ****   * @{
 883:Drivers/STM32H7xx_HAL_Driver/Inc/stm32h7xx_ll_adc.h ****   */
 884:Drivers/STM32H7xx_HAL_Driver/Inc/stm32h7xx_ll_adc.h **** #define LL_ADC_OFFSET_DISABLE              (0x00000000UL)         /*!< ADC offset disabled (among A
 885:Drivers/STM32H7xx_HAL_Driver/Inc/stm32h7xx_ll_adc.h **** #define LL_ADC_OFFSET_ENABLE               (ADC3_OFR1_OFFSET1_EN)  /*!< ADC offset enabled (among A
 886:Drivers/STM32H7xx_HAL_Driver/Inc/stm32h7xx_ll_adc.h **** /**
 887:Drivers/STM32H7xx_HAL_Driver/Inc/stm32h7xx_ll_adc.h ****   * @}
 888:Drivers/STM32H7xx_HAL_Driver/Inc/stm32h7xx_ll_adc.h ****   */
 889:Drivers/STM32H7xx_HAL_Driver/Inc/stm32h7xx_ll_adc.h **** #if defined(ADC_VER_V5_V90)
 890:Drivers/STM32H7xx_HAL_Driver/Inc/stm32h7xx_ll_adc.h **** /** @defgroup ADC_LL_EC_OFFSET_SIGN ADC instance - Offset sign
 891:Drivers/STM32H7xx_HAL_Driver/Inc/stm32h7xx_ll_adc.h ****   * @{
 892:Drivers/STM32H7xx_HAL_Driver/Inc/stm32h7xx_ll_adc.h ****   */
 893:Drivers/STM32H7xx_HAL_Driver/Inc/stm32h7xx_ll_adc.h **** #define LL_ADC_OFFSET_SIGN_NEGATIVE        (0x00000000UL)        /*!< ADC offset is negative (among
 894:Drivers/STM32H7xx_HAL_Driver/Inc/stm32h7xx_ll_adc.h **** #define LL_ADC_OFFSET_SIGN_POSITIVE        (ADC3_OFR1_OFFSETPOS) /*!< ADC offset is positive (among
 895:Drivers/STM32H7xx_HAL_Driver/Inc/stm32h7xx_ll_adc.h **** /**
 896:Drivers/STM32H7xx_HAL_Driver/Inc/stm32h7xx_ll_adc.h ****   * @}
 897:Drivers/STM32H7xx_HAL_Driver/Inc/stm32h7xx_ll_adc.h ****   */
 898:Drivers/STM32H7xx_HAL_Driver/Inc/stm32h7xx_ll_adc.h **** #endif
 899:Drivers/STM32H7xx_HAL_Driver/Inc/stm32h7xx_ll_adc.h **** 
 900:Drivers/STM32H7xx_HAL_Driver/Inc/stm32h7xx_ll_adc.h **** #endif /* ADC_VER_V5_V90 */
 901:Drivers/STM32H7xx_HAL_Driver/Inc/stm32h7xx_ll_adc.h **** 
 902:Drivers/STM32H7xx_HAL_Driver/Inc/stm32h7xx_ll_adc.h **** /** @defgroup ADC_LL_EC_GROUPS  ADC instance - Groups
 903:Drivers/STM32H7xx_HAL_Driver/Inc/stm32h7xx_ll_adc.h ****   * @{
 904:Drivers/STM32H7xx_HAL_Driver/Inc/stm32h7xx_ll_adc.h ****   */
ARM GAS  /tmp/ccmrLUMM.s 			page 21


 905:Drivers/STM32H7xx_HAL_Driver/Inc/stm32h7xx_ll_adc.h **** #define LL_ADC_GROUP_REGULAR               (0x00000001UL) /*!< ADC group regular (available on all 
 906:Drivers/STM32H7xx_HAL_Driver/Inc/stm32h7xx_ll_adc.h **** #define LL_ADC_GROUP_INJECTED              (0x00000002UL) /*!< ADC group injected (not available on
 907:Drivers/STM32H7xx_HAL_Driver/Inc/stm32h7xx_ll_adc.h **** #define LL_ADC_GROUP_REGULAR_INJECTED      (0x00000003UL) /*!< ADC both groups regular and injected
 908:Drivers/STM32H7xx_HAL_Driver/Inc/stm32h7xx_ll_adc.h **** /**
 909:Drivers/STM32H7xx_HAL_Driver/Inc/stm32h7xx_ll_adc.h ****   * @}
 910:Drivers/STM32H7xx_HAL_Driver/Inc/stm32h7xx_ll_adc.h ****   */
 911:Drivers/STM32H7xx_HAL_Driver/Inc/stm32h7xx_ll_adc.h **** 
 912:Drivers/STM32H7xx_HAL_Driver/Inc/stm32h7xx_ll_adc.h **** /** @defgroup ADC_LL_EC_CHANNEL  ADC instance - Channel number
 913:Drivers/STM32H7xx_HAL_Driver/Inc/stm32h7xx_ll_adc.h ****   * @{
 914:Drivers/STM32H7xx_HAL_Driver/Inc/stm32h7xx_ll_adc.h ****   */
 915:Drivers/STM32H7xx_HAL_Driver/Inc/stm32h7xx_ll_adc.h **** #define LL_ADC_CHANNEL_0                   (ADC_CHANNEL_0_NUMBER  | ADC_CHANNEL_0_SMP  | ADC_CHANNE
 916:Drivers/STM32H7xx_HAL_Driver/Inc/stm32h7xx_ll_adc.h **** #define LL_ADC_CHANNEL_1                   (ADC_CHANNEL_1_NUMBER  | ADC_CHANNEL_1_SMP  | ADC_CHANNE
 917:Drivers/STM32H7xx_HAL_Driver/Inc/stm32h7xx_ll_adc.h **** #define LL_ADC_CHANNEL_2                   (ADC_CHANNEL_2_NUMBER  | ADC_CHANNEL_2_SMP  | ADC_CHANNE
 918:Drivers/STM32H7xx_HAL_Driver/Inc/stm32h7xx_ll_adc.h **** #define LL_ADC_CHANNEL_3                   (ADC_CHANNEL_3_NUMBER  | ADC_CHANNEL_3_SMP  | ADC_CHANNE
 919:Drivers/STM32H7xx_HAL_Driver/Inc/stm32h7xx_ll_adc.h **** #define LL_ADC_CHANNEL_4                   (ADC_CHANNEL_4_NUMBER  | ADC_CHANNEL_4_SMP  | ADC_CHANNE
 920:Drivers/STM32H7xx_HAL_Driver/Inc/stm32h7xx_ll_adc.h **** #define LL_ADC_CHANNEL_5                   (ADC_CHANNEL_5_NUMBER  | ADC_CHANNEL_5_SMP  | ADC_CHANNE
 921:Drivers/STM32H7xx_HAL_Driver/Inc/stm32h7xx_ll_adc.h **** #define LL_ADC_CHANNEL_6                   (ADC_CHANNEL_6_NUMBER  | ADC_CHANNEL_6_SMP  | ADC_CHANNE
 922:Drivers/STM32H7xx_HAL_Driver/Inc/stm32h7xx_ll_adc.h **** #define LL_ADC_CHANNEL_7                   (ADC_CHANNEL_7_NUMBER  | ADC_CHANNEL_7_SMP  | ADC_CHANNE
 923:Drivers/STM32H7xx_HAL_Driver/Inc/stm32h7xx_ll_adc.h **** #define LL_ADC_CHANNEL_8                   (ADC_CHANNEL_8_NUMBER  | ADC_CHANNEL_8_SMP  | ADC_CHANNE
 924:Drivers/STM32H7xx_HAL_Driver/Inc/stm32h7xx_ll_adc.h **** #define LL_ADC_CHANNEL_9                   (ADC_CHANNEL_9_NUMBER  | ADC_CHANNEL_9_SMP  | ADC_CHANNE
 925:Drivers/STM32H7xx_HAL_Driver/Inc/stm32h7xx_ll_adc.h **** #define LL_ADC_CHANNEL_10                  (ADC_CHANNEL_10_NUMBER | ADC_CHANNEL_10_SMP | ADC_CHANNE
 926:Drivers/STM32H7xx_HAL_Driver/Inc/stm32h7xx_ll_adc.h **** #define LL_ADC_CHANNEL_11                  (ADC_CHANNEL_11_NUMBER | ADC_CHANNEL_11_SMP | ADC_CHANNE
 927:Drivers/STM32H7xx_HAL_Driver/Inc/stm32h7xx_ll_adc.h **** #define LL_ADC_CHANNEL_12                  (ADC_CHANNEL_12_NUMBER | ADC_CHANNEL_12_SMP | ADC_CHANNE
 928:Drivers/STM32H7xx_HAL_Driver/Inc/stm32h7xx_ll_adc.h **** #define LL_ADC_CHANNEL_13                  (ADC_CHANNEL_13_NUMBER | ADC_CHANNEL_13_SMP | ADC_CHANNE
 929:Drivers/STM32H7xx_HAL_Driver/Inc/stm32h7xx_ll_adc.h **** #define LL_ADC_CHANNEL_14                  (ADC_CHANNEL_14_NUMBER | ADC_CHANNEL_14_SMP | ADC_CHANNE
 930:Drivers/STM32H7xx_HAL_Driver/Inc/stm32h7xx_ll_adc.h **** #define LL_ADC_CHANNEL_15                  (ADC_CHANNEL_15_NUMBER | ADC_CHANNEL_15_SMP | ADC_CHANNE
 931:Drivers/STM32H7xx_HAL_Driver/Inc/stm32h7xx_ll_adc.h **** #define LL_ADC_CHANNEL_16                  (ADC_CHANNEL_16_NUMBER | ADC_CHANNEL_16_SMP | ADC_CHANNE
 932:Drivers/STM32H7xx_HAL_Driver/Inc/stm32h7xx_ll_adc.h **** #define LL_ADC_CHANNEL_17                  (ADC_CHANNEL_17_NUMBER | ADC_CHANNEL_17_SMP | ADC_CHANNE
 933:Drivers/STM32H7xx_HAL_Driver/Inc/stm32h7xx_ll_adc.h **** #define LL_ADC_CHANNEL_18                  (ADC_CHANNEL_18_NUMBER | ADC_CHANNEL_18_SMP | ADC_CHANNE
 934:Drivers/STM32H7xx_HAL_Driver/Inc/stm32h7xx_ll_adc.h **** #define LL_ADC_CHANNEL_19                  (ADC_CHANNEL_19_NUMBER | ADC_CHANNEL_19_SMP | ADC_CHANNE
 935:Drivers/STM32H7xx_HAL_Driver/Inc/stm32h7xx_ll_adc.h **** #if defined(ADC3)
 936:Drivers/STM32H7xx_HAL_Driver/Inc/stm32h7xx_ll_adc.h **** #if defined(ADC_VER_V5_V90)
 937:Drivers/STM32H7xx_HAL_Driver/Inc/stm32h7xx_ll_adc.h **** #define LL_ADC_CHANNEL_VREFINT             (LL_ADC_CHANNEL_18 | ADC_CHANNEL_ID_INTERNAL_CH) /*!< AD
 938:Drivers/STM32H7xx_HAL_Driver/Inc/stm32h7xx_ll_adc.h **** #define LL_ADC_CHANNEL_TEMPSENSOR          (LL_ADC_CHANNEL_17 | ADC_CHANNEL_ID_INTERNAL_CH) /*!< AD
 939:Drivers/STM32H7xx_HAL_Driver/Inc/stm32h7xx_ll_adc.h **** #define LL_ADC_CHANNEL_VBAT                (LL_ADC_CHANNEL_16 | ADC_CHANNEL_ID_INTERNAL_CH) /*!< AD
 940:Drivers/STM32H7xx_HAL_Driver/Inc/stm32h7xx_ll_adc.h **** #else
 941:Drivers/STM32H7xx_HAL_Driver/Inc/stm32h7xx_ll_adc.h **** #define LL_ADC_CHANNEL_VREFINT             (LL_ADC_CHANNEL_19 | ADC_CHANNEL_ID_INTERNAL_CH) /*!< AD
 942:Drivers/STM32H7xx_HAL_Driver/Inc/stm32h7xx_ll_adc.h **** #define LL_ADC_CHANNEL_TEMPSENSOR          (LL_ADC_CHANNEL_18 | ADC_CHANNEL_ID_INTERNAL_CH) /*!< AD
 943:Drivers/STM32H7xx_HAL_Driver/Inc/stm32h7xx_ll_adc.h **** #define LL_ADC_CHANNEL_VBAT                (LL_ADC_CHANNEL_17 | ADC_CHANNEL_ID_INTERNAL_CH) /*!< AD
 944:Drivers/STM32H7xx_HAL_Driver/Inc/stm32h7xx_ll_adc.h **** #endif
 945:Drivers/STM32H7xx_HAL_Driver/Inc/stm32h7xx_ll_adc.h **** #else
 946:Drivers/STM32H7xx_HAL_Driver/Inc/stm32h7xx_ll_adc.h **** /*!< Specific define for STM32H7A3xx and STM32HB3xx varieties of STM32H7XXX */
 947:Drivers/STM32H7xx_HAL_Driver/Inc/stm32h7xx_ll_adc.h **** #define LL_ADC_CHANNEL_VREFINT             (LL_ADC_CHANNEL_19 | ADC_CHANNEL_ID_INTERNAL_CH) /*!< AD
 948:Drivers/STM32H7xx_HAL_Driver/Inc/stm32h7xx_ll_adc.h **** #define LL_ADC_CHANNEL_TEMPSENSOR          (LL_ADC_CHANNEL_18 | ADC_CHANNEL_ID_INTERNAL_CH) /*!< AD
 949:Drivers/STM32H7xx_HAL_Driver/Inc/stm32h7xx_ll_adc.h **** #define LL_ADC_CHANNEL_VBAT                (LL_ADC_CHANNEL_14 | ADC_CHANNEL_ID_INTERNAL_CH) /*!< AD
 950:Drivers/STM32H7xx_HAL_Driver/Inc/stm32h7xx_ll_adc.h **** #endif
 951:Drivers/STM32H7xx_HAL_Driver/Inc/stm32h7xx_ll_adc.h **** #define LL_ADC_CHANNEL_DAC1CH1_ADC2        (LL_ADC_CHANNEL_16 | ADC_CHANNEL_ID_INTERNAL_CH) /*!< AD
 952:Drivers/STM32H7xx_HAL_Driver/Inc/stm32h7xx_ll_adc.h **** #define LL_ADC_CHANNEL_DAC1CH2_ADC2        (LL_ADC_CHANNEL_17 | ADC_CHANNEL_ID_INTERNAL_CH) /*!< AD
 953:Drivers/STM32H7xx_HAL_Driver/Inc/stm32h7xx_ll_adc.h **** #if defined(DAC2)
 954:Drivers/STM32H7xx_HAL_Driver/Inc/stm32h7xx_ll_adc.h **** /*!< Specific define for STM32H7A3xx and STM32HB3xx varieties of STM32H7XXX */
 955:Drivers/STM32H7xx_HAL_Driver/Inc/stm32h7xx_ll_adc.h **** #define LL_ADC_CHANNEL_DAC2CH1_ADC2        (LL_ADC_CHANNEL_15 | ADC_CHANNEL_ID_INTERNAL_CH) /*!< AD
 956:Drivers/STM32H7xx_HAL_Driver/Inc/stm32h7xx_ll_adc.h **** #endif
 957:Drivers/STM32H7xx_HAL_Driver/Inc/stm32h7xx_ll_adc.h **** /**
 958:Drivers/STM32H7xx_HAL_Driver/Inc/stm32h7xx_ll_adc.h ****   * @}
 959:Drivers/STM32H7xx_HAL_Driver/Inc/stm32h7xx_ll_adc.h ****   */
 960:Drivers/STM32H7xx_HAL_Driver/Inc/stm32h7xx_ll_adc.h **** 
 961:Drivers/STM32H7xx_HAL_Driver/Inc/stm32h7xx_ll_adc.h **** /** @defgroup ADC_LL_EC_REG_TRIGGER_SOURCE  ADC group regular - Trigger source
ARM GAS  /tmp/ccmrLUMM.s 			page 22


 962:Drivers/STM32H7xx_HAL_Driver/Inc/stm32h7xx_ll_adc.h ****   * @{
 963:Drivers/STM32H7xx_HAL_Driver/Inc/stm32h7xx_ll_adc.h ****   */
 964:Drivers/STM32H7xx_HAL_Driver/Inc/stm32h7xx_ll_adc.h **** #define LL_ADC_REG_TRIG_SOFTWARE          (0x00000000UL)                                           
 965:Drivers/STM32H7xx_HAL_Driver/Inc/stm32h7xx_ll_adc.h **** #define LL_ADC_REG_TRIG_EXT_TIM1_CH1      (ADC_REG_TRIG_EXT_EDGE_DEFAULT)                          
 966:Drivers/STM32H7xx_HAL_Driver/Inc/stm32h7xx_ll_adc.h **** #define LL_ADC_REG_TRIG_EXT_TIM1_CH2      (ADC_CFGR_EXTSEL_0 | ADC_REG_TRIG_EXT_EDGE_DEFAULT)      
 967:Drivers/STM32H7xx_HAL_Driver/Inc/stm32h7xx_ll_adc.h **** #define LL_ADC_REG_TRIG_EXT_TIM1_CH3      (ADC_CFGR_EXTSEL_1 | ADC_REG_TRIG_EXT_EDGE_DEFAULT)      
 968:Drivers/STM32H7xx_HAL_Driver/Inc/stm32h7xx_ll_adc.h **** #define LL_ADC_REG_TRIG_EXT_TIM2_CH2      (ADC_CFGR_EXTSEL_1 | ADC_CFGR_EXTSEL_0 | ADC_REG_TRIG_EXT
 969:Drivers/STM32H7xx_HAL_Driver/Inc/stm32h7xx_ll_adc.h **** #define LL_ADC_REG_TRIG_EXT_TIM3_TRGO     (ADC_CFGR_EXTSEL_2 | ADC_REG_TRIG_EXT_EDGE_DEFAULT)      
 970:Drivers/STM32H7xx_HAL_Driver/Inc/stm32h7xx_ll_adc.h **** #define LL_ADC_REG_TRIG_EXT_TIM4_CH4      (ADC_CFGR_EXTSEL_2 | ADC_CFGR_EXTSEL_0 | ADC_REG_TRIG_EXT
 971:Drivers/STM32H7xx_HAL_Driver/Inc/stm32h7xx_ll_adc.h **** #define LL_ADC_REG_TRIG_EXT_EXTI_LINE11   (ADC_CFGR_EXTSEL_2 | ADC_CFGR_EXTSEL_1 | ADC_REG_TRIG_EXT
 972:Drivers/STM32H7xx_HAL_Driver/Inc/stm32h7xx_ll_adc.h **** #define LL_ADC_REG_TRIG_EXT_TIM8_TRGO     (ADC_CFGR_EXTSEL_2 | ADC_CFGR_EXTSEL_1 | ADC_CFGR_EXTSEL_
 973:Drivers/STM32H7xx_HAL_Driver/Inc/stm32h7xx_ll_adc.h **** #define LL_ADC_REG_TRIG_EXT_TIM8_TRGO2    (ADC_CFGR_EXTSEL_3 | ADC_REG_TRIG_EXT_EDGE_DEFAULT)      
 974:Drivers/STM32H7xx_HAL_Driver/Inc/stm32h7xx_ll_adc.h **** #define LL_ADC_REG_TRIG_EXT_TIM1_TRGO     (ADC_CFGR_EXTSEL_3 | ADC_CFGR_EXTSEL_0 | ADC_REG_TRIG_EXT
 975:Drivers/STM32H7xx_HAL_Driver/Inc/stm32h7xx_ll_adc.h **** #define LL_ADC_REG_TRIG_EXT_TIM1_TRGO2    (ADC_CFGR_EXTSEL_3 | ADC_CFGR_EXTSEL_1 | ADC_REG_TRIG_EXT
 976:Drivers/STM32H7xx_HAL_Driver/Inc/stm32h7xx_ll_adc.h **** #define LL_ADC_REG_TRIG_EXT_TIM2_TRGO     (ADC_CFGR_EXTSEL_3 | ADC_CFGR_EXTSEL_1 | ADC_CFGR_EXTSEL_
 977:Drivers/STM32H7xx_HAL_Driver/Inc/stm32h7xx_ll_adc.h **** #define LL_ADC_REG_TRIG_EXT_TIM4_TRGO     (ADC_CFGR_EXTSEL_3 | ADC_CFGR_EXTSEL_2 | ADC_REG_TRIG_EXT
 978:Drivers/STM32H7xx_HAL_Driver/Inc/stm32h7xx_ll_adc.h **** #define LL_ADC_REG_TRIG_EXT_TIM6_TRGO     (ADC_CFGR_EXTSEL_3 | ADC_CFGR_EXTSEL_2 | ADC_CFGR_EXTSEL_
 979:Drivers/STM32H7xx_HAL_Driver/Inc/stm32h7xx_ll_adc.h **** #define LL_ADC_REG_TRIG_EXT_TIM15_TRGO    (ADC_CFGR_EXTSEL_3 | ADC_CFGR_EXTSEL_2 | ADC_CFGR_EXTSEL_
 980:Drivers/STM32H7xx_HAL_Driver/Inc/stm32h7xx_ll_adc.h **** #define LL_ADC_REG_TRIG_EXT_TIM3_CH4      (ADC_CFGR_EXTSEL_3 | ADC_CFGR_EXTSEL_2 | ADC_CFGR_EXTSEL_
 981:Drivers/STM32H7xx_HAL_Driver/Inc/stm32h7xx_ll_adc.h **** #define LL_ADC_REG_TRIG_EXT_HRTIM_TRG1    (ADC_CFGR_EXTSEL_4 | ADC_REG_TRIG_EXT_EDGE_DEFAULT)      
 982:Drivers/STM32H7xx_HAL_Driver/Inc/stm32h7xx_ll_adc.h **** #define LL_ADC_REG_TRIG_EXT_HRTIM_TRG3    (ADC_CFGR_EXTSEL_4 | ADC_CFGR_EXTSEL_0 | ADC_REG_TRIG_EXT
 983:Drivers/STM32H7xx_HAL_Driver/Inc/stm32h7xx_ll_adc.h **** #define LL_ADC_REG_TRIG_EXT_LPTIM1_OUT    (ADC_CFGR_EXTSEL_4 | ADC_CFGR_EXTSEL_1 | ADC_REG_TRIG_EXT
 984:Drivers/STM32H7xx_HAL_Driver/Inc/stm32h7xx_ll_adc.h **** #define LL_ADC_REG_TRIG_EXT_LPTIM2_OUT    (ADC_CFGR_EXTSEL_4 | ADC_CFGR_EXTSEL_1 | ADC_CFGR_EXTSEL_
 985:Drivers/STM32H7xx_HAL_Driver/Inc/stm32h7xx_ll_adc.h **** #define LL_ADC_REG_TRIG_EXT_LPTIM3_OUT    (ADC_CFGR_EXTSEL_4 | ADC_CFGR_EXTSEL_2 | ADC_REG_TRIG_EXT
 986:Drivers/STM32H7xx_HAL_Driver/Inc/stm32h7xx_ll_adc.h **** #if defined (TIM23)
 987:Drivers/STM32H7xx_HAL_Driver/Inc/stm32h7xx_ll_adc.h **** #define LL_ADC_REG_TRIG_EXT_TIM23_TRGO    (ADC_CFGR_EXTSEL_4 | ADC_CFGR_EXTSEL_2 | ADC_CFGR_EXTSEL_
 988:Drivers/STM32H7xx_HAL_Driver/Inc/stm32h7xx_ll_adc.h **** #endif /* TIM23 */
 989:Drivers/STM32H7xx_HAL_Driver/Inc/stm32h7xx_ll_adc.h **** #if defined (TIM24)
 990:Drivers/STM32H7xx_HAL_Driver/Inc/stm32h7xx_ll_adc.h **** #define LL_ADC_REG_TRIG_EXT_TIM24_TRGO    (ADC_CFGR_EXTSEL_4 | ADC_CFGR_EXTSEL_2 | ADC_CFGR_EXTSEL_
 991:Drivers/STM32H7xx_HAL_Driver/Inc/stm32h7xx_ll_adc.h **** #endif /* TIM24 */
 992:Drivers/STM32H7xx_HAL_Driver/Inc/stm32h7xx_ll_adc.h **** /**
 993:Drivers/STM32H7xx_HAL_Driver/Inc/stm32h7xx_ll_adc.h ****   * @}
 994:Drivers/STM32H7xx_HAL_Driver/Inc/stm32h7xx_ll_adc.h ****   */
 995:Drivers/STM32H7xx_HAL_Driver/Inc/stm32h7xx_ll_adc.h **** 
 996:Drivers/STM32H7xx_HAL_Driver/Inc/stm32h7xx_ll_adc.h **** /** @defgroup ADC_LL_EC_REG_TRIGGER_EDGE  ADC group regular - Trigger edge
 997:Drivers/STM32H7xx_HAL_Driver/Inc/stm32h7xx_ll_adc.h ****   * @{
 998:Drivers/STM32H7xx_HAL_Driver/Inc/stm32h7xx_ll_adc.h ****   */
 999:Drivers/STM32H7xx_HAL_Driver/Inc/stm32h7xx_ll_adc.h **** #define LL_ADC_REG_TRIG_EXT_RISING         (                   ADC_CFGR_EXTEN_0)   /*!< ADC group r
1000:Drivers/STM32H7xx_HAL_Driver/Inc/stm32h7xx_ll_adc.h **** #define LL_ADC_REG_TRIG_EXT_FALLING        (ADC_CFGR_EXTEN_1                   )   /*!< ADC group r
1001:Drivers/STM32H7xx_HAL_Driver/Inc/stm32h7xx_ll_adc.h **** #define LL_ADC_REG_TRIG_EXT_RISINGFALLING  (ADC_CFGR_EXTEN_1 | ADC_CFGR_EXTEN_0)   /*!< ADC group r
1002:Drivers/STM32H7xx_HAL_Driver/Inc/stm32h7xx_ll_adc.h **** /**
1003:Drivers/STM32H7xx_HAL_Driver/Inc/stm32h7xx_ll_adc.h ****   * @}
1004:Drivers/STM32H7xx_HAL_Driver/Inc/stm32h7xx_ll_adc.h ****   */
1005:Drivers/STM32H7xx_HAL_Driver/Inc/stm32h7xx_ll_adc.h **** #if defined(ADC_VER_V5_V90)
1006:Drivers/STM32H7xx_HAL_Driver/Inc/stm32h7xx_ll_adc.h ****  /** @defgroup ADC_LL_EC_REG_SAMPLING_MODE  ADC group regular - Sampling mode
1007:Drivers/STM32H7xx_HAL_Driver/Inc/stm32h7xx_ll_adc.h ****   * @{
1008:Drivers/STM32H7xx_HAL_Driver/Inc/stm32h7xx_ll_adc.h ****   */
1009:Drivers/STM32H7xx_HAL_Driver/Inc/stm32h7xx_ll_adc.h **** #define LL_ADC_REG_SAMPLING_MODE_NORMAL               (0x00000000UL)        /*!< ADC conversions sa
1010:Drivers/STM32H7xx_HAL_Driver/Inc/stm32h7xx_ll_adc.h **** #define LL_ADC_REG_SAMPLING_MODE_BULB                 (ADC3_CFGR2_BULB)     /*!< ADC conversions sa
1011:Drivers/STM32H7xx_HAL_Driver/Inc/stm32h7xx_ll_adc.h ****                                                                                  Note: First conver
1012:Drivers/STM32H7xx_HAL_Driver/Inc/stm32h7xx_ll_adc.h **** #define LL_ADC_REG_SAMPLING_MODE_TRIGGER_CONTROLED    (ADC3_CFGR2_SMPTRIG)  /*!< ADC conversions sa
1013:Drivers/STM32H7xx_HAL_Driver/Inc/stm32h7xx_ll_adc.h ****                                                                                  Trigger rising edg
1014:Drivers/STM32H7xx_HAL_Driver/Inc/stm32h7xx_ll_adc.h ****                                                                                  Trigger falling ed
1015:Drivers/STM32H7xx_HAL_Driver/Inc/stm32h7xx_ll_adc.h **** /**
1016:Drivers/STM32H7xx_HAL_Driver/Inc/stm32h7xx_ll_adc.h ****   * @}
1017:Drivers/STM32H7xx_HAL_Driver/Inc/stm32h7xx_ll_adc.h ****   */ 
1018:Drivers/STM32H7xx_HAL_Driver/Inc/stm32h7xx_ll_adc.h **** #endif /* ADC_VER_V5_V90 */
ARM GAS  /tmp/ccmrLUMM.s 			page 23


1019:Drivers/STM32H7xx_HAL_Driver/Inc/stm32h7xx_ll_adc.h **** 
1020:Drivers/STM32H7xx_HAL_Driver/Inc/stm32h7xx_ll_adc.h **** /** @defgroup ADC_LL_EC_REG_CONTINUOUS_MODE  ADC group regular - Continuous mode
1021:Drivers/STM32H7xx_HAL_Driver/Inc/stm32h7xx_ll_adc.h **** * @{
1022:Drivers/STM32H7xx_HAL_Driver/Inc/stm32h7xx_ll_adc.h **** */
1023:Drivers/STM32H7xx_HAL_Driver/Inc/stm32h7xx_ll_adc.h **** #define LL_ADC_REG_CONV_SINGLE             (0x00000000UL)          /*!< ADC conversions are perform
1024:Drivers/STM32H7xx_HAL_Driver/Inc/stm32h7xx_ll_adc.h **** #define LL_ADC_REG_CONV_CONTINUOUS         (ADC_CFGR_CONT)         /*!< ADC conversions are perform
1025:Drivers/STM32H7xx_HAL_Driver/Inc/stm32h7xx_ll_adc.h **** /**
1026:Drivers/STM32H7xx_HAL_Driver/Inc/stm32h7xx_ll_adc.h ****   * @}
1027:Drivers/STM32H7xx_HAL_Driver/Inc/stm32h7xx_ll_adc.h ****   */
1028:Drivers/STM32H7xx_HAL_Driver/Inc/stm32h7xx_ll_adc.h **** 
1029:Drivers/STM32H7xx_HAL_Driver/Inc/stm32h7xx_ll_adc.h **** /** @defgroup ADC_LL_EC_REG_DATA_TRANSFER_MODE  ADC group regular - Data transfer mode of ADC conve
1030:Drivers/STM32H7xx_HAL_Driver/Inc/stm32h7xx_ll_adc.h ****   * @{
1031:Drivers/STM32H7xx_HAL_Driver/Inc/stm32h7xx_ll_adc.h ****   */
1032:Drivers/STM32H7xx_HAL_Driver/Inc/stm32h7xx_ll_adc.h **** #define LL_ADC_REG_DR_TRANSFER             (0x00000000UL)                        /*!< ADC conversio
1033:Drivers/STM32H7xx_HAL_Driver/Inc/stm32h7xx_ll_adc.h **** #define LL_ADC_REG_DMA_TRANSFER_LIMITED    (                   ADC_CFGR_DMNGT_0) /*!< ADC conversio
1034:Drivers/STM32H7xx_HAL_Driver/Inc/stm32h7xx_ll_adc.h **** #define LL_ADC_REG_DMA_TRANSFER_UNLIMITED  (ADC_CFGR_DMNGT_1 | ADC_CFGR_DMNGT_0) /*!< ADC conversio
1035:Drivers/STM32H7xx_HAL_Driver/Inc/stm32h7xx_ll_adc.h **** #define LL_ADC_REG_DFSDM_TRANSFER          (ADC_CFGR_DMNGT_1                   ) /*!< ADC conversio
1036:Drivers/STM32H7xx_HAL_Driver/Inc/stm32h7xx_ll_adc.h **** /**
1037:Drivers/STM32H7xx_HAL_Driver/Inc/stm32h7xx_ll_adc.h ****   * @}
1038:Drivers/STM32H7xx_HAL_Driver/Inc/stm32h7xx_ll_adc.h ****   */
1039:Drivers/STM32H7xx_HAL_Driver/Inc/stm32h7xx_ll_adc.h **** 
1040:Drivers/STM32H7xx_HAL_Driver/Inc/stm32h7xx_ll_adc.h **** #if defined(ADC_VER_V5_V90)
1041:Drivers/STM32H7xx_HAL_Driver/Inc/stm32h7xx_ll_adc.h **** /** @defgroup ADC_LL_EC_REG_DMA_TRANSFER  ADC group regular - DMA transfer of ADC conversion data
1042:Drivers/STM32H7xx_HAL_Driver/Inc/stm32h7xx_ll_adc.h ****   * @{
1043:Drivers/STM32H7xx_HAL_Driver/Inc/stm32h7xx_ll_adc.h ****   */
1044:Drivers/STM32H7xx_HAL_Driver/Inc/stm32h7xx_ll_adc.h **** 
1045:Drivers/STM32H7xx_HAL_Driver/Inc/stm32h7xx_ll_adc.h **** #define LL_ADC3_REG_DMA_TRANSFER_NONE       (0x00000000UL)                        /*!< ADC conversi
1046:Drivers/STM32H7xx_HAL_Driver/Inc/stm32h7xx_ll_adc.h **** #define LL_ADC3_REG_DMA_TRANSFER_LIMITED    (                  ADC3_CFGR_DMAEN)    /*!< ADC convers
1047:Drivers/STM32H7xx_HAL_Driver/Inc/stm32h7xx_ll_adc.h **** #define LL_ADC3_REG_DMA_TRANSFER_UNLIMITED  (ADC3_CFGR_DMACFG | ADC3_CFGR_DMAEN)    /*!< ADC conver
1048:Drivers/STM32H7xx_HAL_Driver/Inc/stm32h7xx_ll_adc.h **** /**
1049:Drivers/STM32H7xx_HAL_Driver/Inc/stm32h7xx_ll_adc.h ****   * @}
1050:Drivers/STM32H7xx_HAL_Driver/Inc/stm32h7xx_ll_adc.h ****   */
1051:Drivers/STM32H7xx_HAL_Driver/Inc/stm32h7xx_ll_adc.h **** #endif
1052:Drivers/STM32H7xx_HAL_Driver/Inc/stm32h7xx_ll_adc.h **** 
1053:Drivers/STM32H7xx_HAL_Driver/Inc/stm32h7xx_ll_adc.h **** /** @defgroup ADC_LL_EC_REG_OVR_DATA_BEHAVIOR  ADC group regular - Overrun behavior on conversion d
1054:Drivers/STM32H7xx_HAL_Driver/Inc/stm32h7xx_ll_adc.h **** * @{
1055:Drivers/STM32H7xx_HAL_Driver/Inc/stm32h7xx_ll_adc.h **** */
1056:Drivers/STM32H7xx_HAL_Driver/Inc/stm32h7xx_ll_adc.h **** #define LL_ADC_REG_OVR_DATA_PRESERVED      (0x00000000UL)         /*!< ADC group regular behavior i
1057:Drivers/STM32H7xx_HAL_Driver/Inc/stm32h7xx_ll_adc.h **** #define LL_ADC_REG_OVR_DATA_OVERWRITTEN    (ADC_CFGR_OVRMOD)      /*!< ADC group regular behavior i
1058:Drivers/STM32H7xx_HAL_Driver/Inc/stm32h7xx_ll_adc.h **** /**
1059:Drivers/STM32H7xx_HAL_Driver/Inc/stm32h7xx_ll_adc.h ****   * @}
1060:Drivers/STM32H7xx_HAL_Driver/Inc/stm32h7xx_ll_adc.h ****   */
1061:Drivers/STM32H7xx_HAL_Driver/Inc/stm32h7xx_ll_adc.h **** 
1062:Drivers/STM32H7xx_HAL_Driver/Inc/stm32h7xx_ll_adc.h **** /** @defgroup ADC_LL_EC_REG_SEQ_SCAN_LENGTH  ADC group regular - Sequencer scan length
1063:Drivers/STM32H7xx_HAL_Driver/Inc/stm32h7xx_ll_adc.h ****   * @{
1064:Drivers/STM32H7xx_HAL_Driver/Inc/stm32h7xx_ll_adc.h ****   */
1065:Drivers/STM32H7xx_HAL_Driver/Inc/stm32h7xx_ll_adc.h **** #define LL_ADC_REG_SEQ_SCAN_DISABLE        (0x00000000UL)                                          
1066:Drivers/STM32H7xx_HAL_Driver/Inc/stm32h7xx_ll_adc.h **** #define LL_ADC_REG_SEQ_SCAN_ENABLE_2RANKS  (                                             ADC_SQR1_L
1067:Drivers/STM32H7xx_HAL_Driver/Inc/stm32h7xx_ll_adc.h **** #define LL_ADC_REG_SEQ_SCAN_ENABLE_3RANKS  (                              ADC_SQR1_L_1             
1068:Drivers/STM32H7xx_HAL_Driver/Inc/stm32h7xx_ll_adc.h **** #define LL_ADC_REG_SEQ_SCAN_ENABLE_4RANKS  (                              ADC_SQR1_L_1 | ADC_SQR1_L
1069:Drivers/STM32H7xx_HAL_Driver/Inc/stm32h7xx_ll_adc.h **** #define LL_ADC_REG_SEQ_SCAN_ENABLE_5RANKS  (               ADC_SQR1_L_2                            
1070:Drivers/STM32H7xx_HAL_Driver/Inc/stm32h7xx_ll_adc.h **** #define LL_ADC_REG_SEQ_SCAN_ENABLE_6RANKS  (               ADC_SQR1_L_2                | ADC_SQR1_L
1071:Drivers/STM32H7xx_HAL_Driver/Inc/stm32h7xx_ll_adc.h **** #define LL_ADC_REG_SEQ_SCAN_ENABLE_7RANKS  (               ADC_SQR1_L_2 | ADC_SQR1_L_1             
1072:Drivers/STM32H7xx_HAL_Driver/Inc/stm32h7xx_ll_adc.h **** #define LL_ADC_REG_SEQ_SCAN_ENABLE_8RANKS  (               ADC_SQR1_L_2 | ADC_SQR1_L_1 | ADC_SQR1_L
1073:Drivers/STM32H7xx_HAL_Driver/Inc/stm32h7xx_ll_adc.h **** #define LL_ADC_REG_SEQ_SCAN_ENABLE_9RANKS  (ADC_SQR1_L_3                                           
1074:Drivers/STM32H7xx_HAL_Driver/Inc/stm32h7xx_ll_adc.h **** #define LL_ADC_REG_SEQ_SCAN_ENABLE_10RANKS (ADC_SQR1_L_3                               | ADC_SQR1_L
1075:Drivers/STM32H7xx_HAL_Driver/Inc/stm32h7xx_ll_adc.h **** #define LL_ADC_REG_SEQ_SCAN_ENABLE_11RANKS (ADC_SQR1_L_3                | ADC_SQR1_L_1             
ARM GAS  /tmp/ccmrLUMM.s 			page 24


1076:Drivers/STM32H7xx_HAL_Driver/Inc/stm32h7xx_ll_adc.h **** #define LL_ADC_REG_SEQ_SCAN_ENABLE_12RANKS (ADC_SQR1_L_3                | ADC_SQR1_L_1 | ADC_SQR1_L
1077:Drivers/STM32H7xx_HAL_Driver/Inc/stm32h7xx_ll_adc.h **** #define LL_ADC_REG_SEQ_SCAN_ENABLE_13RANKS (ADC_SQR1_L_3 | ADC_SQR1_L_2                            
1078:Drivers/STM32H7xx_HAL_Driver/Inc/stm32h7xx_ll_adc.h **** #define LL_ADC_REG_SEQ_SCAN_ENABLE_14RANKS (ADC_SQR1_L_3 | ADC_SQR1_L_2                | ADC_SQR1_L
1079:Drivers/STM32H7xx_HAL_Driver/Inc/stm32h7xx_ll_adc.h **** #define LL_ADC_REG_SEQ_SCAN_ENABLE_15RANKS (ADC_SQR1_L_3 | ADC_SQR1_L_2 | ADC_SQR1_L_1             
1080:Drivers/STM32H7xx_HAL_Driver/Inc/stm32h7xx_ll_adc.h **** #define LL_ADC_REG_SEQ_SCAN_ENABLE_16RANKS (ADC_SQR1_L_3 | ADC_SQR1_L_2 | ADC_SQR1_L_1 | ADC_SQR1_L
1081:Drivers/STM32H7xx_HAL_Driver/Inc/stm32h7xx_ll_adc.h **** /**
1082:Drivers/STM32H7xx_HAL_Driver/Inc/stm32h7xx_ll_adc.h ****   * @}
1083:Drivers/STM32H7xx_HAL_Driver/Inc/stm32h7xx_ll_adc.h ****   */
1084:Drivers/STM32H7xx_HAL_Driver/Inc/stm32h7xx_ll_adc.h **** 
1085:Drivers/STM32H7xx_HAL_Driver/Inc/stm32h7xx_ll_adc.h **** /** @defgroup ADC_LL_EC_REG_SEQ_DISCONT_MODE  ADC group regular - Sequencer discontinuous mode
1086:Drivers/STM32H7xx_HAL_Driver/Inc/stm32h7xx_ll_adc.h ****   * @{
1087:Drivers/STM32H7xx_HAL_Driver/Inc/stm32h7xx_ll_adc.h ****   */
1088:Drivers/STM32H7xx_HAL_Driver/Inc/stm32h7xx_ll_adc.h **** #define LL_ADC_REG_SEQ_DISCONT_DISABLE     (0x00000000UL)                                          
1089:Drivers/STM32H7xx_HAL_Driver/Inc/stm32h7xx_ll_adc.h **** #define LL_ADC_REG_SEQ_DISCONT_1RANK       (                                                       
1090:Drivers/STM32H7xx_HAL_Driver/Inc/stm32h7xx_ll_adc.h **** #define LL_ADC_REG_SEQ_DISCONT_2RANKS      (                                          ADC_CFGR_DISC
1091:Drivers/STM32H7xx_HAL_Driver/Inc/stm32h7xx_ll_adc.h **** #define LL_ADC_REG_SEQ_DISCONT_3RANKS      (                     ADC_CFGR_DISCNUM_1                
1092:Drivers/STM32H7xx_HAL_Driver/Inc/stm32h7xx_ll_adc.h **** #define LL_ADC_REG_SEQ_DISCONT_4RANKS      (                     ADC_CFGR_DISCNUM_1 | ADC_CFGR_DISC
1093:Drivers/STM32H7xx_HAL_Driver/Inc/stm32h7xx_ll_adc.h **** #define LL_ADC_REG_SEQ_DISCONT_5RANKS      (ADC_CFGR_DISCNUM_2                                     
1094:Drivers/STM32H7xx_HAL_Driver/Inc/stm32h7xx_ll_adc.h **** #define LL_ADC_REG_SEQ_DISCONT_6RANKS      (ADC_CFGR_DISCNUM_2                      | ADC_CFGR_DISC
1095:Drivers/STM32H7xx_HAL_Driver/Inc/stm32h7xx_ll_adc.h **** #define LL_ADC_REG_SEQ_DISCONT_7RANKS      (ADC_CFGR_DISCNUM_2 | ADC_CFGR_DISCNUM_1                
1096:Drivers/STM32H7xx_HAL_Driver/Inc/stm32h7xx_ll_adc.h **** #define LL_ADC_REG_SEQ_DISCONT_8RANKS      (ADC_CFGR_DISCNUM_2 | ADC_CFGR_DISCNUM_1 | ADC_CFGR_DISC
1097:Drivers/STM32H7xx_HAL_Driver/Inc/stm32h7xx_ll_adc.h **** /**
1098:Drivers/STM32H7xx_HAL_Driver/Inc/stm32h7xx_ll_adc.h ****   * @}
1099:Drivers/STM32H7xx_HAL_Driver/Inc/stm32h7xx_ll_adc.h ****   */
1100:Drivers/STM32H7xx_HAL_Driver/Inc/stm32h7xx_ll_adc.h **** 
1101:Drivers/STM32H7xx_HAL_Driver/Inc/stm32h7xx_ll_adc.h **** /** @defgroup ADC_LL_EC_REG_SEQ_RANKS  ADC group regular - Sequencer ranks
1102:Drivers/STM32H7xx_HAL_Driver/Inc/stm32h7xx_ll_adc.h ****   * @{
1103:Drivers/STM32H7xx_HAL_Driver/Inc/stm32h7xx_ll_adc.h ****   */
1104:Drivers/STM32H7xx_HAL_Driver/Inc/stm32h7xx_ll_adc.h **** #define LL_ADC_REG_RANK_1                  (ADC_SQR1_REGOFFSET | ADC_REG_RANK_1_SQRX_BITOFFSET_POS)
1105:Drivers/STM32H7xx_HAL_Driver/Inc/stm32h7xx_ll_adc.h **** #define LL_ADC_REG_RANK_2                  (ADC_SQR1_REGOFFSET | ADC_REG_RANK_2_SQRX_BITOFFSET_POS)
1106:Drivers/STM32H7xx_HAL_Driver/Inc/stm32h7xx_ll_adc.h **** #define LL_ADC_REG_RANK_3                  (ADC_SQR1_REGOFFSET | ADC_REG_RANK_3_SQRX_BITOFFSET_POS)
1107:Drivers/STM32H7xx_HAL_Driver/Inc/stm32h7xx_ll_adc.h **** #define LL_ADC_REG_RANK_4                  (ADC_SQR1_REGOFFSET | ADC_REG_RANK_4_SQRX_BITOFFSET_POS)
1108:Drivers/STM32H7xx_HAL_Driver/Inc/stm32h7xx_ll_adc.h **** #define LL_ADC_REG_RANK_5                  (ADC_SQR2_REGOFFSET | ADC_REG_RANK_5_SQRX_BITOFFSET_POS)
1109:Drivers/STM32H7xx_HAL_Driver/Inc/stm32h7xx_ll_adc.h **** #define LL_ADC_REG_RANK_6                  (ADC_SQR2_REGOFFSET | ADC_REG_RANK_6_SQRX_BITOFFSET_POS)
1110:Drivers/STM32H7xx_HAL_Driver/Inc/stm32h7xx_ll_adc.h **** #define LL_ADC_REG_RANK_7                  (ADC_SQR2_REGOFFSET | ADC_REG_RANK_7_SQRX_BITOFFSET_POS)
1111:Drivers/STM32H7xx_HAL_Driver/Inc/stm32h7xx_ll_adc.h **** #define LL_ADC_REG_RANK_8                  (ADC_SQR2_REGOFFSET | ADC_REG_RANK_8_SQRX_BITOFFSET_POS)
1112:Drivers/STM32H7xx_HAL_Driver/Inc/stm32h7xx_ll_adc.h **** #define LL_ADC_REG_RANK_9                  (ADC_SQR2_REGOFFSET | ADC_REG_RANK_9_SQRX_BITOFFSET_POS)
1113:Drivers/STM32H7xx_HAL_Driver/Inc/stm32h7xx_ll_adc.h **** #define LL_ADC_REG_RANK_10                 (ADC_SQR3_REGOFFSET | ADC_REG_RANK_10_SQRX_BITOFFSET_POS
1114:Drivers/STM32H7xx_HAL_Driver/Inc/stm32h7xx_ll_adc.h **** #define LL_ADC_REG_RANK_11                 (ADC_SQR3_REGOFFSET | ADC_REG_RANK_11_SQRX_BITOFFSET_POS
1115:Drivers/STM32H7xx_HAL_Driver/Inc/stm32h7xx_ll_adc.h **** #define LL_ADC_REG_RANK_12                 (ADC_SQR3_REGOFFSET | ADC_REG_RANK_12_SQRX_BITOFFSET_POS
1116:Drivers/STM32H7xx_HAL_Driver/Inc/stm32h7xx_ll_adc.h **** #define LL_ADC_REG_RANK_13                 (ADC_SQR3_REGOFFSET | ADC_REG_RANK_13_SQRX_BITOFFSET_POS
1117:Drivers/STM32H7xx_HAL_Driver/Inc/stm32h7xx_ll_adc.h **** #define LL_ADC_REG_RANK_14                 (ADC_SQR3_REGOFFSET | ADC_REG_RANK_14_SQRX_BITOFFSET_POS
1118:Drivers/STM32H7xx_HAL_Driver/Inc/stm32h7xx_ll_adc.h **** #define LL_ADC_REG_RANK_15                 (ADC_SQR4_REGOFFSET | ADC_REG_RANK_15_SQRX_BITOFFSET_POS
1119:Drivers/STM32H7xx_HAL_Driver/Inc/stm32h7xx_ll_adc.h **** #define LL_ADC_REG_RANK_16                 (ADC_SQR4_REGOFFSET | ADC_REG_RANK_16_SQRX_BITOFFSET_POS
1120:Drivers/STM32H7xx_HAL_Driver/Inc/stm32h7xx_ll_adc.h **** /**
1121:Drivers/STM32H7xx_HAL_Driver/Inc/stm32h7xx_ll_adc.h ****   * @}
1122:Drivers/STM32H7xx_HAL_Driver/Inc/stm32h7xx_ll_adc.h ****   */
1123:Drivers/STM32H7xx_HAL_Driver/Inc/stm32h7xx_ll_adc.h **** 
1124:Drivers/STM32H7xx_HAL_Driver/Inc/stm32h7xx_ll_adc.h **** /** @defgroup ADC_LL_EC_INJ_TRIGGER_SOURCE  ADC group injected - Trigger source
1125:Drivers/STM32H7xx_HAL_Driver/Inc/stm32h7xx_ll_adc.h ****   * @{
1126:Drivers/STM32H7xx_HAL_Driver/Inc/stm32h7xx_ll_adc.h ****   */
1127:Drivers/STM32H7xx_HAL_Driver/Inc/stm32h7xx_ll_adc.h **** #define LL_ADC_INJ_TRIG_SOFTWARE           (0x00000000UL)                                          
1128:Drivers/STM32H7xx_HAL_Driver/Inc/stm32h7xx_ll_adc.h **** #define LL_ADC_INJ_TRIG_EXT_TIM1_TRGO      (ADC_INJ_TRIG_EXT_EDGE_DEFAULT)                         
1129:Drivers/STM32H7xx_HAL_Driver/Inc/stm32h7xx_ll_adc.h **** #define LL_ADC_INJ_TRIG_EXT_TIM1_CH4       (ADC_JSQR_JEXTSEL_0 | ADC_INJ_TRIG_EXT_EDGE_DEFAULT)    
1130:Drivers/STM32H7xx_HAL_Driver/Inc/stm32h7xx_ll_adc.h **** #define LL_ADC_INJ_TRIG_EXT_TIM2_TRGO      (ADC_JSQR_JEXTSEL_1 | ADC_INJ_TRIG_EXT_EDGE_DEFAULT)    
1131:Drivers/STM32H7xx_HAL_Driver/Inc/stm32h7xx_ll_adc.h **** #define LL_ADC_INJ_TRIG_EXT_TIM2_CH1       (ADC_JSQR_JEXTSEL_1 | ADC_JSQR_JEXTSEL_0 | ADC_INJ_TRIG_
1132:Drivers/STM32H7xx_HAL_Driver/Inc/stm32h7xx_ll_adc.h **** #define LL_ADC_INJ_TRIG_EXT_TIM3_CH4       (ADC_JSQR_JEXTSEL_2 | ADC_INJ_TRIG_EXT_EDGE_DEFAULT)    
ARM GAS  /tmp/ccmrLUMM.s 			page 25


1133:Drivers/STM32H7xx_HAL_Driver/Inc/stm32h7xx_ll_adc.h **** #define LL_ADC_INJ_TRIG_EXT_TIM4_TRGO      (ADC_JSQR_JEXTSEL_2 | ADC_JSQR_JEXTSEL_0 | ADC_INJ_TRIG_
1134:Drivers/STM32H7xx_HAL_Driver/Inc/stm32h7xx_ll_adc.h **** #define LL_ADC_INJ_TRIG_EXT_EXTI_LINE15    (ADC_JSQR_JEXTSEL_2 | ADC_JSQR_JEXTSEL_1 | ADC_INJ_TRIG_
1135:Drivers/STM32H7xx_HAL_Driver/Inc/stm32h7xx_ll_adc.h **** #define LL_ADC_INJ_TRIG_EXT_TIM8_CH4       (ADC_JSQR_JEXTSEL_2 | ADC_JSQR_JEXTSEL_1 | ADC_JSQR_JEXT
1136:Drivers/STM32H7xx_HAL_Driver/Inc/stm32h7xx_ll_adc.h **** #define LL_ADC_INJ_TRIG_EXT_TIM1_TRGO2     (ADC_JSQR_JEXTSEL_3 | ADC_INJ_TRIG_EXT_EDGE_DEFAULT)    
1137:Drivers/STM32H7xx_HAL_Driver/Inc/stm32h7xx_ll_adc.h **** #define LL_ADC_INJ_TRIG_EXT_TIM8_TRGO      (ADC_JSQR_JEXTSEL_3 | ADC_JSQR_JEXTSEL_0 | ADC_INJ_TRIG_
1138:Drivers/STM32H7xx_HAL_Driver/Inc/stm32h7xx_ll_adc.h **** #define LL_ADC_INJ_TRIG_EXT_TIM8_TRGO2     (ADC_JSQR_JEXTSEL_3 | ADC_JSQR_JEXTSEL_1 | ADC_INJ_TRIG_
1139:Drivers/STM32H7xx_HAL_Driver/Inc/stm32h7xx_ll_adc.h **** #define LL_ADC_INJ_TRIG_EXT_TIM3_CH3       (ADC_JSQR_JEXTSEL_3 | ADC_JSQR_JEXTSEL_1 | ADC_JSQR_JEXT
1140:Drivers/STM32H7xx_HAL_Driver/Inc/stm32h7xx_ll_adc.h **** #define LL_ADC_INJ_TRIG_EXT_TIM3_TRGO      (ADC_JSQR_JEXTSEL_3 | ADC_JSQR_JEXTSEL_2 | ADC_INJ_TRIG_
1141:Drivers/STM32H7xx_HAL_Driver/Inc/stm32h7xx_ll_adc.h **** #define LL_ADC_INJ_TRIG_EXT_TIM3_CH1       (ADC_JSQR_JEXTSEL_3 | ADC_JSQR_JEXTSEL_2 | ADC_JSQR_JEXT
1142:Drivers/STM32H7xx_HAL_Driver/Inc/stm32h7xx_ll_adc.h **** #define LL_ADC_INJ_TRIG_EXT_TIM6_TRGO      (ADC_JSQR_JEXTSEL_3 | ADC_JSQR_JEXTSEL_2 | ADC_JSQR_JEXT
1143:Drivers/STM32H7xx_HAL_Driver/Inc/stm32h7xx_ll_adc.h **** #define LL_ADC_INJ_TRIG_EXT_TIM15_TRGO     (ADC_JSQR_JEXTSEL_3 | ADC_JSQR_JEXTSEL_2 | ADC_JSQR_JEXT
1144:Drivers/STM32H7xx_HAL_Driver/Inc/stm32h7xx_ll_adc.h **** #define LL_ADC_INJ_TRIG_EXT_HRTIM_TRG2     (ADC_JSQR_JEXTSEL_4 | ADC_INJ_TRIG_EXT_EDGE_DEFAULT)    
1145:Drivers/STM32H7xx_HAL_Driver/Inc/stm32h7xx_ll_adc.h **** #define LL_ADC_INJ_TRIG_EXT_HRTIM_TRG4     (ADC_JSQR_JEXTSEL_4 | ADC_JSQR_JEXTSEL_0 | ADC_INJ_TRIG_
1146:Drivers/STM32H7xx_HAL_Driver/Inc/stm32h7xx_ll_adc.h **** #define LL_ADC_INJ_TRIG_EXT_LPTIM1_OUT     (ADC_JSQR_JEXTSEL_4 | ADC_JSQR_JEXTSEL_1 | ADC_INJ_TRIG_
1147:Drivers/STM32H7xx_HAL_Driver/Inc/stm32h7xx_ll_adc.h **** #define LL_ADC_INJ_TRIG_EXT_LPTIM2_OUT     (ADC_JSQR_JEXTSEL_4 | ADC_JSQR_JEXTSEL_1 | ADC_JSQR_JEXT
1148:Drivers/STM32H7xx_HAL_Driver/Inc/stm32h7xx_ll_adc.h **** #define LL_ADC_INJ_TRIG_EXT_LPTIM3_OUT     (ADC_JSQR_JEXTSEL_4 | ADC_JSQR_JEXTSEL_2 | ADC_INJ_TRIG_
1149:Drivers/STM32H7xx_HAL_Driver/Inc/stm32h7xx_ll_adc.h **** #define LL_ADC_INJ_TRIG_EXT_TIM23_TRGO     (ADC_JSQR_JEXTSEL_4 | ADC_JSQR_JEXTSEL_2 | ADC_JSQR_JEXT
1150:Drivers/STM32H7xx_HAL_Driver/Inc/stm32h7xx_ll_adc.h **** #define LL_ADC_INJ_TRIG_EXT_TIM24_TRGO     (ADC_JSQR_JEXTSEL_4 | ADC_JSQR_JEXTSEL_2 | ADC_JSQR_JEXT
1151:Drivers/STM32H7xx_HAL_Driver/Inc/stm32h7xx_ll_adc.h **** /**
1152:Drivers/STM32H7xx_HAL_Driver/Inc/stm32h7xx_ll_adc.h ****   * @}
1153:Drivers/STM32H7xx_HAL_Driver/Inc/stm32h7xx_ll_adc.h ****   */
1154:Drivers/STM32H7xx_HAL_Driver/Inc/stm32h7xx_ll_adc.h **** 
1155:Drivers/STM32H7xx_HAL_Driver/Inc/stm32h7xx_ll_adc.h **** /** @defgroup ADC_LL_EC_INJ_TRIGGER_EDGE  ADC group injected - Trigger edge
1156:Drivers/STM32H7xx_HAL_Driver/Inc/stm32h7xx_ll_adc.h ****   * @{
1157:Drivers/STM32H7xx_HAL_Driver/Inc/stm32h7xx_ll_adc.h ****   */
1158:Drivers/STM32H7xx_HAL_Driver/Inc/stm32h7xx_ll_adc.h **** #define LL_ADC_INJ_TRIG_EXT_RISING         (                    ADC_JSQR_JEXTEN_0) /*!< ADC group i
1159:Drivers/STM32H7xx_HAL_Driver/Inc/stm32h7xx_ll_adc.h **** #define LL_ADC_INJ_TRIG_EXT_FALLING        (ADC_JSQR_JEXTEN_1                    ) /*!< ADC group i
1160:Drivers/STM32H7xx_HAL_Driver/Inc/stm32h7xx_ll_adc.h **** #define LL_ADC_INJ_TRIG_EXT_RISINGFALLING  (ADC_JSQR_JEXTEN_1 | ADC_JSQR_JEXTEN_0) /*!< ADC group i
1161:Drivers/STM32H7xx_HAL_Driver/Inc/stm32h7xx_ll_adc.h **** /**
1162:Drivers/STM32H7xx_HAL_Driver/Inc/stm32h7xx_ll_adc.h ****   * @}
1163:Drivers/STM32H7xx_HAL_Driver/Inc/stm32h7xx_ll_adc.h ****   */
1164:Drivers/STM32H7xx_HAL_Driver/Inc/stm32h7xx_ll_adc.h **** 
1165:Drivers/STM32H7xx_HAL_Driver/Inc/stm32h7xx_ll_adc.h **** /** @defgroup ADC_LL_EC_INJ_TRIG_AUTO  ADC group injected - Automatic trigger mode
1166:Drivers/STM32H7xx_HAL_Driver/Inc/stm32h7xx_ll_adc.h **** * @{
1167:Drivers/STM32H7xx_HAL_Driver/Inc/stm32h7xx_ll_adc.h **** */
1168:Drivers/STM32H7xx_HAL_Driver/Inc/stm32h7xx_ll_adc.h **** #define LL_ADC_INJ_TRIG_INDEPENDENT        (0x00000000UL)         /*!< ADC group injected conversio
1169:Drivers/STM32H7xx_HAL_Driver/Inc/stm32h7xx_ll_adc.h **** #define LL_ADC_INJ_TRIG_FROM_GRP_REGULAR   (ADC_CFGR_JAUTO)       /*!< ADC group injected conversio
1170:Drivers/STM32H7xx_HAL_Driver/Inc/stm32h7xx_ll_adc.h **** /**
1171:Drivers/STM32H7xx_HAL_Driver/Inc/stm32h7xx_ll_adc.h ****   * @}
1172:Drivers/STM32H7xx_HAL_Driver/Inc/stm32h7xx_ll_adc.h ****   */
1173:Drivers/STM32H7xx_HAL_Driver/Inc/stm32h7xx_ll_adc.h **** 
1174:Drivers/STM32H7xx_HAL_Driver/Inc/stm32h7xx_ll_adc.h **** /** @defgroup ADC_LL_EC_INJ_CONTEXT_QUEUE  ADC group injected - Context queue mode
1175:Drivers/STM32H7xx_HAL_Driver/Inc/stm32h7xx_ll_adc.h ****   * @{
1176:Drivers/STM32H7xx_HAL_Driver/Inc/stm32h7xx_ll_adc.h ****   */
1177:Drivers/STM32H7xx_HAL_Driver/Inc/stm32h7xx_ll_adc.h **** #define LL_ADC_INJ_QUEUE_2CONTEXTS_LAST_ACTIVE (0x00000000UL)         /* Group injected sequence co
1178:Drivers/STM32H7xx_HAL_Driver/Inc/stm32h7xx_ll_adc.h **** #define LL_ADC_INJ_QUEUE_2CONTEXTS_END_EMPTY   (ADC_CFGR_JQM)         /* Group injected sequence co
1179:Drivers/STM32H7xx_HAL_Driver/Inc/stm32h7xx_ll_adc.h **** #define LL_ADC_INJ_QUEUE_DISABLE               (ADC_CFGR_JQDIS)       /* Group injected sequence co
1180:Drivers/STM32H7xx_HAL_Driver/Inc/stm32h7xx_ll_adc.h **** /**
1181:Drivers/STM32H7xx_HAL_Driver/Inc/stm32h7xx_ll_adc.h ****   * @}
1182:Drivers/STM32H7xx_HAL_Driver/Inc/stm32h7xx_ll_adc.h ****   */
1183:Drivers/STM32H7xx_HAL_Driver/Inc/stm32h7xx_ll_adc.h **** 
1184:Drivers/STM32H7xx_HAL_Driver/Inc/stm32h7xx_ll_adc.h **** /** @defgroup ADC_LL_EC_INJ_SEQ_SCAN_LENGTH  ADC group injected - Sequencer scan length
1185:Drivers/STM32H7xx_HAL_Driver/Inc/stm32h7xx_ll_adc.h ****   * @{
1186:Drivers/STM32H7xx_HAL_Driver/Inc/stm32h7xx_ll_adc.h ****   */
1187:Drivers/STM32H7xx_HAL_Driver/Inc/stm32h7xx_ll_adc.h **** #define LL_ADC_INJ_SEQ_SCAN_DISABLE        (0x00000000UL)                  /*!< ADC group injected 
1188:Drivers/STM32H7xx_HAL_Driver/Inc/stm32h7xx_ll_adc.h **** #define LL_ADC_INJ_SEQ_SCAN_ENABLE_2RANKS  (                ADC_JSQR_JL_0) /*!< ADC group injected 
1189:Drivers/STM32H7xx_HAL_Driver/Inc/stm32h7xx_ll_adc.h **** #define LL_ADC_INJ_SEQ_SCAN_ENABLE_3RANKS  (ADC_JSQR_JL_1                ) /*!< ADC group injected 
ARM GAS  /tmp/ccmrLUMM.s 			page 26


1190:Drivers/STM32H7xx_HAL_Driver/Inc/stm32h7xx_ll_adc.h **** #define LL_ADC_INJ_SEQ_SCAN_ENABLE_4RANKS  (ADC_JSQR_JL_1 | ADC_JSQR_JL_0) /*!< ADC group injected 
1191:Drivers/STM32H7xx_HAL_Driver/Inc/stm32h7xx_ll_adc.h **** /**
1192:Drivers/STM32H7xx_HAL_Driver/Inc/stm32h7xx_ll_adc.h ****   * @}
1193:Drivers/STM32H7xx_HAL_Driver/Inc/stm32h7xx_ll_adc.h ****   */
1194:Drivers/STM32H7xx_HAL_Driver/Inc/stm32h7xx_ll_adc.h **** 
1195:Drivers/STM32H7xx_HAL_Driver/Inc/stm32h7xx_ll_adc.h **** /** @defgroup ADC_LL_EC_INJ_SEQ_DISCONT_MODE  ADC group injected - Sequencer discontinuous mode
1196:Drivers/STM32H7xx_HAL_Driver/Inc/stm32h7xx_ll_adc.h ****   * @{
1197:Drivers/STM32H7xx_HAL_Driver/Inc/stm32h7xx_ll_adc.h ****   */
1198:Drivers/STM32H7xx_HAL_Driver/Inc/stm32h7xx_ll_adc.h **** #define LL_ADC_INJ_SEQ_DISCONT_DISABLE     (0x00000000UL)         /*!< ADC group injected sequencer
1199:Drivers/STM32H7xx_HAL_Driver/Inc/stm32h7xx_ll_adc.h **** #define LL_ADC_INJ_SEQ_DISCONT_1RANK       (ADC_CFGR_JDISCEN)     /*!< ADC group injected sequencer
1200:Drivers/STM32H7xx_HAL_Driver/Inc/stm32h7xx_ll_adc.h **** /**
1201:Drivers/STM32H7xx_HAL_Driver/Inc/stm32h7xx_ll_adc.h ****   * @}
1202:Drivers/STM32H7xx_HAL_Driver/Inc/stm32h7xx_ll_adc.h ****   */
1203:Drivers/STM32H7xx_HAL_Driver/Inc/stm32h7xx_ll_adc.h **** 
1204:Drivers/STM32H7xx_HAL_Driver/Inc/stm32h7xx_ll_adc.h **** /** @defgroup ADC_LL_EC_INJ_SEQ_RANKS  ADC group injected - Sequencer ranks
1205:Drivers/STM32H7xx_HAL_Driver/Inc/stm32h7xx_ll_adc.h ****   * @{
1206:Drivers/STM32H7xx_HAL_Driver/Inc/stm32h7xx_ll_adc.h ****   */
1207:Drivers/STM32H7xx_HAL_Driver/Inc/stm32h7xx_ll_adc.h **** #define LL_ADC_INJ_RANK_1                  (ADC_JDR1_REGOFFSET | ADC_INJ_RANK_1_JSQR_BITOFFSET_POS)
1208:Drivers/STM32H7xx_HAL_Driver/Inc/stm32h7xx_ll_adc.h **** #define LL_ADC_INJ_RANK_2                  (ADC_JDR2_REGOFFSET | ADC_INJ_RANK_2_JSQR_BITOFFSET_POS)
1209:Drivers/STM32H7xx_HAL_Driver/Inc/stm32h7xx_ll_adc.h **** #define LL_ADC_INJ_RANK_3                  (ADC_JDR3_REGOFFSET | ADC_INJ_RANK_3_JSQR_BITOFFSET_POS)
1210:Drivers/STM32H7xx_HAL_Driver/Inc/stm32h7xx_ll_adc.h **** #define LL_ADC_INJ_RANK_4                  (ADC_JDR4_REGOFFSET | ADC_INJ_RANK_4_JSQR_BITOFFSET_POS)
1211:Drivers/STM32H7xx_HAL_Driver/Inc/stm32h7xx_ll_adc.h **** /**
1212:Drivers/STM32H7xx_HAL_Driver/Inc/stm32h7xx_ll_adc.h ****   * @}
1213:Drivers/STM32H7xx_HAL_Driver/Inc/stm32h7xx_ll_adc.h ****   */
1214:Drivers/STM32H7xx_HAL_Driver/Inc/stm32h7xx_ll_adc.h **** 
1215:Drivers/STM32H7xx_HAL_Driver/Inc/stm32h7xx_ll_adc.h **** /** @defgroup ADC_LL_EC_CHANNEL_SAMPLINGTIME  Channel - Sampling time
1216:Drivers/STM32H7xx_HAL_Driver/Inc/stm32h7xx_ll_adc.h ****   * @{
1217:Drivers/STM32H7xx_HAL_Driver/Inc/stm32h7xx_ll_adc.h ****   */
1218:Drivers/STM32H7xx_HAL_Driver/Inc/stm32h7xx_ll_adc.h **** #define LL_ADC_SAMPLINGTIME_1CYCLE_5       (0x00000000UL)                                          
1219:Drivers/STM32H7xx_HAL_Driver/Inc/stm32h7xx_ll_adc.h **** #define LL_ADC_SAMPLINGTIME_2CYCLES_5      (                                        ADC_SMPR2_SMP10
1220:Drivers/STM32H7xx_HAL_Driver/Inc/stm32h7xx_ll_adc.h **** #define LL_ADC_SAMPLINGTIME_8CYCLES_5      (                    ADC_SMPR2_SMP10_1                  
1221:Drivers/STM32H7xx_HAL_Driver/Inc/stm32h7xx_ll_adc.h **** #define LL_ADC_SAMPLINGTIME_16CYCLES_5     (                    ADC_SMPR2_SMP10_1 | ADC_SMPR2_SMP10
1222:Drivers/STM32H7xx_HAL_Driver/Inc/stm32h7xx_ll_adc.h **** #define LL_ADC_SAMPLINGTIME_32CYCLES_5     (ADC_SMPR2_SMP10_2                                      
1223:Drivers/STM32H7xx_HAL_Driver/Inc/stm32h7xx_ll_adc.h **** #define LL_ADC_SAMPLINGTIME_64CYCLES_5     (ADC_SMPR2_SMP10_2                     | ADC_SMPR2_SMP10
1224:Drivers/STM32H7xx_HAL_Driver/Inc/stm32h7xx_ll_adc.h **** #define LL_ADC_SAMPLINGTIME_387CYCLES_5    (ADC_SMPR2_SMP10_2 | ADC_SMPR2_SMP10_1                  
1225:Drivers/STM32H7xx_HAL_Driver/Inc/stm32h7xx_ll_adc.h **** #define LL_ADC_SAMPLINGTIME_810CYCLES_5    (ADC_SMPR2_SMP10_2 | ADC_SMPR2_SMP10_1 | ADC_SMPR2_SMP10
1226:Drivers/STM32H7xx_HAL_Driver/Inc/stm32h7xx_ll_adc.h **** /**
1227:Drivers/STM32H7xx_HAL_Driver/Inc/stm32h7xx_ll_adc.h ****   * @}
1228:Drivers/STM32H7xx_HAL_Driver/Inc/stm32h7xx_ll_adc.h ****   */
1229:Drivers/STM32H7xx_HAL_Driver/Inc/stm32h7xx_ll_adc.h **** #if defined(ADC_VER_V5_V90)
1230:Drivers/STM32H7xx_HAL_Driver/Inc/stm32h7xx_ll_adc.h **** /** @defgroup ADC_LL_EC_CHANNEL_SAMPLINGTIME  Channel - Sampling time
1231:Drivers/STM32H7xx_HAL_Driver/Inc/stm32h7xx_ll_adc.h ****   * @{
1232:Drivers/STM32H7xx_HAL_Driver/Inc/stm32h7xx_ll_adc.h ****   */
1233:Drivers/STM32H7xx_HAL_Driver/Inc/stm32h7xx_ll_adc.h **** #define LL_ADC_SAMPLINGTIME_ADC3_2CYCLES_5      (0x00000000UL)                                     
1234:Drivers/STM32H7xx_HAL_Driver/Inc/stm32h7xx_ll_adc.h **** #define LL_ADC_SAMPLINGTIME_ADC3_6CYCLES_5      (                                        ADC_SMPR2_
1235:Drivers/STM32H7xx_HAL_Driver/Inc/stm32h7xx_ll_adc.h **** #define LL_ADC_SAMPLINGTIME_ADC3_12CYCLES_5     (                    ADC_SMPR2_SMP10_1             
1236:Drivers/STM32H7xx_HAL_Driver/Inc/stm32h7xx_ll_adc.h **** #define LL_ADC_SAMPLINGTIME_ADC3_24CYCLES_5     (                    ADC_SMPR2_SMP10_1 | ADC_SMPR2_
1237:Drivers/STM32H7xx_HAL_Driver/Inc/stm32h7xx_ll_adc.h **** #define LL_ADC_SAMPLINGTIME_ADC3_47CYCLES_5     (ADC_SMPR2_SMP10_2                                 
1238:Drivers/STM32H7xx_HAL_Driver/Inc/stm32h7xx_ll_adc.h **** #define LL_ADC_SAMPLINGTIME_ADC3_92CYCLES_5     (ADC_SMPR2_SMP10_2                     | ADC_SMPR2_
1239:Drivers/STM32H7xx_HAL_Driver/Inc/stm32h7xx_ll_adc.h **** #define LL_ADC_SAMPLINGTIME_ADC3_247CYCLES_5    (ADC_SMPR2_SMP10_2 | ADC_SMPR2_SMP10_1             
1240:Drivers/STM32H7xx_HAL_Driver/Inc/stm32h7xx_ll_adc.h **** #define LL_ADC_SAMPLINGTIME_ADC3_640CYCLES_5    (ADC_SMPR2_SMP10_2 | ADC_SMPR2_SMP10_1 | ADC_SMPR2_
1241:Drivers/STM32H7xx_HAL_Driver/Inc/stm32h7xx_ll_adc.h **** /**
1242:Drivers/STM32H7xx_HAL_Driver/Inc/stm32h7xx_ll_adc.h ****   * @}
1243:Drivers/STM32H7xx_HAL_Driver/Inc/stm32h7xx_ll_adc.h ****   */
1244:Drivers/STM32H7xx_HAL_Driver/Inc/stm32h7xx_ll_adc.h **** #endif  /* ADC_VER_V5_V90 */
1245:Drivers/STM32H7xx_HAL_Driver/Inc/stm32h7xx_ll_adc.h **** 
1246:Drivers/STM32H7xx_HAL_Driver/Inc/stm32h7xx_ll_adc.h **** /** @defgroup ADC_LL_EC_CHANNEL_SINGLE_DIFF_ENDING  Channel - Single or differential ending
ARM GAS  /tmp/ccmrLUMM.s 			page 27


1247:Drivers/STM32H7xx_HAL_Driver/Inc/stm32h7xx_ll_adc.h ****   * @{
1248:Drivers/STM32H7xx_HAL_Driver/Inc/stm32h7xx_ll_adc.h ****   */
1249:Drivers/STM32H7xx_HAL_Driver/Inc/stm32h7xx_ll_adc.h **** #define LL_ADC_SINGLE_ENDED                (                  ADC_CALFACT_CALFACT_S)         /*!< A
1250:Drivers/STM32H7xx_HAL_Driver/Inc/stm32h7xx_ll_adc.h **** #define LL_ADC_DIFFERENTIAL_ENDED          (ADC_CR_ADCALDIF | ADC_CALFACT_CALFACT_D)         /*!< A
1251:Drivers/STM32H7xx_HAL_Driver/Inc/stm32h7xx_ll_adc.h **** #define LL_ADC_BOTH_SINGLE_DIFF_ENDED      (LL_ADC_SINGLE_ENDED | LL_ADC_DIFFERENTIAL_ENDED) /*!< A
1252:Drivers/STM32H7xx_HAL_Driver/Inc/stm32h7xx_ll_adc.h **** /**
1253:Drivers/STM32H7xx_HAL_Driver/Inc/stm32h7xx_ll_adc.h ****   * @}
1254:Drivers/STM32H7xx_HAL_Driver/Inc/stm32h7xx_ll_adc.h ****   */
1255:Drivers/STM32H7xx_HAL_Driver/Inc/stm32h7xx_ll_adc.h **** 
1256:Drivers/STM32H7xx_HAL_Driver/Inc/stm32h7xx_ll_adc.h **** /** @defgroup ADC_LL_EC_AWD_NUMBER Analog watchdog - Analog watchdog number
1257:Drivers/STM32H7xx_HAL_Driver/Inc/stm32h7xx_ll_adc.h ****   * @{
1258:Drivers/STM32H7xx_HAL_Driver/Inc/stm32h7xx_ll_adc.h ****   */
1259:Drivers/STM32H7xx_HAL_Driver/Inc/stm32h7xx_ll_adc.h **** #define LL_ADC_AWD1                        (ADC_AWD_CR1_CHANNEL_MASK  | ADC_AWD_CR1_REGOFFSET) /*!<
1260:Drivers/STM32H7xx_HAL_Driver/Inc/stm32h7xx_ll_adc.h **** #define LL_ADC_AWD2                        (ADC_AWD_CR23_CHANNEL_MASK | ADC_AWD_CR2_REGOFFSET) /*!<
1261:Drivers/STM32H7xx_HAL_Driver/Inc/stm32h7xx_ll_adc.h **** #define LL_ADC_AWD3                        (ADC_AWD_CR23_CHANNEL_MASK | ADC_AWD_CR3_REGOFFSET) /*!<
1262:Drivers/STM32H7xx_HAL_Driver/Inc/stm32h7xx_ll_adc.h **** /**
1263:Drivers/STM32H7xx_HAL_Driver/Inc/stm32h7xx_ll_adc.h ****   * @}
1264:Drivers/STM32H7xx_HAL_Driver/Inc/stm32h7xx_ll_adc.h ****   */
1265:Drivers/STM32H7xx_HAL_Driver/Inc/stm32h7xx_ll_adc.h **** 
1266:Drivers/STM32H7xx_HAL_Driver/Inc/stm32h7xx_ll_adc.h **** /** @defgroup ADC_LL_EC_AWD_CHANNELS  Analog watchdog - Monitored channels
1267:Drivers/STM32H7xx_HAL_Driver/Inc/stm32h7xx_ll_adc.h ****   * @{
1268:Drivers/STM32H7xx_HAL_Driver/Inc/stm32h7xx_ll_adc.h ****   */
1269:Drivers/STM32H7xx_HAL_Driver/Inc/stm32h7xx_ll_adc.h **** #define LL_ADC_AWD_DISABLE                 (0x00000000UL)                                          
1270:Drivers/STM32H7xx_HAL_Driver/Inc/stm32h7xx_ll_adc.h **** #define LL_ADC_AWD_ALL_CHANNELS_REG        (ADC_AWD_CR23_CHANNEL_MASK                              
1271:Drivers/STM32H7xx_HAL_Driver/Inc/stm32h7xx_ll_adc.h **** #define LL_ADC_AWD_ALL_CHANNELS_INJ        (ADC_AWD_CR23_CHANNEL_MASK                 | ADC_CFGR_JA
1272:Drivers/STM32H7xx_HAL_Driver/Inc/stm32h7xx_ll_adc.h **** #define LL_ADC_AWD_ALL_CHANNELS_REG_INJ    (ADC_AWD_CR23_CHANNEL_MASK                 | ADC_CFGR_JA
1273:Drivers/STM32H7xx_HAL_Driver/Inc/stm32h7xx_ll_adc.h **** #define LL_ADC_AWD_CHANNEL_0_REG           ((LL_ADC_CHANNEL_0  & ADC_CHANNEL_ID_MASK)              
1274:Drivers/STM32H7xx_HAL_Driver/Inc/stm32h7xx_ll_adc.h **** #define LL_ADC_AWD_CHANNEL_0_INJ           ((LL_ADC_CHANNEL_0  & ADC_CHANNEL_ID_MASK) | ADC_CFGR_JA
1275:Drivers/STM32H7xx_HAL_Driver/Inc/stm32h7xx_ll_adc.h **** #define LL_ADC_AWD_CHANNEL_0_REG_INJ       ((LL_ADC_CHANNEL_0  & ADC_CHANNEL_ID_MASK) | ADC_CFGR_JA
1276:Drivers/STM32H7xx_HAL_Driver/Inc/stm32h7xx_ll_adc.h **** #define LL_ADC_AWD_CHANNEL_1_REG           ((LL_ADC_CHANNEL_1  & ADC_CHANNEL_ID_MASK)              
1277:Drivers/STM32H7xx_HAL_Driver/Inc/stm32h7xx_ll_adc.h **** #define LL_ADC_AWD_CHANNEL_1_INJ           ((LL_ADC_CHANNEL_1  & ADC_CHANNEL_ID_MASK) | ADC_CFGR_JA
1278:Drivers/STM32H7xx_HAL_Driver/Inc/stm32h7xx_ll_adc.h **** #define LL_ADC_AWD_CHANNEL_1_REG_INJ       ((LL_ADC_CHANNEL_1  & ADC_CHANNEL_ID_MASK) | ADC_CFGR_JA
1279:Drivers/STM32H7xx_HAL_Driver/Inc/stm32h7xx_ll_adc.h **** #define LL_ADC_AWD_CHANNEL_2_REG           ((LL_ADC_CHANNEL_2  & ADC_CHANNEL_ID_MASK)              
1280:Drivers/STM32H7xx_HAL_Driver/Inc/stm32h7xx_ll_adc.h **** #define LL_ADC_AWD_CHANNEL_2_INJ           ((LL_ADC_CHANNEL_2  & ADC_CHANNEL_ID_MASK) | ADC_CFGR_JA
1281:Drivers/STM32H7xx_HAL_Driver/Inc/stm32h7xx_ll_adc.h **** #define LL_ADC_AWD_CHANNEL_2_REG_INJ       ((LL_ADC_CHANNEL_2  & ADC_CHANNEL_ID_MASK) | ADC_CFGR_JA
1282:Drivers/STM32H7xx_HAL_Driver/Inc/stm32h7xx_ll_adc.h **** #define LL_ADC_AWD_CHANNEL_3_REG           ((LL_ADC_CHANNEL_3  & ADC_CHANNEL_ID_MASK)              
1283:Drivers/STM32H7xx_HAL_Driver/Inc/stm32h7xx_ll_adc.h **** #define LL_ADC_AWD_CHANNEL_3_INJ           ((LL_ADC_CHANNEL_3  & ADC_CHANNEL_ID_MASK) | ADC_CFGR_JA
1284:Drivers/STM32H7xx_HAL_Driver/Inc/stm32h7xx_ll_adc.h **** #define LL_ADC_AWD_CHANNEL_3_REG_INJ       ((LL_ADC_CHANNEL_3  & ADC_CHANNEL_ID_MASK) | ADC_CFGR_JA
1285:Drivers/STM32H7xx_HAL_Driver/Inc/stm32h7xx_ll_adc.h **** #define LL_ADC_AWD_CHANNEL_4_REG           ((LL_ADC_CHANNEL_4  & ADC_CHANNEL_ID_MASK)              
1286:Drivers/STM32H7xx_HAL_Driver/Inc/stm32h7xx_ll_adc.h **** #define LL_ADC_AWD_CHANNEL_4_INJ           ((LL_ADC_CHANNEL_4  & ADC_CHANNEL_ID_MASK) | ADC_CFGR_JA
1287:Drivers/STM32H7xx_HAL_Driver/Inc/stm32h7xx_ll_adc.h **** #define LL_ADC_AWD_CHANNEL_4_REG_INJ       ((LL_ADC_CHANNEL_4  & ADC_CHANNEL_ID_MASK) | ADC_CFGR_JA
1288:Drivers/STM32H7xx_HAL_Driver/Inc/stm32h7xx_ll_adc.h **** #define LL_ADC_AWD_CHANNEL_5_REG           ((LL_ADC_CHANNEL_5  & ADC_CHANNEL_ID_MASK)              
1289:Drivers/STM32H7xx_HAL_Driver/Inc/stm32h7xx_ll_adc.h **** #define LL_ADC_AWD_CHANNEL_5_INJ           ((LL_ADC_CHANNEL_5  & ADC_CHANNEL_ID_MASK) | ADC_CFGR_JA
1290:Drivers/STM32H7xx_HAL_Driver/Inc/stm32h7xx_ll_adc.h **** #define LL_ADC_AWD_CHANNEL_5_REG_INJ       ((LL_ADC_CHANNEL_5  & ADC_CHANNEL_ID_MASK) | ADC_CFGR_JA
1291:Drivers/STM32H7xx_HAL_Driver/Inc/stm32h7xx_ll_adc.h **** #define LL_ADC_AWD_CHANNEL_6_REG           ((LL_ADC_CHANNEL_6  & ADC_CHANNEL_ID_MASK)              
1292:Drivers/STM32H7xx_HAL_Driver/Inc/stm32h7xx_ll_adc.h **** #define LL_ADC_AWD_CHANNEL_6_INJ           ((LL_ADC_CHANNEL_6  & ADC_CHANNEL_ID_MASK) | ADC_CFGR_JA
1293:Drivers/STM32H7xx_HAL_Driver/Inc/stm32h7xx_ll_adc.h **** #define LL_ADC_AWD_CHANNEL_6_REG_INJ       ((LL_ADC_CHANNEL_6  & ADC_CHANNEL_ID_MASK) | ADC_CFGR_JA
1294:Drivers/STM32H7xx_HAL_Driver/Inc/stm32h7xx_ll_adc.h **** #define LL_ADC_AWD_CHANNEL_7_REG           ((LL_ADC_CHANNEL_7  & ADC_CHANNEL_ID_MASK)              
1295:Drivers/STM32H7xx_HAL_Driver/Inc/stm32h7xx_ll_adc.h **** #define LL_ADC_AWD_CHANNEL_7_INJ           ((LL_ADC_CHANNEL_7  & ADC_CHANNEL_ID_MASK) | ADC_CFGR_JA
1296:Drivers/STM32H7xx_HAL_Driver/Inc/stm32h7xx_ll_adc.h **** #define LL_ADC_AWD_CHANNEL_7_REG_INJ       ((LL_ADC_CHANNEL_7  & ADC_CHANNEL_ID_MASK) | ADC_CFGR_JA
1297:Drivers/STM32H7xx_HAL_Driver/Inc/stm32h7xx_ll_adc.h **** #define LL_ADC_AWD_CHANNEL_8_REG           ((LL_ADC_CHANNEL_8  & ADC_CHANNEL_ID_MASK)              
1298:Drivers/STM32H7xx_HAL_Driver/Inc/stm32h7xx_ll_adc.h **** #define LL_ADC_AWD_CHANNEL_8_INJ           ((LL_ADC_CHANNEL_8  & ADC_CHANNEL_ID_MASK) | ADC_CFGR_JA
1299:Drivers/STM32H7xx_HAL_Driver/Inc/stm32h7xx_ll_adc.h **** #define LL_ADC_AWD_CHANNEL_8_REG_INJ       ((LL_ADC_CHANNEL_8  & ADC_CHANNEL_ID_MASK) | ADC_CFGR_JA
1300:Drivers/STM32H7xx_HAL_Driver/Inc/stm32h7xx_ll_adc.h **** #define LL_ADC_AWD_CHANNEL_9_REG           ((LL_ADC_CHANNEL_9  & ADC_CHANNEL_ID_MASK)              
1301:Drivers/STM32H7xx_HAL_Driver/Inc/stm32h7xx_ll_adc.h **** #define LL_ADC_AWD_CHANNEL_9_INJ           ((LL_ADC_CHANNEL_9  & ADC_CHANNEL_ID_MASK) | ADC_CFGR_JA
1302:Drivers/STM32H7xx_HAL_Driver/Inc/stm32h7xx_ll_adc.h **** #define LL_ADC_AWD_CHANNEL_9_REG_INJ       ((LL_ADC_CHANNEL_9  & ADC_CHANNEL_ID_MASK) | ADC_CFGR_JA
1303:Drivers/STM32H7xx_HAL_Driver/Inc/stm32h7xx_ll_adc.h **** #define LL_ADC_AWD_CHANNEL_10_REG          ((LL_ADC_CHANNEL_10 & ADC_CHANNEL_ID_MASK)              
ARM GAS  /tmp/ccmrLUMM.s 			page 28


1304:Drivers/STM32H7xx_HAL_Driver/Inc/stm32h7xx_ll_adc.h **** #define LL_ADC_AWD_CHANNEL_10_INJ          ((LL_ADC_CHANNEL_10 & ADC_CHANNEL_ID_MASK) | ADC_CFGR_JA
1305:Drivers/STM32H7xx_HAL_Driver/Inc/stm32h7xx_ll_adc.h **** #define LL_ADC_AWD_CHANNEL_10_REG_INJ      ((LL_ADC_CHANNEL_10 & ADC_CHANNEL_ID_MASK) | ADC_CFGR_JA
1306:Drivers/STM32H7xx_HAL_Driver/Inc/stm32h7xx_ll_adc.h **** #define LL_ADC_AWD_CHANNEL_11_REG          ((LL_ADC_CHANNEL_11 & ADC_CHANNEL_ID_MASK)              
1307:Drivers/STM32H7xx_HAL_Driver/Inc/stm32h7xx_ll_adc.h **** #define LL_ADC_AWD_CHANNEL_11_INJ          ((LL_ADC_CHANNEL_11 & ADC_CHANNEL_ID_MASK) | ADC_CFGR_JA
1308:Drivers/STM32H7xx_HAL_Driver/Inc/stm32h7xx_ll_adc.h **** #define LL_ADC_AWD_CHANNEL_11_REG_INJ      ((LL_ADC_CHANNEL_11 & ADC_CHANNEL_ID_MASK) | ADC_CFGR_JA
1309:Drivers/STM32H7xx_HAL_Driver/Inc/stm32h7xx_ll_adc.h **** #define LL_ADC_AWD_CHANNEL_12_REG          ((LL_ADC_CHANNEL_12 & ADC_CHANNEL_ID_MASK)              
1310:Drivers/STM32H7xx_HAL_Driver/Inc/stm32h7xx_ll_adc.h **** #define LL_ADC_AWD_CHANNEL_12_INJ          ((LL_ADC_CHANNEL_12 & ADC_CHANNEL_ID_MASK) | ADC_CFGR_JA
1311:Drivers/STM32H7xx_HAL_Driver/Inc/stm32h7xx_ll_adc.h **** #define LL_ADC_AWD_CHANNEL_12_REG_INJ      ((LL_ADC_CHANNEL_12 & ADC_CHANNEL_ID_MASK) | ADC_CFGR_JA
1312:Drivers/STM32H7xx_HAL_Driver/Inc/stm32h7xx_ll_adc.h **** #define LL_ADC_AWD_CHANNEL_13_REG          ((LL_ADC_CHANNEL_13 & ADC_CHANNEL_ID_MASK)              
1313:Drivers/STM32H7xx_HAL_Driver/Inc/stm32h7xx_ll_adc.h **** #define LL_ADC_AWD_CHANNEL_13_INJ          ((LL_ADC_CHANNEL_13 & ADC_CHANNEL_ID_MASK) | ADC_CFGR_JA
1314:Drivers/STM32H7xx_HAL_Driver/Inc/stm32h7xx_ll_adc.h **** #define LL_ADC_AWD_CHANNEL_13_REG_INJ      ((LL_ADC_CHANNEL_13 & ADC_CHANNEL_ID_MASK) | ADC_CFGR_JA
1315:Drivers/STM32H7xx_HAL_Driver/Inc/stm32h7xx_ll_adc.h **** #define LL_ADC_AWD_CHANNEL_14_REG          ((LL_ADC_CHANNEL_14 & ADC_CHANNEL_ID_MASK)              
1316:Drivers/STM32H7xx_HAL_Driver/Inc/stm32h7xx_ll_adc.h **** #define LL_ADC_AWD_CHANNEL_14_INJ          ((LL_ADC_CHANNEL_14 & ADC_CHANNEL_ID_MASK) | ADC_CFGR_JA
1317:Drivers/STM32H7xx_HAL_Driver/Inc/stm32h7xx_ll_adc.h **** #define LL_ADC_AWD_CHANNEL_14_REG_INJ      ((LL_ADC_CHANNEL_14 & ADC_CHANNEL_ID_MASK) | ADC_CFGR_JA
1318:Drivers/STM32H7xx_HAL_Driver/Inc/stm32h7xx_ll_adc.h **** #define LL_ADC_AWD_CHANNEL_15_REG          ((LL_ADC_CHANNEL_15 & ADC_CHANNEL_ID_MASK)              
1319:Drivers/STM32H7xx_HAL_Driver/Inc/stm32h7xx_ll_adc.h **** #define LL_ADC_AWD_CHANNEL_15_INJ          ((LL_ADC_CHANNEL_15 & ADC_CHANNEL_ID_MASK) | ADC_CFGR_JA
1320:Drivers/STM32H7xx_HAL_Driver/Inc/stm32h7xx_ll_adc.h **** #define LL_ADC_AWD_CHANNEL_15_REG_INJ      ((LL_ADC_CHANNEL_15 & ADC_CHANNEL_ID_MASK) | ADC_CFGR_JA
1321:Drivers/STM32H7xx_HAL_Driver/Inc/stm32h7xx_ll_adc.h **** #define LL_ADC_AWD_CHANNEL_16_REG          ((LL_ADC_CHANNEL_16 & ADC_CHANNEL_ID_MASK)              
1322:Drivers/STM32H7xx_HAL_Driver/Inc/stm32h7xx_ll_adc.h **** #define LL_ADC_AWD_CHANNEL_16_INJ          ((LL_ADC_CHANNEL_16 & ADC_CHANNEL_ID_MASK) | ADC_CFGR_JA
1323:Drivers/STM32H7xx_HAL_Driver/Inc/stm32h7xx_ll_adc.h **** #define LL_ADC_AWD_CHANNEL_16_REG_INJ      ((LL_ADC_CHANNEL_16 & ADC_CHANNEL_ID_MASK) | ADC_CFGR_JA
1324:Drivers/STM32H7xx_HAL_Driver/Inc/stm32h7xx_ll_adc.h **** #define LL_ADC_AWD_CHANNEL_17_REG          ((LL_ADC_CHANNEL_17 & ADC_CHANNEL_ID_MASK)              
1325:Drivers/STM32H7xx_HAL_Driver/Inc/stm32h7xx_ll_adc.h **** #define LL_ADC_AWD_CHANNEL_17_INJ          ((LL_ADC_CHANNEL_17 & ADC_CHANNEL_ID_MASK) | ADC_CFGR_JA
1326:Drivers/STM32H7xx_HAL_Driver/Inc/stm32h7xx_ll_adc.h **** #define LL_ADC_AWD_CHANNEL_17_REG_INJ      ((LL_ADC_CHANNEL_17 & ADC_CHANNEL_ID_MASK) | ADC_CFGR_JA
1327:Drivers/STM32H7xx_HAL_Driver/Inc/stm32h7xx_ll_adc.h **** #define LL_ADC_AWD_CHANNEL_18_REG          ((LL_ADC_CHANNEL_18 & ADC_CHANNEL_ID_MASK)              
1328:Drivers/STM32H7xx_HAL_Driver/Inc/stm32h7xx_ll_adc.h **** #define LL_ADC_AWD_CHANNEL_18_INJ          ((LL_ADC_CHANNEL_18 & ADC_CHANNEL_ID_MASK) | ADC_CFGR_JA
1329:Drivers/STM32H7xx_HAL_Driver/Inc/stm32h7xx_ll_adc.h **** #define LL_ADC_AWD_CHANNEL_18_REG_INJ      ((LL_ADC_CHANNEL_18 & ADC_CHANNEL_ID_MASK) | ADC_CFGR_JA
1330:Drivers/STM32H7xx_HAL_Driver/Inc/stm32h7xx_ll_adc.h **** #define LL_ADC_AWD_CHANNEL_19_REG          ((LL_ADC_CHANNEL_19 & ADC_CHANNEL_ID_MASK)              
1331:Drivers/STM32H7xx_HAL_Driver/Inc/stm32h7xx_ll_adc.h **** #define LL_ADC_AWD_CHANNEL_19_INJ          ((LL_ADC_CHANNEL_19 & ADC_CHANNEL_ID_MASK) | ADC_CFGR_JA
1332:Drivers/STM32H7xx_HAL_Driver/Inc/stm32h7xx_ll_adc.h **** #define LL_ADC_AWD_CHANNEL_19_REG_INJ      ((LL_ADC_CHANNEL_19 & ADC_CHANNEL_ID_MASK) | ADC_CFGR_JA
1333:Drivers/STM32H7xx_HAL_Driver/Inc/stm32h7xx_ll_adc.h **** #define LL_ADC_AWD_CH_VREFINT_REG          ((LL_ADC_CHANNEL_VREFINT       & ADC_CHANNEL_ID_MASK)   
1334:Drivers/STM32H7xx_HAL_Driver/Inc/stm32h7xx_ll_adc.h **** #define LL_ADC_AWD_CH_VREFINT_INJ          ((LL_ADC_CHANNEL_VREFINT       & ADC_CHANNEL_ID_MASK) | 
1335:Drivers/STM32H7xx_HAL_Driver/Inc/stm32h7xx_ll_adc.h **** #define LL_ADC_AWD_CH_VREFINT_REG_INJ      ((LL_ADC_CHANNEL_VREFINT       & ADC_CHANNEL_ID_MASK) | 
1336:Drivers/STM32H7xx_HAL_Driver/Inc/stm32h7xx_ll_adc.h **** #define LL_ADC_AWD_CH_TEMPSENSOR_REG       ((LL_ADC_CHANNEL_TEMPSENSOR    & ADC_CHANNEL_ID_MASK)   
1337:Drivers/STM32H7xx_HAL_Driver/Inc/stm32h7xx_ll_adc.h **** #define LL_ADC_AWD_CH_TEMPSENSOR_INJ       ((LL_ADC_CHANNEL_TEMPSENSOR    & ADC_CHANNEL_ID_MASK) | 
1338:Drivers/STM32H7xx_HAL_Driver/Inc/stm32h7xx_ll_adc.h **** #define LL_ADC_AWD_CH_TEMPSENSOR_REG_INJ   ((LL_ADC_CHANNEL_TEMPSENSOR    & ADC_CHANNEL_ID_MASK) | 
1339:Drivers/STM32H7xx_HAL_Driver/Inc/stm32h7xx_ll_adc.h **** #define LL_ADC_AWD_CH_VBAT_REG             ((LL_ADC_CHANNEL_VBAT          & ADC_CHANNEL_ID_MASK)   
1340:Drivers/STM32H7xx_HAL_Driver/Inc/stm32h7xx_ll_adc.h **** #define LL_ADC_AWD_CH_VBAT_INJ             ((LL_ADC_CHANNEL_VBAT          & ADC_CHANNEL_ID_MASK) | 
1341:Drivers/STM32H7xx_HAL_Driver/Inc/stm32h7xx_ll_adc.h **** #define LL_ADC_AWD_CH_VBAT_REG_INJ         ((LL_ADC_CHANNEL_VBAT          & ADC_CHANNEL_ID_MASK) | 
1342:Drivers/STM32H7xx_HAL_Driver/Inc/stm32h7xx_ll_adc.h **** #define LL_ADC_AWD_CH_DAC1CH1_ADC2_REG     ((LL_ADC_CHANNEL_DAC1CH1_ADC2  & ADC_CHANNEL_ID_MASK)   
1343:Drivers/STM32H7xx_HAL_Driver/Inc/stm32h7xx_ll_adc.h **** #define LL_ADC_AWD_CH_DAC1CH1_ADC2_INJ     ((LL_ADC_CHANNEL_DAC1CH1_ADC2  & ADC_CHANNEL_ID_MASK) | 
1344:Drivers/STM32H7xx_HAL_Driver/Inc/stm32h7xx_ll_adc.h **** #define LL_ADC_AWD_CH_DAC1CH1_ADC2_REG_INJ ((LL_ADC_CHANNEL_DAC1CH1_ADC2  & ADC_CHANNEL_ID_MASK) | 
1345:Drivers/STM32H7xx_HAL_Driver/Inc/stm32h7xx_ll_adc.h **** #define LL_ADC_AWD_CH_DAC1CH2_ADC2_REG     ((LL_ADC_CHANNEL_DAC1CH2_ADC2  & ADC_CHANNEL_ID_MASK)   
1346:Drivers/STM32H7xx_HAL_Driver/Inc/stm32h7xx_ll_adc.h **** #define LL_ADC_AWD_CH_DAC1CH2_ADC2_INJ     ((LL_ADC_CHANNEL_DAC1CH2_ADC2  & ADC_CHANNEL_ID_MASK) | 
1347:Drivers/STM32H7xx_HAL_Driver/Inc/stm32h7xx_ll_adc.h **** #define LL_ADC_AWD_CH_DAC1CH2_ADC2_REG_INJ ((LL_ADC_CHANNEL_DAC1CH2_ADC2  & ADC_CHANNEL_ID_MASK) | 
1348:Drivers/STM32H7xx_HAL_Driver/Inc/stm32h7xx_ll_adc.h **** /**
1349:Drivers/STM32H7xx_HAL_Driver/Inc/stm32h7xx_ll_adc.h ****   * @}
1350:Drivers/STM32H7xx_HAL_Driver/Inc/stm32h7xx_ll_adc.h ****   */
1351:Drivers/STM32H7xx_HAL_Driver/Inc/stm32h7xx_ll_adc.h **** 
1352:Drivers/STM32H7xx_HAL_Driver/Inc/stm32h7xx_ll_adc.h **** /** @defgroup ADC_LL_EC_AWD_THRESHOLDS  Analog watchdog - Thresholds
1353:Drivers/STM32H7xx_HAL_Driver/Inc/stm32h7xx_ll_adc.h ****   * @{
1354:Drivers/STM32H7xx_HAL_Driver/Inc/stm32h7xx_ll_adc.h ****   */
1355:Drivers/STM32H7xx_HAL_Driver/Inc/stm32h7xx_ll_adc.h **** #define LL_ADC_AWD_THRESHOLD_HIGH          (0x1UL)                     /*!< ADC analog watchdog thr
1356:Drivers/STM32H7xx_HAL_Driver/Inc/stm32h7xx_ll_adc.h **** #define LL_ADC_AWD_THRESHOLD_LOW           (0x0UL)                     /*!< ADC analog watchdog thr
1357:Drivers/STM32H7xx_HAL_Driver/Inc/stm32h7xx_ll_adc.h **** /**
1358:Drivers/STM32H7xx_HAL_Driver/Inc/stm32h7xx_ll_adc.h ****   * @}
1359:Drivers/STM32H7xx_HAL_Driver/Inc/stm32h7xx_ll_adc.h ****   */
1360:Drivers/STM32H7xx_HAL_Driver/Inc/stm32h7xx_ll_adc.h **** #if defined(ADC_VER_V5_V90)
ARM GAS  /tmp/ccmrLUMM.s 			page 29


1361:Drivers/STM32H7xx_HAL_Driver/Inc/stm32h7xx_ll_adc.h **** /** @defgroup ADC_LL_EC_AWD_FILTERING_CONFIG  Analog watchdog - filtering config
1362:Drivers/STM32H7xx_HAL_Driver/Inc/stm32h7xx_ll_adc.h ****   * @{
1363:Drivers/STM32H7xx_HAL_Driver/Inc/stm32h7xx_ll_adc.h ****   */
1364:Drivers/STM32H7xx_HAL_Driver/Inc/stm32h7xx_ll_adc.h **** #define LL_ADC_AWD_FILTERING_NONE          (0x00000000UL)                                          
1365:Drivers/STM32H7xx_HAL_Driver/Inc/stm32h7xx_ll_adc.h **** #define LL_ADC_AWD_FILTERING_2SAMPLES      (                                          ADC3_TR1_AWDF
1366:Drivers/STM32H7xx_HAL_Driver/Inc/stm32h7xx_ll_adc.h **** #define LL_ADC_AWD_FILTERING_3SAMPLES      (                     ADC3_TR1_AWDFILT_1                
1367:Drivers/STM32H7xx_HAL_Driver/Inc/stm32h7xx_ll_adc.h **** #define LL_ADC_AWD_FILTERING_4SAMPLES      (                     ADC3_TR1_AWDFILT_1 | ADC3_TR1_AWDF
1368:Drivers/STM32H7xx_HAL_Driver/Inc/stm32h7xx_ll_adc.h **** #define LL_ADC_AWD_FILTERING_5SAMPLES      (ADC3_TR1_AWDFILT_2                                     
1369:Drivers/STM32H7xx_HAL_Driver/Inc/stm32h7xx_ll_adc.h **** #define LL_ADC_AWD_FILTERING_6SAMPLES      (ADC3_TR1_AWDFILT_2 |                      ADC3_TR1_AWDF
1370:Drivers/STM32H7xx_HAL_Driver/Inc/stm32h7xx_ll_adc.h **** #define LL_ADC_AWD_FILTERING_7SAMPLES      (ADC3_TR1_AWDFILT_2 | ADC3_TR1_AWDFILT_1                
1371:Drivers/STM32H7xx_HAL_Driver/Inc/stm32h7xx_ll_adc.h **** #define LL_ADC_AWD_FILTERING_8SAMPLES      (ADC3_TR1_AWDFILT_2 | ADC3_TR1_AWDFILT_1 | ADC3_TR1_AWDF
1372:Drivers/STM32H7xx_HAL_Driver/Inc/stm32h7xx_ll_adc.h **** /**
1373:Drivers/STM32H7xx_HAL_Driver/Inc/stm32h7xx_ll_adc.h ****   * @}
1374:Drivers/STM32H7xx_HAL_Driver/Inc/stm32h7xx_ll_adc.h ****   */
1375:Drivers/STM32H7xx_HAL_Driver/Inc/stm32h7xx_ll_adc.h **** #endif /* ADC_VER_V5_V90 */
1376:Drivers/STM32H7xx_HAL_Driver/Inc/stm32h7xx_ll_adc.h **** 
1377:Drivers/STM32H7xx_HAL_Driver/Inc/stm32h7xx_ll_adc.h **** /** @defgroup ADC_LL_EC_OVS_SCOPE  Oversampling - Oversampling scope
1378:Drivers/STM32H7xx_HAL_Driver/Inc/stm32h7xx_ll_adc.h ****   * @{
1379:Drivers/STM32H7xx_HAL_Driver/Inc/stm32h7xx_ll_adc.h ****   */
1380:Drivers/STM32H7xx_HAL_Driver/Inc/stm32h7xx_ll_adc.h **** #define LL_ADC_OVS_DISABLE                 (0x00000000UL)                                        /*
1381:Drivers/STM32H7xx_HAL_Driver/Inc/stm32h7xx_ll_adc.h **** #define LL_ADC_OVS_GRP_REGULAR_CONTINUED   (                                    ADC_CFGR2_ROVSE) /*
1382:Drivers/STM32H7xx_HAL_Driver/Inc/stm32h7xx_ll_adc.h **** #define LL_ADC_OVS_GRP_REGULAR_RESUMED     (ADC_CFGR2_ROVSM |                   ADC_CFGR2_ROVSE) /*
1383:Drivers/STM32H7xx_HAL_Driver/Inc/stm32h7xx_ll_adc.h **** #define LL_ADC_OVS_GRP_INJECTED            (                  ADC_CFGR2_JOVSE                  ) /*
1384:Drivers/STM32H7xx_HAL_Driver/Inc/stm32h7xx_ll_adc.h **** #define LL_ADC_OVS_GRP_INJ_REG_RESUMED     (                  ADC_CFGR2_JOVSE | ADC_CFGR2_ROVSE) /*
1385:Drivers/STM32H7xx_HAL_Driver/Inc/stm32h7xx_ll_adc.h **** /**
1386:Drivers/STM32H7xx_HAL_Driver/Inc/stm32h7xx_ll_adc.h ****   * @}
1387:Drivers/STM32H7xx_HAL_Driver/Inc/stm32h7xx_ll_adc.h ****   */
1388:Drivers/STM32H7xx_HAL_Driver/Inc/stm32h7xx_ll_adc.h **** 
1389:Drivers/STM32H7xx_HAL_Driver/Inc/stm32h7xx_ll_adc.h **** /** @defgroup ADC_LL_EC_OVS_DISCONT_MODE  Oversampling - Discontinuous mode
1390:Drivers/STM32H7xx_HAL_Driver/Inc/stm32h7xx_ll_adc.h ****   * @{
1391:Drivers/STM32H7xx_HAL_Driver/Inc/stm32h7xx_ll_adc.h ****   */
1392:Drivers/STM32H7xx_HAL_Driver/Inc/stm32h7xx_ll_adc.h **** #define LL_ADC_OVS_REG_CONT                (0x00000000UL)         /*!< ADC oversampling discontinuo
1393:Drivers/STM32H7xx_HAL_Driver/Inc/stm32h7xx_ll_adc.h **** #define LL_ADC_OVS_REG_DISCONT             (ADC_CFGR2_TROVS)      /*!< ADC oversampling discontinuo
1394:Drivers/STM32H7xx_HAL_Driver/Inc/stm32h7xx_ll_adc.h **** /**
1395:Drivers/STM32H7xx_HAL_Driver/Inc/stm32h7xx_ll_adc.h ****   * @}
1396:Drivers/STM32H7xx_HAL_Driver/Inc/stm32h7xx_ll_adc.h ****   */
1397:Drivers/STM32H7xx_HAL_Driver/Inc/stm32h7xx_ll_adc.h **** #if defined(ADC_VER_V5_V90)
1398:Drivers/STM32H7xx_HAL_Driver/Inc/stm32h7xx_ll_adc.h **** /** @defgroup ADC_LL_EC_OVS_RATIO  Oversampling - Ratio
1399:Drivers/STM32H7xx_HAL_Driver/Inc/stm32h7xx_ll_adc.h ****   * @{
1400:Drivers/STM32H7xx_HAL_Driver/Inc/stm32h7xx_ll_adc.h ****   */
1401:Drivers/STM32H7xx_HAL_Driver/Inc/stm32h7xx_ll_adc.h **** #define LL_ADC_OVS_RATIO_2                 (0x00000000UL)                                          
1402:Drivers/STM32H7xx_HAL_Driver/Inc/stm32h7xx_ll_adc.h **** #define LL_ADC_OVS_RATIO_4                 (                                        ADC3_CFGR2_OVSR
1403:Drivers/STM32H7xx_HAL_Driver/Inc/stm32h7xx_ll_adc.h **** #define LL_ADC_OVS_RATIO_8                 (                    ADC3_CFGR2_OVSR_1                  
1404:Drivers/STM32H7xx_HAL_Driver/Inc/stm32h7xx_ll_adc.h **** #define LL_ADC_OVS_RATIO_16                (                    ADC3_CFGR2_OVSR_1 | ADC3_CFGR2_OVSR
1405:Drivers/STM32H7xx_HAL_Driver/Inc/stm32h7xx_ll_adc.h **** #define LL_ADC_OVS_RATIO_32                (ADC3_CFGR2_OVSR_2                                      
1406:Drivers/STM32H7xx_HAL_Driver/Inc/stm32h7xx_ll_adc.h **** #define LL_ADC_OVS_RATIO_64                (ADC3_CFGR2_OVSR_2                     | ADC3_CFGR2_OVSR
1407:Drivers/STM32H7xx_HAL_Driver/Inc/stm32h7xx_ll_adc.h **** #define LL_ADC_OVS_RATIO_128               (ADC3_CFGR2_OVSR_2 | ADC3_CFGR2_OVSR_1                  
1408:Drivers/STM32H7xx_HAL_Driver/Inc/stm32h7xx_ll_adc.h **** #define LL_ADC_OVS_RATIO_256               (ADC3_CFGR2_OVSR_2 | ADC3_CFGR2_OVSR_1 | ADC3_CFGR2_OVSR
1409:Drivers/STM32H7xx_HAL_Driver/Inc/stm32h7xx_ll_adc.h **** /**
1410:Drivers/STM32H7xx_HAL_Driver/Inc/stm32h7xx_ll_adc.h ****   * @}
1411:Drivers/STM32H7xx_HAL_Driver/Inc/stm32h7xx_ll_adc.h ****   */
1412:Drivers/STM32H7xx_HAL_Driver/Inc/stm32h7xx_ll_adc.h **** #endif  /* ADC_VER_V5_V90 */
1413:Drivers/STM32H7xx_HAL_Driver/Inc/stm32h7xx_ll_adc.h **** 
1414:Drivers/STM32H7xx_HAL_Driver/Inc/stm32h7xx_ll_adc.h **** /** @defgroup ADC_LL_EC_OVS_SHIFT  Oversampling - Data shift
1415:Drivers/STM32H7xx_HAL_Driver/Inc/stm32h7xx_ll_adc.h ****   * @{
1416:Drivers/STM32H7xx_HAL_Driver/Inc/stm32h7xx_ll_adc.h ****   */
1417:Drivers/STM32H7xx_HAL_Driver/Inc/stm32h7xx_ll_adc.h **** #define LL_ADC_OVS_SHIFT_NONE              (0x00000000UL)                                          
ARM GAS  /tmp/ccmrLUMM.s 			page 30


1418:Drivers/STM32H7xx_HAL_Driver/Inc/stm32h7xx_ll_adc.h **** #define LL_ADC_OVS_SHIFT_RIGHT_1           (                                                       
1419:Drivers/STM32H7xx_HAL_Driver/Inc/stm32h7xx_ll_adc.h **** #define LL_ADC_OVS_SHIFT_RIGHT_2           (                                      ADC_CFGR2_OVSS_1 
1420:Drivers/STM32H7xx_HAL_Driver/Inc/stm32h7xx_ll_adc.h **** #define LL_ADC_OVS_SHIFT_RIGHT_3           (                                      ADC_CFGR2_OVSS_1 
1421:Drivers/STM32H7xx_HAL_Driver/Inc/stm32h7xx_ll_adc.h **** #define LL_ADC_OVS_SHIFT_RIGHT_4           (                   ADC_CFGR2_OVSS_2                    
1422:Drivers/STM32H7xx_HAL_Driver/Inc/stm32h7xx_ll_adc.h **** #define LL_ADC_OVS_SHIFT_RIGHT_5           (                   ADC_CFGR2_OVSS_2                    
1423:Drivers/STM32H7xx_HAL_Driver/Inc/stm32h7xx_ll_adc.h **** #define LL_ADC_OVS_SHIFT_RIGHT_6           (                   ADC_CFGR2_OVSS_2 | ADC_CFGR2_OVSS_1 
1424:Drivers/STM32H7xx_HAL_Driver/Inc/stm32h7xx_ll_adc.h **** #define LL_ADC_OVS_SHIFT_RIGHT_7           (                   ADC_CFGR2_OVSS_2 | ADC_CFGR2_OVSS_1 
1425:Drivers/STM32H7xx_HAL_Driver/Inc/stm32h7xx_ll_adc.h **** #define LL_ADC_OVS_SHIFT_RIGHT_8           (ADC_CFGR2_OVSS_3                                       
1426:Drivers/STM32H7xx_HAL_Driver/Inc/stm32h7xx_ll_adc.h **** #define LL_ADC_OVS_SHIFT_RIGHT_9           (ADC_CFGR2_OVSS_3                                       
1427:Drivers/STM32H7xx_HAL_Driver/Inc/stm32h7xx_ll_adc.h **** #define LL_ADC_OVS_SHIFT_RIGHT_10          (ADC_CFGR2_OVSS_3                    | ADC_CFGR2_OVSS_1 
1428:Drivers/STM32H7xx_HAL_Driver/Inc/stm32h7xx_ll_adc.h **** #define LL_ADC_OVS_SHIFT_RIGHT_11          (ADC_CFGR2_OVSS_3                    | ADC_CFGR2_OVSS_1 
1429:Drivers/STM32H7xx_HAL_Driver/Inc/stm32h7xx_ll_adc.h **** /**
1430:Drivers/STM32H7xx_HAL_Driver/Inc/stm32h7xx_ll_adc.h ****   * @}
1431:Drivers/STM32H7xx_HAL_Driver/Inc/stm32h7xx_ll_adc.h ****   */
1432:Drivers/STM32H7xx_HAL_Driver/Inc/stm32h7xx_ll_adc.h **** 
1433:Drivers/STM32H7xx_HAL_Driver/Inc/stm32h7xx_ll_adc.h **** /** @defgroup ADC_LL_EC_MULTI_MODE  Multimode - Mode
1434:Drivers/STM32H7xx_HAL_Driver/Inc/stm32h7xx_ll_adc.h ****   * @{
1435:Drivers/STM32H7xx_HAL_Driver/Inc/stm32h7xx_ll_adc.h ****   */
1436:Drivers/STM32H7xx_HAL_Driver/Inc/stm32h7xx_ll_adc.h **** #define LL_ADC_MULTI_INDEPENDENT           (0x00000000UL)                                          
1437:Drivers/STM32H7xx_HAL_Driver/Inc/stm32h7xx_ll_adc.h **** #define LL_ADC_MULTI_DUAL_REG_SIMULT       (                 ADC_CCR_DUAL_2 | ADC_CCR_DUAL_1       
1438:Drivers/STM32H7xx_HAL_Driver/Inc/stm32h7xx_ll_adc.h **** #define LL_ADC_MULTI_DUAL_REG_INTERL       (                 ADC_CCR_DUAL_2 | ADC_CCR_DUAL_1 | ADC_
1439:Drivers/STM32H7xx_HAL_Driver/Inc/stm32h7xx_ll_adc.h **** #define LL_ADC_MULTI_DUAL_INJ_SIMULT       (                 ADC_CCR_DUAL_2                  | ADC_
1440:Drivers/STM32H7xx_HAL_Driver/Inc/stm32h7xx_ll_adc.h **** #define LL_ADC_MULTI_DUAL_INJ_ALTERN       (ADC_CCR_DUAL_3                                   | ADC_
1441:Drivers/STM32H7xx_HAL_Driver/Inc/stm32h7xx_ll_adc.h **** #define LL_ADC_MULTI_DUAL_REG_SIM_INJ_SIM  (                                                   ADC_
1442:Drivers/STM32H7xx_HAL_Driver/Inc/stm32h7xx_ll_adc.h **** #define LL_ADC_MULTI_DUAL_REG_SIM_INJ_ALT  (                                  ADC_CCR_DUAL_1       
1443:Drivers/STM32H7xx_HAL_Driver/Inc/stm32h7xx_ll_adc.h **** #define LL_ADC_MULTI_DUAL_REG_INT_INJ_SIM  (                                  ADC_CCR_DUAL_1 | ADC_
1444:Drivers/STM32H7xx_HAL_Driver/Inc/stm32h7xx_ll_adc.h **** /**
1445:Drivers/STM32H7xx_HAL_Driver/Inc/stm32h7xx_ll_adc.h ****   * @}
1446:Drivers/STM32H7xx_HAL_Driver/Inc/stm32h7xx_ll_adc.h ****   */
1447:Drivers/STM32H7xx_HAL_Driver/Inc/stm32h7xx_ll_adc.h **** 
1448:Drivers/STM32H7xx_HAL_Driver/Inc/stm32h7xx_ll_adc.h **** /** @defgroup ADC_LL_EC_MULTI_DMA_TRANSFER  Multimode - DMA transfer
1449:Drivers/STM32H7xx_HAL_Driver/Inc/stm32h7xx_ll_adc.h ****   * @{
1450:Drivers/STM32H7xx_HAL_Driver/Inc/stm32h7xx_ll_adc.h ****   */
1451:Drivers/STM32H7xx_HAL_Driver/Inc/stm32h7xx_ll_adc.h **** #define LL_ADC_MULTI_REG_DMA_EACH_ADC        (0x00000000UL)                      /*!< ADC multimode
1452:Drivers/STM32H7xx_HAL_Driver/Inc/stm32h7xx_ll_adc.h **** #define LL_ADC_MULTI_REG_DMA_RES_32_10B      (ADC_CCR_DAMDF_1                  ) /*!< ADC multimode
1453:Drivers/STM32H7xx_HAL_Driver/Inc/stm32h7xx_ll_adc.h **** #define LL_ADC_MULTI_REG_DMA_RES_8B          (ADC_CCR_DAMDF_1 | ADC_CCR_DAMDF_0) /*!< ADC multimode
1454:Drivers/STM32H7xx_HAL_Driver/Inc/stm32h7xx_ll_adc.h **** /**
1455:Drivers/STM32H7xx_HAL_Driver/Inc/stm32h7xx_ll_adc.h ****   * @}
1456:Drivers/STM32H7xx_HAL_Driver/Inc/stm32h7xx_ll_adc.h ****   */
1457:Drivers/STM32H7xx_HAL_Driver/Inc/stm32h7xx_ll_adc.h **** 
1458:Drivers/STM32H7xx_HAL_Driver/Inc/stm32h7xx_ll_adc.h **** /** @defgroup ADC_LL_EC_MULTI_TWOSMP_DELAY  Multimode - Delay between two sampling phases
1459:Drivers/STM32H7xx_HAL_Driver/Inc/stm32h7xx_ll_adc.h ****   * @{
1460:Drivers/STM32H7xx_HAL_Driver/Inc/stm32h7xx_ll_adc.h ****   */
1461:Drivers/STM32H7xx_HAL_Driver/Inc/stm32h7xx_ll_adc.h **** #define LL_ADC_MULTI_TWOSMP_DELAY_1CYCLE_5           (0x00000000UL)                                
1462:Drivers/STM32H7xx_HAL_Driver/Inc/stm32h7xx_ll_adc.h **** #define LL_ADC_MULTI_TWOSMP_DELAY_2CYCLES_5          (                                             
1463:Drivers/STM32H7xx_HAL_Driver/Inc/stm32h7xx_ll_adc.h **** #define LL_ADC_MULTI_TWOSMP_DELAY_3CYCLES_5          (                                    ADC_CCR_D
1464:Drivers/STM32H7xx_HAL_Driver/Inc/stm32h7xx_ll_adc.h **** #define LL_ADC_MULTI_TWOSMP_DELAY_4CYCLES_5          (                                    ADC_CCR_D
1465:Drivers/STM32H7xx_HAL_Driver/Inc/stm32h7xx_ll_adc.h **** #define LL_ADC_MULTI_TWOSMP_DELAY_4CYCLES_5_8_BITS   (                  ADC_CCR_DELAY_2 | ADC_CCR_D
1466:Drivers/STM32H7xx_HAL_Driver/Inc/stm32h7xx_ll_adc.h **** #define LL_ADC_MULTI_TWOSMP_DELAY_5CYCLES_5          (                  ADC_CCR_DELAY_2            
1467:Drivers/STM32H7xx_HAL_Driver/Inc/stm32h7xx_ll_adc.h **** #define LL_ADC_MULTI_TWOSMP_DELAY_5CYCLES_5_10_BITS  (                  ADC_CCR_DELAY_2 | ADC_CCR_D
1468:Drivers/STM32H7xx_HAL_Driver/Inc/stm32h7xx_ll_adc.h **** #define LL_ADC_MULTI_TWOSMP_DELAY_6CYCLES            (ADC_CCR_DELAY_3                              
1469:Drivers/STM32H7xx_HAL_Driver/Inc/stm32h7xx_ll_adc.h **** #define LL_ADC_MULTI_TWOSMP_DELAY_6CYCLES_5          (                  ADC_CCR_DELAY_2            
1470:Drivers/STM32H7xx_HAL_Driver/Inc/stm32h7xx_ll_adc.h **** #define LL_ADC_MULTI_TWOSMP_DELAY_6CYCLES_5_12_BITS  (                  ADC_CCR_DELAY_2 | ADC_CCR_D
1471:Drivers/STM32H7xx_HAL_Driver/Inc/stm32h7xx_ll_adc.h **** #define LL_ADC_MULTI_TWOSMP_DELAY_7CYCLES_5          (                  ADC_CCR_DELAY_2 | ADC_CCR_D
1472:Drivers/STM32H7xx_HAL_Driver/Inc/stm32h7xx_ll_adc.h **** #define LL_ADC_MULTI_TWOSMP_DELAY_8CYCLES            (ADC_CCR_DELAY_3                              
1473:Drivers/STM32H7xx_HAL_Driver/Inc/stm32h7xx_ll_adc.h **** #define LL_ADC_MULTI_TWOSMP_DELAY_9CYCLES            (ADC_CCR_DELAY_3                              
1474:Drivers/STM32H7xx_HAL_Driver/Inc/stm32h7xx_ll_adc.h **** /**
ARM GAS  /tmp/ccmrLUMM.s 			page 31


1475:Drivers/STM32H7xx_HAL_Driver/Inc/stm32h7xx_ll_adc.h ****   * @}
1476:Drivers/STM32H7xx_HAL_Driver/Inc/stm32h7xx_ll_adc.h ****   */
1477:Drivers/STM32H7xx_HAL_Driver/Inc/stm32h7xx_ll_adc.h **** 
1478:Drivers/STM32H7xx_HAL_Driver/Inc/stm32h7xx_ll_adc.h **** /** @defgroup ADC_LL_EC_MULTI_MASTER_SLAVE  Multimode - ADC master or slave
1479:Drivers/STM32H7xx_HAL_Driver/Inc/stm32h7xx_ll_adc.h ****   * @{
1480:Drivers/STM32H7xx_HAL_Driver/Inc/stm32h7xx_ll_adc.h ****   */
1481:Drivers/STM32H7xx_HAL_Driver/Inc/stm32h7xx_ll_adc.h **** #define LL_ADC_MULTI_MASTER                (                    ADC_CDR_RDATA_MST) /*!< In multimod
1482:Drivers/STM32H7xx_HAL_Driver/Inc/stm32h7xx_ll_adc.h **** #define LL_ADC_MULTI_SLAVE                 (ADC_CDR_RDATA_SLV                    ) /*!< In multimod
1483:Drivers/STM32H7xx_HAL_Driver/Inc/stm32h7xx_ll_adc.h **** #define LL_ADC_MULTI_MASTER_SLAVE          (ADC_CDR_RDATA_SLV | ADC_CDR_RDATA_MST) /*!< In multimod
1484:Drivers/STM32H7xx_HAL_Driver/Inc/stm32h7xx_ll_adc.h **** /**
1485:Drivers/STM32H7xx_HAL_Driver/Inc/stm32h7xx_ll_adc.h ****   * @}
1486:Drivers/STM32H7xx_HAL_Driver/Inc/stm32h7xx_ll_adc.h ****   */
1487:Drivers/STM32H7xx_HAL_Driver/Inc/stm32h7xx_ll_adc.h **** 
1488:Drivers/STM32H7xx_HAL_Driver/Inc/stm32h7xx_ll_adc.h **** 
1489:Drivers/STM32H7xx_HAL_Driver/Inc/stm32h7xx_ll_adc.h **** 
1490:Drivers/STM32H7xx_HAL_Driver/Inc/stm32h7xx_ll_adc.h **** /** @defgroup ADC_LL_EC_HW_DELAYS  Definitions of ADC hardware constraints delays
1491:Drivers/STM32H7xx_HAL_Driver/Inc/stm32h7xx_ll_adc.h ****   * @note   Only ADC peripheral HW delays are defined in ADC LL driver driver,
1492:Drivers/STM32H7xx_HAL_Driver/Inc/stm32h7xx_ll_adc.h ****   *         not timeout values.
1493:Drivers/STM32H7xx_HAL_Driver/Inc/stm32h7xx_ll_adc.h ****   *         For details on delays values, refer to descriptions in source code
1494:Drivers/STM32H7xx_HAL_Driver/Inc/stm32h7xx_ll_adc.h ****   *         above each literal definition.
1495:Drivers/STM32H7xx_HAL_Driver/Inc/stm32h7xx_ll_adc.h ****   * @{
1496:Drivers/STM32H7xx_HAL_Driver/Inc/stm32h7xx_ll_adc.h ****   */
1497:Drivers/STM32H7xx_HAL_Driver/Inc/stm32h7xx_ll_adc.h **** 
1498:Drivers/STM32H7xx_HAL_Driver/Inc/stm32h7xx_ll_adc.h **** /* Note: Only ADC peripheral HW delays are defined in ADC LL driver driver,   */
1499:Drivers/STM32H7xx_HAL_Driver/Inc/stm32h7xx_ll_adc.h **** /*       not timeout values.                                                  */
1500:Drivers/STM32H7xx_HAL_Driver/Inc/stm32h7xx_ll_adc.h **** /*       Timeout values for ADC operations are dependent to device clock      */
1501:Drivers/STM32H7xx_HAL_Driver/Inc/stm32h7xx_ll_adc.h **** /*       configuration (system clock versus ADC clock),                       */
1502:Drivers/STM32H7xx_HAL_Driver/Inc/stm32h7xx_ll_adc.h **** /*       and therefore must be defined in user application.                   */
1503:Drivers/STM32H7xx_HAL_Driver/Inc/stm32h7xx_ll_adc.h **** /*       Indications for estimation of ADC timeout delays, for this           */
1504:Drivers/STM32H7xx_HAL_Driver/Inc/stm32h7xx_ll_adc.h **** /*       STM32 serie:                                                         */
1505:Drivers/STM32H7xx_HAL_Driver/Inc/stm32h7xx_ll_adc.h **** /*       - ADC calibration time: maximum delay is 16384/fADC.                   */
1506:Drivers/STM32H7xx_HAL_Driver/Inc/stm32h7xx_ll_adc.h **** /*         (refer to device datasheet, parameter "tCAL")                      */
1507:Drivers/STM32H7xx_HAL_Driver/Inc/stm32h7xx_ll_adc.h **** /*       - ADC enable time: maximum delay is 1 conversion cycle.              */
1508:Drivers/STM32H7xx_HAL_Driver/Inc/stm32h7xx_ll_adc.h **** /*         (refer to device datasheet, parameter "tSTAB")                     */
1509:Drivers/STM32H7xx_HAL_Driver/Inc/stm32h7xx_ll_adc.h **** /*       - ADC disable time: maximum delay should be a few ADC clock cycles   */
1510:Drivers/STM32H7xx_HAL_Driver/Inc/stm32h7xx_ll_adc.h **** /*       - ADC stop conversion time: maximum delay should be a few ADC clock  */
1511:Drivers/STM32H7xx_HAL_Driver/Inc/stm32h7xx_ll_adc.h **** /*         cycles                                                             */
1512:Drivers/STM32H7xx_HAL_Driver/Inc/stm32h7xx_ll_adc.h **** /*       - ADC conversion time: duration depending on ADC clock and ADC       */
1513:Drivers/STM32H7xx_HAL_Driver/Inc/stm32h7xx_ll_adc.h **** /*         configuration.                                                     */
1514:Drivers/STM32H7xx_HAL_Driver/Inc/stm32h7xx_ll_adc.h **** /*         (refer to device reference manual, section "Timing")               */
1515:Drivers/STM32H7xx_HAL_Driver/Inc/stm32h7xx_ll_adc.h **** 
1516:Drivers/STM32H7xx_HAL_Driver/Inc/stm32h7xx_ll_adc.h **** /* Delay for ADC stabilization time (ADC voltage regulator start-up time)     */
1517:Drivers/STM32H7xx_HAL_Driver/Inc/stm32h7xx_ll_adc.h **** /* Delay set to maximum value (refer to device datasheet,                     */
1518:Drivers/STM32H7xx_HAL_Driver/Inc/stm32h7xx_ll_adc.h **** /* parameter "tADCVREG_STUP").                                                */
1519:Drivers/STM32H7xx_HAL_Driver/Inc/stm32h7xx_ll_adc.h **** /* Unit: us                                                                   */
1520:Drivers/STM32H7xx_HAL_Driver/Inc/stm32h7xx_ll_adc.h **** #define LL_ADC_DELAY_INTERNAL_REGUL_STAB_US ( 10UL)  /*!< Delay for ADC stabilization time (ADC vol
1521:Drivers/STM32H7xx_HAL_Driver/Inc/stm32h7xx_ll_adc.h **** 
1522:Drivers/STM32H7xx_HAL_Driver/Inc/stm32h7xx_ll_adc.h **** /* Delay for internal voltage reference stabilization time.                   */
1523:Drivers/STM32H7xx_HAL_Driver/Inc/stm32h7xx_ll_adc.h **** /* Delay set to maximum value (refer to device datasheet,                     */
1524:Drivers/STM32H7xx_HAL_Driver/Inc/stm32h7xx_ll_adc.h **** /* parameter "ts_vrefint").                                                   */
1525:Drivers/STM32H7xx_HAL_Driver/Inc/stm32h7xx_ll_adc.h **** /* Unit: us                                                                   */
1526:Drivers/STM32H7xx_HAL_Driver/Inc/stm32h7xx_ll_adc.h **** #define LL_ADC_DELAY_VREFINT_STAB_US       (5UL)  /*!< Delay for internal voltage reference stabili
1527:Drivers/STM32H7xx_HAL_Driver/Inc/stm32h7xx_ll_adc.h **** 
1528:Drivers/STM32H7xx_HAL_Driver/Inc/stm32h7xx_ll_adc.h **** /* Delay for temperature sensor stabilization time.                           */
1529:Drivers/STM32H7xx_HAL_Driver/Inc/stm32h7xx_ll_adc.h **** /* Literal set to maximum value (refer to device datasheet,                   */
1530:Drivers/STM32H7xx_HAL_Driver/Inc/stm32h7xx_ll_adc.h **** /* parameter "tSTART_RUN").                                                   */
1531:Drivers/STM32H7xx_HAL_Driver/Inc/stm32h7xx_ll_adc.h **** /* Unit: us                                                                   */
ARM GAS  /tmp/ccmrLUMM.s 			page 32


1532:Drivers/STM32H7xx_HAL_Driver/Inc/stm32h7xx_ll_adc.h **** #define LL_ADC_DELAY_TEMPSENSOR_STAB_US    ( 26UL)  /*!< Delay for temperature sensor stabilization
1533:Drivers/STM32H7xx_HAL_Driver/Inc/stm32h7xx_ll_adc.h **** 
1534:Drivers/STM32H7xx_HAL_Driver/Inc/stm32h7xx_ll_adc.h **** /* Delay required between ADC end of calibration and ADC enable.              */
1535:Drivers/STM32H7xx_HAL_Driver/Inc/stm32h7xx_ll_adc.h **** /* Note: On this STM32 serie, a minimum number of ADC clock cycles            */
1536:Drivers/STM32H7xx_HAL_Driver/Inc/stm32h7xx_ll_adc.h **** /*       are required between ADC end of calibration and ADC enable.          */
1537:Drivers/STM32H7xx_HAL_Driver/Inc/stm32h7xx_ll_adc.h **** /*       Wait time can be computed in user application by waiting for the     */
1538:Drivers/STM32H7xx_HAL_Driver/Inc/stm32h7xx_ll_adc.h **** /*       equivalent number of CPU cycles, by taking into account              */
1539:Drivers/STM32H7xx_HAL_Driver/Inc/stm32h7xx_ll_adc.h **** /*       ratio of CPU clock versus ADC clock prescalers.                      */
1540:Drivers/STM32H7xx_HAL_Driver/Inc/stm32h7xx_ll_adc.h **** /* Unit: ADC clock cycles.                                                    */
1541:Drivers/STM32H7xx_HAL_Driver/Inc/stm32h7xx_ll_adc.h **** #define LL_ADC_DELAY_CALIB_ENABLE_ADC_CYCLES (  4UL)  /*!< Delay required between ADC end of calibr
1542:Drivers/STM32H7xx_HAL_Driver/Inc/stm32h7xx_ll_adc.h **** 
1543:Drivers/STM32H7xx_HAL_Driver/Inc/stm32h7xx_ll_adc.h **** /* Fixed timeout value for ADC linearity word bit set/clear delay.                         */
1544:Drivers/STM32H7xx_HAL_Driver/Inc/stm32h7xx_ll_adc.h **** /* Values defined to be higher than worst cases: low clock frequency,                      */
1545:Drivers/STM32H7xx_HAL_Driver/Inc/stm32h7xx_ll_adc.h **** /* maximum prescalers.                                                                     */
1546:Drivers/STM32H7xx_HAL_Driver/Inc/stm32h7xx_ll_adc.h **** /* Ex of profile low frequency : f_ADC at 4,577 Khz (minimum value                         */
1547:Drivers/STM32H7xx_HAL_Driver/Inc/stm32h7xx_ll_adc.h **** /* according to Data sheet), linearity set/clear bit delay MAX = 6 / f_ADC + 3 cycles AHB  */
1548:Drivers/STM32H7xx_HAL_Driver/Inc/stm32h7xx_ll_adc.h **** /*           6 / 4577 = 1,311ms                                                            */
1549:Drivers/STM32H7xx_HAL_Driver/Inc/stm32h7xx_ll_adc.h **** /* At maximum CPU speed (400 MHz), this means                                              */
1550:Drivers/STM32H7xx_HAL_Driver/Inc/stm32h7xx_ll_adc.h **** /*    3.58 * 400 MHz = 524400 CPU cycles                                                   */
1551:Drivers/STM32H7xx_HAL_Driver/Inc/stm32h7xx_ll_adc.h **** #define ADC_LINEARITY_BIT_TOGGLE_TIMEOUT         (524400UL)      /*!< ADC linearity set/clear bit d
1552:Drivers/STM32H7xx_HAL_Driver/Inc/stm32h7xx_ll_adc.h **** 
1553:Drivers/STM32H7xx_HAL_Driver/Inc/stm32h7xx_ll_adc.h **** /**
1554:Drivers/STM32H7xx_HAL_Driver/Inc/stm32h7xx_ll_adc.h ****   * @}
1555:Drivers/STM32H7xx_HAL_Driver/Inc/stm32h7xx_ll_adc.h ****   */
1556:Drivers/STM32H7xx_HAL_Driver/Inc/stm32h7xx_ll_adc.h **** 
1557:Drivers/STM32H7xx_HAL_Driver/Inc/stm32h7xx_ll_adc.h **** /**
1558:Drivers/STM32H7xx_HAL_Driver/Inc/stm32h7xx_ll_adc.h ****   * @}
1559:Drivers/STM32H7xx_HAL_Driver/Inc/stm32h7xx_ll_adc.h ****   */
1560:Drivers/STM32H7xx_HAL_Driver/Inc/stm32h7xx_ll_adc.h **** 
1561:Drivers/STM32H7xx_HAL_Driver/Inc/stm32h7xx_ll_adc.h **** 
1562:Drivers/STM32H7xx_HAL_Driver/Inc/stm32h7xx_ll_adc.h **** /* Exported macro ------------------------------------------------------------*/
1563:Drivers/STM32H7xx_HAL_Driver/Inc/stm32h7xx_ll_adc.h **** /** @defgroup ADC_LL_Exported_Macros ADC Exported Macros
1564:Drivers/STM32H7xx_HAL_Driver/Inc/stm32h7xx_ll_adc.h ****   * @{
1565:Drivers/STM32H7xx_HAL_Driver/Inc/stm32h7xx_ll_adc.h ****   */
1566:Drivers/STM32H7xx_HAL_Driver/Inc/stm32h7xx_ll_adc.h **** 
1567:Drivers/STM32H7xx_HAL_Driver/Inc/stm32h7xx_ll_adc.h **** /** @defgroup ADC_LL_EM_WRITE_READ Common write and read registers Macros
1568:Drivers/STM32H7xx_HAL_Driver/Inc/stm32h7xx_ll_adc.h ****   * @{
1569:Drivers/STM32H7xx_HAL_Driver/Inc/stm32h7xx_ll_adc.h ****   */
1570:Drivers/STM32H7xx_HAL_Driver/Inc/stm32h7xx_ll_adc.h **** 
1571:Drivers/STM32H7xx_HAL_Driver/Inc/stm32h7xx_ll_adc.h **** /**
1572:Drivers/STM32H7xx_HAL_Driver/Inc/stm32h7xx_ll_adc.h ****   * @brief  Write a value in ADC register
1573:Drivers/STM32H7xx_HAL_Driver/Inc/stm32h7xx_ll_adc.h ****   * @param  __INSTANCE__ ADC Instance
1574:Drivers/STM32H7xx_HAL_Driver/Inc/stm32h7xx_ll_adc.h ****   * @param  __REG__ Register to be written
1575:Drivers/STM32H7xx_HAL_Driver/Inc/stm32h7xx_ll_adc.h ****   * @param  __VALUE__ Value to be written in the register
1576:Drivers/STM32H7xx_HAL_Driver/Inc/stm32h7xx_ll_adc.h ****   * @retval None
1577:Drivers/STM32H7xx_HAL_Driver/Inc/stm32h7xx_ll_adc.h ****   */
1578:Drivers/STM32H7xx_HAL_Driver/Inc/stm32h7xx_ll_adc.h **** #define LL_ADC_WriteReg(__INSTANCE__, __REG__, __VALUE__) WRITE_REG(__INSTANCE__->__REG__, (__VALUE
1579:Drivers/STM32H7xx_HAL_Driver/Inc/stm32h7xx_ll_adc.h **** 
1580:Drivers/STM32H7xx_HAL_Driver/Inc/stm32h7xx_ll_adc.h **** /**
1581:Drivers/STM32H7xx_HAL_Driver/Inc/stm32h7xx_ll_adc.h ****   * @brief  Read a value in ADC register
1582:Drivers/STM32H7xx_HAL_Driver/Inc/stm32h7xx_ll_adc.h ****   * @param  __INSTANCE__ ADC Instance
1583:Drivers/STM32H7xx_HAL_Driver/Inc/stm32h7xx_ll_adc.h ****   * @param  __REG__ Register to be read
1584:Drivers/STM32H7xx_HAL_Driver/Inc/stm32h7xx_ll_adc.h ****   * @retval Register value
1585:Drivers/STM32H7xx_HAL_Driver/Inc/stm32h7xx_ll_adc.h ****   */
1586:Drivers/STM32H7xx_HAL_Driver/Inc/stm32h7xx_ll_adc.h **** #define LL_ADC_ReadReg(__INSTANCE__, __REG__) READ_REG(__INSTANCE__->__REG__)
1587:Drivers/STM32H7xx_HAL_Driver/Inc/stm32h7xx_ll_adc.h **** /**
1588:Drivers/STM32H7xx_HAL_Driver/Inc/stm32h7xx_ll_adc.h ****   * @}
ARM GAS  /tmp/ccmrLUMM.s 			page 33


1589:Drivers/STM32H7xx_HAL_Driver/Inc/stm32h7xx_ll_adc.h ****   */
1590:Drivers/STM32H7xx_HAL_Driver/Inc/stm32h7xx_ll_adc.h **** 
1591:Drivers/STM32H7xx_HAL_Driver/Inc/stm32h7xx_ll_adc.h **** /** @defgroup ADC_LL_EM_HELPER_MACRO ADC helper macro
1592:Drivers/STM32H7xx_HAL_Driver/Inc/stm32h7xx_ll_adc.h ****   * @{
1593:Drivers/STM32H7xx_HAL_Driver/Inc/stm32h7xx_ll_adc.h ****   */
1594:Drivers/STM32H7xx_HAL_Driver/Inc/stm32h7xx_ll_adc.h **** 
1595:Drivers/STM32H7xx_HAL_Driver/Inc/stm32h7xx_ll_adc.h **** #if defined(ADC_VER_V5_V90)
1596:Drivers/STM32H7xx_HAL_Driver/Inc/stm32h7xx_ll_adc.h **** /**
1597:Drivers/STM32H7xx_HAL_Driver/Inc/stm32h7xx_ll_adc.h ****   * @brief  Helper macro to convert the resolution defines to STM32H73x/2x ADC3 registers values
1598:Drivers/STM32H7xx_HAL_Driver/Inc/stm32h7xx_ll_adc.h ****   *         value corresponding to the ADC3 resolution according to the STM32H73x/2x RefMan.
1599:Drivers/STM32H7xx_HAL_Driver/Inc/stm32h7xx_ll_adc.h ****   * @note   The input can be a value from ADC3 resolution (12b, 10b, 8b,6b)
1600:Drivers/STM32H7xx_HAL_Driver/Inc/stm32h7xx_ll_adc.h ****   * @param  __ADC_RESOLUTION__ This parameter can be one of the following values:
1601:Drivers/STM32H7xx_HAL_Driver/Inc/stm32h7xx_ll_adc.h ****   *         @arg @ref LL_ADC_RESOLUTION_12B
1602:Drivers/STM32H7xx_HAL_Driver/Inc/stm32h7xx_ll_adc.h ****   *         @arg @ref LL_ADC_RESOLUTION_10B
1603:Drivers/STM32H7xx_HAL_Driver/Inc/stm32h7xx_ll_adc.h ****   *         @arg @ref LL_ADC_RESOLUTION_8B
1604:Drivers/STM32H7xx_HAL_Driver/Inc/stm32h7xx_ll_adc.h ****   *         @arg @ref LL_ADC_RESOLUTION_6B
1605:Drivers/STM32H7xx_HAL_Driver/Inc/stm32h7xx_ll_adc.h ****   * @retval Returned value can be one of the following values:
1606:Drivers/STM32H7xx_HAL_Driver/Inc/stm32h7xx_ll_adc.h ****   *         @arg 0x00000000UL (value correspodning to ADC3 12 bits)
1607:Drivers/STM32H7xx_HAL_Driver/Inc/stm32h7xx_ll_adc.h ****   *         @arg ADC_CFGR_RES_0 = 0x00000004  (value corresponding to ADC3 10 bits)
1608:Drivers/STM32H7xx_HAL_Driver/Inc/stm32h7xx_ll_adc.h ****   *         @arg ADC_CFGR_RES_1 = 0x00000008 (value corresponding to ADC3 8 bits)
1609:Drivers/STM32H7xx_HAL_Driver/Inc/stm32h7xx_ll_adc.h ****   *         @arg 0x0000001C (value corresponding to ADC3 6 bits)
1610:Drivers/STM32H7xx_HAL_Driver/Inc/stm32h7xx_ll_adc.h ****   * @note   This helper macro is applicable for STM32H73x/2x devices only
1611:Drivers/STM32H7xx_HAL_Driver/Inc/stm32h7xx_ll_adc.h ****   */
1612:Drivers/STM32H7xx_HAL_Driver/Inc/stm32h7xx_ll_adc.h **** #define __LL_ADC12_RESOLUTION_TO_ADC3(__ADC_RESOLUTION__)                      \
1613:Drivers/STM32H7xx_HAL_Driver/Inc/stm32h7xx_ll_adc.h ****          (                                                                     \
1614:Drivers/STM32H7xx_HAL_Driver/Inc/stm32h7xx_ll_adc.h ****            ((__ADC_RESOLUTION__) == LL_ADC_RESOLUTION_12B)                     \
1615:Drivers/STM32H7xx_HAL_Driver/Inc/stm32h7xx_ll_adc.h ****             ?(0x00000000UL)                                                    \
1616:Drivers/STM32H7xx_HAL_Driver/Inc/stm32h7xx_ll_adc.h ****              :                                                                 \
1617:Drivers/STM32H7xx_HAL_Driver/Inc/stm32h7xx_ll_adc.h ****              ((__ADC_RESOLUTION__) == LL_ADC_RESOLUTION_10B)                   \
1618:Drivers/STM32H7xx_HAL_Driver/Inc/stm32h7xx_ll_adc.h ****                ?(ADC_CFGR_RES_0)                                               \
1619:Drivers/STM32H7xx_HAL_Driver/Inc/stm32h7xx_ll_adc.h ****                 :                                                              \
1620:Drivers/STM32H7xx_HAL_Driver/Inc/stm32h7xx_ll_adc.h ****                 ((__ADC_RESOLUTION__) == LL_ADC_RESOLUTION_8B)                 \
1621:Drivers/STM32H7xx_HAL_Driver/Inc/stm32h7xx_ll_adc.h ****                   ?(ADC_CFGR_RES_1)                                            \
1622:Drivers/STM32H7xx_HAL_Driver/Inc/stm32h7xx_ll_adc.h ****                    :                                                           \
1623:Drivers/STM32H7xx_HAL_Driver/Inc/stm32h7xx_ll_adc.h ****                    ((__ADC_RESOLUTION__) == LL_ADC_RESOLUTION_6B)              \
1624:Drivers/STM32H7xx_HAL_Driver/Inc/stm32h7xx_ll_adc.h ****                      ?((ADC_CFGR_RES_2|ADC_CFGR_RES_1 | ADC_CFGR_RES_0))       \
1625:Drivers/STM32H7xx_HAL_Driver/Inc/stm32h7xx_ll_adc.h ****                        :(0x00000000UL)                                         \
1626:Drivers/STM32H7xx_HAL_Driver/Inc/stm32h7xx_ll_adc.h ****          )
1627:Drivers/STM32H7xx_HAL_Driver/Inc/stm32h7xx_ll_adc.h **** 
1628:Drivers/STM32H7xx_HAL_Driver/Inc/stm32h7xx_ll_adc.h **** #endif /* ADC_VER_V5_V90 */
1629:Drivers/STM32H7xx_HAL_Driver/Inc/stm32h7xx_ll_adc.h **** 
1630:Drivers/STM32H7xx_HAL_Driver/Inc/stm32h7xx_ll_adc.h **** /**
1631:Drivers/STM32H7xx_HAL_Driver/Inc/stm32h7xx_ll_adc.h ****   * @brief  Helper macro to get ADC channel number in decimal format
1632:Drivers/STM32H7xx_HAL_Driver/Inc/stm32h7xx_ll_adc.h ****   *         from literals LL_ADC_CHANNEL_x.
1633:Drivers/STM32H7xx_HAL_Driver/Inc/stm32h7xx_ll_adc.h ****   * @note   Example:
1634:Drivers/STM32H7xx_HAL_Driver/Inc/stm32h7xx_ll_adc.h ****   *           __LL_ADC_CHANNEL_TO_DECIMAL_NB(LL_ADC_CHANNEL_4)
1635:Drivers/STM32H7xx_HAL_Driver/Inc/stm32h7xx_ll_adc.h ****   *           will return decimal number "4".
1636:Drivers/STM32H7xx_HAL_Driver/Inc/stm32h7xx_ll_adc.h ****   * @note   The input can be a value from functions where a channel
1637:Drivers/STM32H7xx_HAL_Driver/Inc/stm32h7xx_ll_adc.h ****   *         number is returned, either defined with number
1638:Drivers/STM32H7xx_HAL_Driver/Inc/stm32h7xx_ll_adc.h ****   *         or with bitfield (only one bit must be set).
1639:Drivers/STM32H7xx_HAL_Driver/Inc/stm32h7xx_ll_adc.h ****   * @param  __CHANNEL__ This parameter can be one of the following values:
1640:Drivers/STM32H7xx_HAL_Driver/Inc/stm32h7xx_ll_adc.h ****   *         @arg @ref LL_ADC_CHANNEL_0           (3)
1641:Drivers/STM32H7xx_HAL_Driver/Inc/stm32h7xx_ll_adc.h ****   *         @arg @ref LL_ADC_CHANNEL_1           (3)
1642:Drivers/STM32H7xx_HAL_Driver/Inc/stm32h7xx_ll_adc.h ****   *         @arg @ref LL_ADC_CHANNEL_2           (3)
1643:Drivers/STM32H7xx_HAL_Driver/Inc/stm32h7xx_ll_adc.h ****   *         @arg @ref LL_ADC_CHANNEL_3           (3)
1644:Drivers/STM32H7xx_HAL_Driver/Inc/stm32h7xx_ll_adc.h ****   *         @arg @ref LL_ADC_CHANNEL_4           (3)
1645:Drivers/STM32H7xx_HAL_Driver/Inc/stm32h7xx_ll_adc.h ****   *         @arg @ref LL_ADC_CHANNEL_5           (3)
ARM GAS  /tmp/ccmrLUMM.s 			page 34


1646:Drivers/STM32H7xx_HAL_Driver/Inc/stm32h7xx_ll_adc.h ****   *         @arg @ref LL_ADC_CHANNEL_6
1647:Drivers/STM32H7xx_HAL_Driver/Inc/stm32h7xx_ll_adc.h ****   *         @arg @ref LL_ADC_CHANNEL_7
1648:Drivers/STM32H7xx_HAL_Driver/Inc/stm32h7xx_ll_adc.h ****   *         @arg @ref LL_ADC_CHANNEL_8
1649:Drivers/STM32H7xx_HAL_Driver/Inc/stm32h7xx_ll_adc.h ****   *         @arg @ref LL_ADC_CHANNEL_9
1650:Drivers/STM32H7xx_HAL_Driver/Inc/stm32h7xx_ll_adc.h ****   *         @arg @ref LL_ADC_CHANNEL_10
1651:Drivers/STM32H7xx_HAL_Driver/Inc/stm32h7xx_ll_adc.h ****   *         @arg @ref LL_ADC_CHANNEL_11
1652:Drivers/STM32H7xx_HAL_Driver/Inc/stm32h7xx_ll_adc.h ****   *         @arg @ref LL_ADC_CHANNEL_12
1653:Drivers/STM32H7xx_HAL_Driver/Inc/stm32h7xx_ll_adc.h ****   *         @arg @ref LL_ADC_CHANNEL_13
1654:Drivers/STM32H7xx_HAL_Driver/Inc/stm32h7xx_ll_adc.h ****   *         @arg @ref LL_ADC_CHANNEL_14
1655:Drivers/STM32H7xx_HAL_Driver/Inc/stm32h7xx_ll_adc.h ****   *         @arg @ref LL_ADC_CHANNEL_15
1656:Drivers/STM32H7xx_HAL_Driver/Inc/stm32h7xx_ll_adc.h ****   *         @arg @ref LL_ADC_CHANNEL_16
1657:Drivers/STM32H7xx_HAL_Driver/Inc/stm32h7xx_ll_adc.h ****   *         @arg @ref LL_ADC_CHANNEL_17
1658:Drivers/STM32H7xx_HAL_Driver/Inc/stm32h7xx_ll_adc.h ****   *         @arg @ref LL_ADC_CHANNEL_18
1659:Drivers/STM32H7xx_HAL_Driver/Inc/stm32h7xx_ll_adc.h ****   *         @arg @ref LL_ADC_CHANNEL_19
1660:Drivers/STM32H7xx_HAL_Driver/Inc/stm32h7xx_ll_adc.h ****   *         @arg @ref LL_ADC_CHANNEL_VREFINT      (1)
1661:Drivers/STM32H7xx_HAL_Driver/Inc/stm32h7xx_ll_adc.h ****   *         @arg @ref LL_ADC_CHANNEL_TEMPSENSOR   (1)
1662:Drivers/STM32H7xx_HAL_Driver/Inc/stm32h7xx_ll_adc.h ****   *         @arg @ref LL_ADC_CHANNEL_VBAT         (1)
1663:Drivers/STM32H7xx_HAL_Driver/Inc/stm32h7xx_ll_adc.h ****   *         @arg @ref LL_ADC_CHANNEL_DAC1CH1_ADC2 (2)
1664:Drivers/STM32H7xx_HAL_Driver/Inc/stm32h7xx_ll_adc.h ****   *         @arg @ref LL_ADC_CHANNEL_DAC1CH2_ADC2 (2)
1665:Drivers/STM32H7xx_HAL_Driver/Inc/stm32h7xx_ll_adc.h ****   *
1666:Drivers/STM32H7xx_HAL_Driver/Inc/stm32h7xx_ll_adc.h ****   *         (1) On STM32H7, parameter available only on ADC instance: ADC3.\n
1667:Drivers/STM32H7xx_HAL_Driver/Inc/stm32h7xx_ll_adc.h ****   *         (2) On STM32H7, parameter available only on ADC instance: ADC2.\n
1668:Drivers/STM32H7xx_HAL_Driver/Inc/stm32h7xx_ll_adc.h ****   *         (3) On STM32H7, fast channel (0.125 us for 14-bit resolution (ADC conversion rate up to
1669:Drivers/STM32H7xx_HAL_Driver/Inc/stm32h7xx_ll_adc.h ****   *             Other channels are slow channels (conversion rate: refer to reference manual).
1670:Drivers/STM32H7xx_HAL_Driver/Inc/stm32h7xx_ll_adc.h ****   * @retval Value between Min_Data=0 and Max_Data=18
1671:Drivers/STM32H7xx_HAL_Driver/Inc/stm32h7xx_ll_adc.h ****   */
1672:Drivers/STM32H7xx_HAL_Driver/Inc/stm32h7xx_ll_adc.h **** #define __LL_ADC_CHANNEL_TO_DECIMAL_NB(__CHANNEL__)                                        \
1673:Drivers/STM32H7xx_HAL_Driver/Inc/stm32h7xx_ll_adc.h ****   ((((__CHANNEL__) & ADC_CHANNEL_ID_BITFIELD_MASK) == 0UL)                                 \
1674:Drivers/STM32H7xx_HAL_Driver/Inc/stm32h7xx_ll_adc.h ****     ? (                                                                                    \
1675:Drivers/STM32H7xx_HAL_Driver/Inc/stm32h7xx_ll_adc.h ****        ((__CHANNEL__) & ADC_CHANNEL_ID_NUMBER_MASK) >> ADC_CHANNEL_ID_NUMBER_BITOFFSET_POS \
1676:Drivers/STM32H7xx_HAL_Driver/Inc/stm32h7xx_ll_adc.h ****       )                                                                                    \
1677:Drivers/STM32H7xx_HAL_Driver/Inc/stm32h7xx_ll_adc.h ****       :                                                                                    \
1678:Drivers/STM32H7xx_HAL_Driver/Inc/stm32h7xx_ll_adc.h ****       (                                                                                    \
1679:Drivers/STM32H7xx_HAL_Driver/Inc/stm32h7xx_ll_adc.h ****        (uint32_t)POSITION_VAL((__CHANNEL__))                                               \
1680:Drivers/STM32H7xx_HAL_Driver/Inc/stm32h7xx_ll_adc.h ****       )                                                                                    \
1681:Drivers/STM32H7xx_HAL_Driver/Inc/stm32h7xx_ll_adc.h ****   )
1682:Drivers/STM32H7xx_HAL_Driver/Inc/stm32h7xx_ll_adc.h **** 
1683:Drivers/STM32H7xx_HAL_Driver/Inc/stm32h7xx_ll_adc.h **** /**
1684:Drivers/STM32H7xx_HAL_Driver/Inc/stm32h7xx_ll_adc.h ****   * @brief  Helper macro to get ADC channel in literal format LL_ADC_CHANNEL_x
1685:Drivers/STM32H7xx_HAL_Driver/Inc/stm32h7xx_ll_adc.h ****   *         from number in decimal format.
1686:Drivers/STM32H7xx_HAL_Driver/Inc/stm32h7xx_ll_adc.h ****   * @note   Example:
1687:Drivers/STM32H7xx_HAL_Driver/Inc/stm32h7xx_ll_adc.h ****   *           __LL_ADC_DECIMAL_NB_TO_CHANNEL(4)
1688:Drivers/STM32H7xx_HAL_Driver/Inc/stm32h7xx_ll_adc.h ****   *           will return a data equivalent to "LL_ADC_CHANNEL_4".
1689:Drivers/STM32H7xx_HAL_Driver/Inc/stm32h7xx_ll_adc.h ****   * @param  __DECIMAL_NB__ Value between Min_Data=0 and Max_Data=18
1690:Drivers/STM32H7xx_HAL_Driver/Inc/stm32h7xx_ll_adc.h ****   * @retval Returned value can be one of the following values:
1691:Drivers/STM32H7xx_HAL_Driver/Inc/stm32h7xx_ll_adc.h ****   *         @arg @ref LL_ADC_CHANNEL_0           (3)
1692:Drivers/STM32H7xx_HAL_Driver/Inc/stm32h7xx_ll_adc.h ****   *         @arg @ref LL_ADC_CHANNEL_1           (3)
1693:Drivers/STM32H7xx_HAL_Driver/Inc/stm32h7xx_ll_adc.h ****   *         @arg @ref LL_ADC_CHANNEL_2           (3)
1694:Drivers/STM32H7xx_HAL_Driver/Inc/stm32h7xx_ll_adc.h ****   *         @arg @ref LL_ADC_CHANNEL_3           (3)
1695:Drivers/STM32H7xx_HAL_Driver/Inc/stm32h7xx_ll_adc.h ****   *         @arg @ref LL_ADC_CHANNEL_4           (3)
1696:Drivers/STM32H7xx_HAL_Driver/Inc/stm32h7xx_ll_adc.h ****   *         @arg @ref LL_ADC_CHANNEL_5           (3)
1697:Drivers/STM32H7xx_HAL_Driver/Inc/stm32h7xx_ll_adc.h ****   *         @arg @ref LL_ADC_CHANNEL_6
1698:Drivers/STM32H7xx_HAL_Driver/Inc/stm32h7xx_ll_adc.h ****   *         @arg @ref LL_ADC_CHANNEL_7
1699:Drivers/STM32H7xx_HAL_Driver/Inc/stm32h7xx_ll_adc.h ****   *         @arg @ref LL_ADC_CHANNEL_8
1700:Drivers/STM32H7xx_HAL_Driver/Inc/stm32h7xx_ll_adc.h ****   *         @arg @ref LL_ADC_CHANNEL_9
1701:Drivers/STM32H7xx_HAL_Driver/Inc/stm32h7xx_ll_adc.h ****   *         @arg @ref LL_ADC_CHANNEL_10
1702:Drivers/STM32H7xx_HAL_Driver/Inc/stm32h7xx_ll_adc.h ****   *         @arg @ref LL_ADC_CHANNEL_11
ARM GAS  /tmp/ccmrLUMM.s 			page 35


1703:Drivers/STM32H7xx_HAL_Driver/Inc/stm32h7xx_ll_adc.h ****   *         @arg @ref LL_ADC_CHANNEL_12
1704:Drivers/STM32H7xx_HAL_Driver/Inc/stm32h7xx_ll_adc.h ****   *         @arg @ref LL_ADC_CHANNEL_13
1705:Drivers/STM32H7xx_HAL_Driver/Inc/stm32h7xx_ll_adc.h ****   *         @arg @ref LL_ADC_CHANNEL_14
1706:Drivers/STM32H7xx_HAL_Driver/Inc/stm32h7xx_ll_adc.h ****   *         @arg @ref LL_ADC_CHANNEL_15
1707:Drivers/STM32H7xx_HAL_Driver/Inc/stm32h7xx_ll_adc.h ****   *         @arg @ref LL_ADC_CHANNEL_16
1708:Drivers/STM32H7xx_HAL_Driver/Inc/stm32h7xx_ll_adc.h ****   *         @arg @ref LL_ADC_CHANNEL_17
1709:Drivers/STM32H7xx_HAL_Driver/Inc/stm32h7xx_ll_adc.h ****   *         @arg @ref LL_ADC_CHANNEL_18
1710:Drivers/STM32H7xx_HAL_Driver/Inc/stm32h7xx_ll_adc.h ****   *         @arg @ref LL_ADC_CHANNEL_19
1711:Drivers/STM32H7xx_HAL_Driver/Inc/stm32h7xx_ll_adc.h ****   *         @arg @ref LL_ADC_CHANNEL_VREFINT      (1)
1712:Drivers/STM32H7xx_HAL_Driver/Inc/stm32h7xx_ll_adc.h ****   *         @arg @ref LL_ADC_CHANNEL_TEMPSENSOR   (1)
1713:Drivers/STM32H7xx_HAL_Driver/Inc/stm32h7xx_ll_adc.h ****   *         @arg @ref LL_ADC_CHANNEL_VBAT         (1)
1714:Drivers/STM32H7xx_HAL_Driver/Inc/stm32h7xx_ll_adc.h ****   *         @arg @ref LL_ADC_CHANNEL_DAC1CH1_ADC2 (2)
1715:Drivers/STM32H7xx_HAL_Driver/Inc/stm32h7xx_ll_adc.h ****   *         @arg @ref LL_ADC_CHANNEL_DAC1CH2_ADC2 (2)
1716:Drivers/STM32H7xx_HAL_Driver/Inc/stm32h7xx_ll_adc.h ****   *
1717:Drivers/STM32H7xx_HAL_Driver/Inc/stm32h7xx_ll_adc.h ****   *         (1) On STM32H7, parameter available only on ADC instance: ADC3.\n
1718:Drivers/STM32H7xx_HAL_Driver/Inc/stm32h7xx_ll_adc.h ****   *         (2) On STM32H7, parameter available only on ADC instance: ADC2.\n
1719:Drivers/STM32H7xx_HAL_Driver/Inc/stm32h7xx_ll_adc.h ****   *         (3) On STM32H7, fast channel (0.125 us for 14-bit resolution (ADC conversion rate up to
1720:Drivers/STM32H7xx_HAL_Driver/Inc/stm32h7xx_ll_adc.h ****   *             Other channels are slow channels (conversion rate: refer to reference manual).\n
1721:Drivers/STM32H7xx_HAL_Driver/Inc/stm32h7xx_ll_adc.h ****   *         (1, 2) For ADC channel read back from ADC register,
1722:Drivers/STM32H7xx_HAL_Driver/Inc/stm32h7xx_ll_adc.h ****   *                comparison with internal channel parameter to be done
1723:Drivers/STM32H7xx_HAL_Driver/Inc/stm32h7xx_ll_adc.h ****   *                using helper macro @ref __LL_ADC_CHANNEL_INTERNAL_TO_EXTERNAL().
1724:Drivers/STM32H7xx_HAL_Driver/Inc/stm32h7xx_ll_adc.h ****   */
1725:Drivers/STM32H7xx_HAL_Driver/Inc/stm32h7xx_ll_adc.h **** #define __LL_ADC_DECIMAL_NB_TO_CHANNEL(__DECIMAL_NB__)                                             
1726:Drivers/STM32H7xx_HAL_Driver/Inc/stm32h7xx_ll_adc.h ****   (((__DECIMAL_NB__) <= 9UL)                                                                       
1727:Drivers/STM32H7xx_HAL_Driver/Inc/stm32h7xx_ll_adc.h ****     ? (                                                                                            
1728:Drivers/STM32H7xx_HAL_Driver/Inc/stm32h7xx_ll_adc.h ****        ((__DECIMAL_NB__) << ADC_CHANNEL_ID_NUMBER_BITOFFSET_POS)                             |     
1729:Drivers/STM32H7xx_HAL_Driver/Inc/stm32h7xx_ll_adc.h ****        (ADC_AWD2CR_AWD2CH_0 << (__DECIMAL_NB__))                                             |     
1730:Drivers/STM32H7xx_HAL_Driver/Inc/stm32h7xx_ll_adc.h ****        (ADC_SMPR1_REGOFFSET | (((3UL * (__DECIMAL_NB__))) << ADC_CHANNEL_SMPx_BITOFFSET_POS))      
1731:Drivers/STM32H7xx_HAL_Driver/Inc/stm32h7xx_ll_adc.h ****       )                                                                                            
1732:Drivers/STM32H7xx_HAL_Driver/Inc/stm32h7xx_ll_adc.h ****       :                                                                                            
1733:Drivers/STM32H7xx_HAL_Driver/Inc/stm32h7xx_ll_adc.h ****       (                                                                                            
1734:Drivers/STM32H7xx_HAL_Driver/Inc/stm32h7xx_ll_adc.h ****        ((__DECIMAL_NB__) << ADC_CHANNEL_ID_NUMBER_BITOFFSET_POS)                                   
1735:Drivers/STM32H7xx_HAL_Driver/Inc/stm32h7xx_ll_adc.h ****        (ADC_AWD2CR_AWD2CH_0 << (__DECIMAL_NB__))                                                   
1736:Drivers/STM32H7xx_HAL_Driver/Inc/stm32h7xx_ll_adc.h ****        (ADC_SMPR2_REGOFFSET | (((3UL * ((__DECIMAL_NB__) - 10UL))) << ADC_CHANNEL_SMPx_BITOFFSET_PO
1737:Drivers/STM32H7xx_HAL_Driver/Inc/stm32h7xx_ll_adc.h ****       )                                                                                            
1738:Drivers/STM32H7xx_HAL_Driver/Inc/stm32h7xx_ll_adc.h ****   )
1739:Drivers/STM32H7xx_HAL_Driver/Inc/stm32h7xx_ll_adc.h **** 
1740:Drivers/STM32H7xx_HAL_Driver/Inc/stm32h7xx_ll_adc.h **** /**
1741:Drivers/STM32H7xx_HAL_Driver/Inc/stm32h7xx_ll_adc.h ****   * @brief  Helper macro to determine whether the selected channel
1742:Drivers/STM32H7xx_HAL_Driver/Inc/stm32h7xx_ll_adc.h ****   *         corresponds to literal definitions of driver.
1743:Drivers/STM32H7xx_HAL_Driver/Inc/stm32h7xx_ll_adc.h ****   * @note   The different literal definitions of ADC channels are:
1744:Drivers/STM32H7xx_HAL_Driver/Inc/stm32h7xx_ll_adc.h ****   *         - ADC internal channel:
1745:Drivers/STM32H7xx_HAL_Driver/Inc/stm32h7xx_ll_adc.h ****   *           LL_ADC_CHANNEL_VREFINT, LL_ADC_CHANNEL_TEMPSENSOR, ...
1746:Drivers/STM32H7xx_HAL_Driver/Inc/stm32h7xx_ll_adc.h ****   *         - ADC external channel (channel connected to a GPIO pin):
1747:Drivers/STM32H7xx_HAL_Driver/Inc/stm32h7xx_ll_adc.h ****   *           LL_ADC_CHANNEL_1, LL_ADC_CHANNEL_2, ...
1748:Drivers/STM32H7xx_HAL_Driver/Inc/stm32h7xx_ll_adc.h ****   * @note   The channel parameter must be a value defined from literal
1749:Drivers/STM32H7xx_HAL_Driver/Inc/stm32h7xx_ll_adc.h ****   *         definition of a ADC internal channel (LL_ADC_CHANNEL_VREFINT,
1750:Drivers/STM32H7xx_HAL_Driver/Inc/stm32h7xx_ll_adc.h ****   *         LL_ADC_CHANNEL_TEMPSENSOR, ...),
1751:Drivers/STM32H7xx_HAL_Driver/Inc/stm32h7xx_ll_adc.h ****   *         ADC external channel (LL_ADC_CHANNEL_1, LL_ADC_CHANNEL_2, ...),
1752:Drivers/STM32H7xx_HAL_Driver/Inc/stm32h7xx_ll_adc.h ****   *         must not be a value from functions where a channel number is
1753:Drivers/STM32H7xx_HAL_Driver/Inc/stm32h7xx_ll_adc.h ****   *         returned from ADC registers,
1754:Drivers/STM32H7xx_HAL_Driver/Inc/stm32h7xx_ll_adc.h ****   *         because internal and external channels share the same channel
1755:Drivers/STM32H7xx_HAL_Driver/Inc/stm32h7xx_ll_adc.h ****   *         number in ADC registers. The differentiation is made only with
1756:Drivers/STM32H7xx_HAL_Driver/Inc/stm32h7xx_ll_adc.h ****   *         parameters definitions of driver.
1757:Drivers/STM32H7xx_HAL_Driver/Inc/stm32h7xx_ll_adc.h ****   * @param  __CHANNEL__ This parameter can be one of the following values:
1758:Drivers/STM32H7xx_HAL_Driver/Inc/stm32h7xx_ll_adc.h ****   *         @arg @ref LL_ADC_CHANNEL_0           (3)
1759:Drivers/STM32H7xx_HAL_Driver/Inc/stm32h7xx_ll_adc.h ****   *         @arg @ref LL_ADC_CHANNEL_1           (3)
ARM GAS  /tmp/ccmrLUMM.s 			page 36


1760:Drivers/STM32H7xx_HAL_Driver/Inc/stm32h7xx_ll_adc.h ****   *         @arg @ref LL_ADC_CHANNEL_2           (3)
1761:Drivers/STM32H7xx_HAL_Driver/Inc/stm32h7xx_ll_adc.h ****   *         @arg @ref LL_ADC_CHANNEL_3           (3)
1762:Drivers/STM32H7xx_HAL_Driver/Inc/stm32h7xx_ll_adc.h ****   *         @arg @ref LL_ADC_CHANNEL_4           (3)
1763:Drivers/STM32H7xx_HAL_Driver/Inc/stm32h7xx_ll_adc.h ****   *         @arg @ref LL_ADC_CHANNEL_5           (3)
1764:Drivers/STM32H7xx_HAL_Driver/Inc/stm32h7xx_ll_adc.h ****   *         @arg @ref LL_ADC_CHANNEL_6
1765:Drivers/STM32H7xx_HAL_Driver/Inc/stm32h7xx_ll_adc.h ****   *         @arg @ref LL_ADC_CHANNEL_7
1766:Drivers/STM32H7xx_HAL_Driver/Inc/stm32h7xx_ll_adc.h ****   *         @arg @ref LL_ADC_CHANNEL_8
1767:Drivers/STM32H7xx_HAL_Driver/Inc/stm32h7xx_ll_adc.h ****   *         @arg @ref LL_ADC_CHANNEL_9
1768:Drivers/STM32H7xx_HAL_Driver/Inc/stm32h7xx_ll_adc.h ****   *         @arg @ref LL_ADC_CHANNEL_10
1769:Drivers/STM32H7xx_HAL_Driver/Inc/stm32h7xx_ll_adc.h ****   *         @arg @ref LL_ADC_CHANNEL_11
1770:Drivers/STM32H7xx_HAL_Driver/Inc/stm32h7xx_ll_adc.h ****   *         @arg @ref LL_ADC_CHANNEL_12
1771:Drivers/STM32H7xx_HAL_Driver/Inc/stm32h7xx_ll_adc.h ****   *         @arg @ref LL_ADC_CHANNEL_13
1772:Drivers/STM32H7xx_HAL_Driver/Inc/stm32h7xx_ll_adc.h ****   *         @arg @ref LL_ADC_CHANNEL_14
1773:Drivers/STM32H7xx_HAL_Driver/Inc/stm32h7xx_ll_adc.h ****   *         @arg @ref LL_ADC_CHANNEL_15
1774:Drivers/STM32H7xx_HAL_Driver/Inc/stm32h7xx_ll_adc.h ****   *         @arg @ref LL_ADC_CHANNEL_16
1775:Drivers/STM32H7xx_HAL_Driver/Inc/stm32h7xx_ll_adc.h ****   *         @arg @ref LL_ADC_CHANNEL_17
1776:Drivers/STM32H7xx_HAL_Driver/Inc/stm32h7xx_ll_adc.h ****   *         @arg @ref LL_ADC_CHANNEL_18
1777:Drivers/STM32H7xx_HAL_Driver/Inc/stm32h7xx_ll_adc.h ****   *         @arg @ref LL_ADC_CHANNEL_19
1778:Drivers/STM32H7xx_HAL_Driver/Inc/stm32h7xx_ll_adc.h ****   *         @arg @ref LL_ADC_CHANNEL_VREFINT      (1)
1779:Drivers/STM32H7xx_HAL_Driver/Inc/stm32h7xx_ll_adc.h ****   *         @arg @ref LL_ADC_CHANNEL_TEMPSENSOR   (1)
1780:Drivers/STM32H7xx_HAL_Driver/Inc/stm32h7xx_ll_adc.h ****   *         @arg @ref LL_ADC_CHANNEL_VBAT         (1)
1781:Drivers/STM32H7xx_HAL_Driver/Inc/stm32h7xx_ll_adc.h ****   *         @arg @ref LL_ADC_CHANNEL_DAC1CH1_ADC2 (2)
1782:Drivers/STM32H7xx_HAL_Driver/Inc/stm32h7xx_ll_adc.h ****   *         @arg @ref LL_ADC_CHANNEL_DAC1CH2_ADC2 (2)
1783:Drivers/STM32H7xx_HAL_Driver/Inc/stm32h7xx_ll_adc.h ****   *
1784:Drivers/STM32H7xx_HAL_Driver/Inc/stm32h7xx_ll_adc.h ****   *         (1) On STM32H7, parameter available only on ADC instance: ADC3.\n
1785:Drivers/STM32H7xx_HAL_Driver/Inc/stm32h7xx_ll_adc.h ****   *         (2) On STM32H7, parameter available only on ADC instance: ADC2.\n
1786:Drivers/STM32H7xx_HAL_Driver/Inc/stm32h7xx_ll_adc.h ****   *         (3) On STM32H7, fast channel (0.125 us for 14-bit resolution (ADC conversion rate up to
1787:Drivers/STM32H7xx_HAL_Driver/Inc/stm32h7xx_ll_adc.h ****   *             Other channels are slow channels (conversion rate: refer to reference manual).
1788:Drivers/STM32H7xx_HAL_Driver/Inc/stm32h7xx_ll_adc.h ****   * @retval Value "0" if the channel corresponds to a parameter definition of a ADC external channe
1789:Drivers/STM32H7xx_HAL_Driver/Inc/stm32h7xx_ll_adc.h ****   *         Value "1" if the channel corresponds to a parameter definition of a ADC internal channe
1790:Drivers/STM32H7xx_HAL_Driver/Inc/stm32h7xx_ll_adc.h ****   */
1791:Drivers/STM32H7xx_HAL_Driver/Inc/stm32h7xx_ll_adc.h **** #define __LL_ADC_IS_CHANNEL_INTERNAL(__CHANNEL__)                              \
1792:Drivers/STM32H7xx_HAL_Driver/Inc/stm32h7xx_ll_adc.h ****   (((__CHANNEL__) & ADC_CHANNEL_ID_INTERNAL_CH_MASK) != 0UL)
1793:Drivers/STM32H7xx_HAL_Driver/Inc/stm32h7xx_ll_adc.h **** 
1794:Drivers/STM32H7xx_HAL_Driver/Inc/stm32h7xx_ll_adc.h **** /**
1795:Drivers/STM32H7xx_HAL_Driver/Inc/stm32h7xx_ll_adc.h ****   * @brief  Helper macro to convert a channel defined from parameter
1796:Drivers/STM32H7xx_HAL_Driver/Inc/stm32h7xx_ll_adc.h ****   *         definition of a ADC internal channel (LL_ADC_CHANNEL_VREFINT,
1797:Drivers/STM32H7xx_HAL_Driver/Inc/stm32h7xx_ll_adc.h ****   *         LL_ADC_CHANNEL_TEMPSENSOR, ...),
1798:Drivers/STM32H7xx_HAL_Driver/Inc/stm32h7xx_ll_adc.h ****   *         to its equivalent parameter definition of a ADC external channel
1799:Drivers/STM32H7xx_HAL_Driver/Inc/stm32h7xx_ll_adc.h ****   *         (LL_ADC_CHANNEL_1, LL_ADC_CHANNEL_2, ...).
1800:Drivers/STM32H7xx_HAL_Driver/Inc/stm32h7xx_ll_adc.h ****   * @note   The channel parameter can be, additionally to a value
1801:Drivers/STM32H7xx_HAL_Driver/Inc/stm32h7xx_ll_adc.h ****   *         defined from parameter definition of a ADC internal channel
1802:Drivers/STM32H7xx_HAL_Driver/Inc/stm32h7xx_ll_adc.h ****   *         (LL_ADC_CHANNEL_VREFINT, LL_ADC_CHANNEL_TEMPSENSOR, ...),
1803:Drivers/STM32H7xx_HAL_Driver/Inc/stm32h7xx_ll_adc.h ****   *         a value defined from parameter definition of
1804:Drivers/STM32H7xx_HAL_Driver/Inc/stm32h7xx_ll_adc.h ****   *         ADC external channel (LL_ADC_CHANNEL_1, LL_ADC_CHANNEL_2, ...)
1805:Drivers/STM32H7xx_HAL_Driver/Inc/stm32h7xx_ll_adc.h ****   *         or a value from functions where a channel number is returned
1806:Drivers/STM32H7xx_HAL_Driver/Inc/stm32h7xx_ll_adc.h ****   *         from ADC registers.
1807:Drivers/STM32H7xx_HAL_Driver/Inc/stm32h7xx_ll_adc.h ****   * @param  __CHANNEL__ This parameter can be one of the following values:
1808:Drivers/STM32H7xx_HAL_Driver/Inc/stm32h7xx_ll_adc.h ****   *         @arg @ref LL_ADC_CHANNEL_0           (3)
1809:Drivers/STM32H7xx_HAL_Driver/Inc/stm32h7xx_ll_adc.h ****   *         @arg @ref LL_ADC_CHANNEL_1           (3)
1810:Drivers/STM32H7xx_HAL_Driver/Inc/stm32h7xx_ll_adc.h ****   *         @arg @ref LL_ADC_CHANNEL_2           (3)
1811:Drivers/STM32H7xx_HAL_Driver/Inc/stm32h7xx_ll_adc.h ****   *         @arg @ref LL_ADC_CHANNEL_3           (3)
1812:Drivers/STM32H7xx_HAL_Driver/Inc/stm32h7xx_ll_adc.h ****   *         @arg @ref LL_ADC_CHANNEL_4           (3)
1813:Drivers/STM32H7xx_HAL_Driver/Inc/stm32h7xx_ll_adc.h ****   *         @arg @ref LL_ADC_CHANNEL_5           (3)
1814:Drivers/STM32H7xx_HAL_Driver/Inc/stm32h7xx_ll_adc.h ****   *         @arg @ref LL_ADC_CHANNEL_6
1815:Drivers/STM32H7xx_HAL_Driver/Inc/stm32h7xx_ll_adc.h ****   *         @arg @ref LL_ADC_CHANNEL_7
1816:Drivers/STM32H7xx_HAL_Driver/Inc/stm32h7xx_ll_adc.h ****   *         @arg @ref LL_ADC_CHANNEL_8
ARM GAS  /tmp/ccmrLUMM.s 			page 37


1817:Drivers/STM32H7xx_HAL_Driver/Inc/stm32h7xx_ll_adc.h ****   *         @arg @ref LL_ADC_CHANNEL_9
1818:Drivers/STM32H7xx_HAL_Driver/Inc/stm32h7xx_ll_adc.h ****   *         @arg @ref LL_ADC_CHANNEL_10
1819:Drivers/STM32H7xx_HAL_Driver/Inc/stm32h7xx_ll_adc.h ****   *         @arg @ref LL_ADC_CHANNEL_11
1820:Drivers/STM32H7xx_HAL_Driver/Inc/stm32h7xx_ll_adc.h ****   *         @arg @ref LL_ADC_CHANNEL_12
1821:Drivers/STM32H7xx_HAL_Driver/Inc/stm32h7xx_ll_adc.h ****   *         @arg @ref LL_ADC_CHANNEL_13
1822:Drivers/STM32H7xx_HAL_Driver/Inc/stm32h7xx_ll_adc.h ****   *         @arg @ref LL_ADC_CHANNEL_14
1823:Drivers/STM32H7xx_HAL_Driver/Inc/stm32h7xx_ll_adc.h ****   *         @arg @ref LL_ADC_CHANNEL_15
1824:Drivers/STM32H7xx_HAL_Driver/Inc/stm32h7xx_ll_adc.h ****   *         @arg @ref LL_ADC_CHANNEL_16
1825:Drivers/STM32H7xx_HAL_Driver/Inc/stm32h7xx_ll_adc.h ****   *         @arg @ref LL_ADC_CHANNEL_17
1826:Drivers/STM32H7xx_HAL_Driver/Inc/stm32h7xx_ll_adc.h ****   *         @arg @ref LL_ADC_CHANNEL_18
1827:Drivers/STM32H7xx_HAL_Driver/Inc/stm32h7xx_ll_adc.h ****   *         @arg @ref LL_ADC_CHANNEL_19
1828:Drivers/STM32H7xx_HAL_Driver/Inc/stm32h7xx_ll_adc.h ****   *         @arg @ref LL_ADC_CHANNEL_VREFINT      (1)
1829:Drivers/STM32H7xx_HAL_Driver/Inc/stm32h7xx_ll_adc.h ****   *         @arg @ref LL_ADC_CHANNEL_TEMPSENSOR   (1)
1830:Drivers/STM32H7xx_HAL_Driver/Inc/stm32h7xx_ll_adc.h ****   *         @arg @ref LL_ADC_CHANNEL_VBAT         (1)
1831:Drivers/STM32H7xx_HAL_Driver/Inc/stm32h7xx_ll_adc.h ****   *         @arg @ref LL_ADC_CHANNEL_DAC1CH1_ADC2 (2)
1832:Drivers/STM32H7xx_HAL_Driver/Inc/stm32h7xx_ll_adc.h ****   *         @arg @ref LL_ADC_CHANNEL_DAC1CH2_ADC2 (2)
1833:Drivers/STM32H7xx_HAL_Driver/Inc/stm32h7xx_ll_adc.h ****   *
1834:Drivers/STM32H7xx_HAL_Driver/Inc/stm32h7xx_ll_adc.h ****   *         (1) On STM32H7, parameter available only on ADC instance: ADC3.\n
1835:Drivers/STM32H7xx_HAL_Driver/Inc/stm32h7xx_ll_adc.h ****   *         (2) On STM32H7, parameter available only on ADC instance: ADC2.\n
1836:Drivers/STM32H7xx_HAL_Driver/Inc/stm32h7xx_ll_adc.h ****   *         (3) On STM32H7, fast channel (0.125 us for 14-bit resolution (ADC conversion rate up to
1837:Drivers/STM32H7xx_HAL_Driver/Inc/stm32h7xx_ll_adc.h ****   *             Other channels are slow channels (conversion rate: refer to reference manual).
1838:Drivers/STM32H7xx_HAL_Driver/Inc/stm32h7xx_ll_adc.h ****   * @retval Returned value can be one of the following values:
1839:Drivers/STM32H7xx_HAL_Driver/Inc/stm32h7xx_ll_adc.h ****   *         @arg @ref LL_ADC_CHANNEL_0
1840:Drivers/STM32H7xx_HAL_Driver/Inc/stm32h7xx_ll_adc.h ****   *         @arg @ref LL_ADC_CHANNEL_1
1841:Drivers/STM32H7xx_HAL_Driver/Inc/stm32h7xx_ll_adc.h ****   *         @arg @ref LL_ADC_CHANNEL_2
1842:Drivers/STM32H7xx_HAL_Driver/Inc/stm32h7xx_ll_adc.h ****   *         @arg @ref LL_ADC_CHANNEL_3
1843:Drivers/STM32H7xx_HAL_Driver/Inc/stm32h7xx_ll_adc.h ****   *         @arg @ref LL_ADC_CHANNEL_4
1844:Drivers/STM32H7xx_HAL_Driver/Inc/stm32h7xx_ll_adc.h ****   *         @arg @ref LL_ADC_CHANNEL_5
1845:Drivers/STM32H7xx_HAL_Driver/Inc/stm32h7xx_ll_adc.h ****   *         @arg @ref LL_ADC_CHANNEL_6
1846:Drivers/STM32H7xx_HAL_Driver/Inc/stm32h7xx_ll_adc.h ****   *         @arg @ref LL_ADC_CHANNEL_7
1847:Drivers/STM32H7xx_HAL_Driver/Inc/stm32h7xx_ll_adc.h ****   *         @arg @ref LL_ADC_CHANNEL_8
1848:Drivers/STM32H7xx_HAL_Driver/Inc/stm32h7xx_ll_adc.h ****   *         @arg @ref LL_ADC_CHANNEL_9
1849:Drivers/STM32H7xx_HAL_Driver/Inc/stm32h7xx_ll_adc.h ****   *         @arg @ref LL_ADC_CHANNEL_10
1850:Drivers/STM32H7xx_HAL_Driver/Inc/stm32h7xx_ll_adc.h ****   *         @arg @ref LL_ADC_CHANNEL_11
1851:Drivers/STM32H7xx_HAL_Driver/Inc/stm32h7xx_ll_adc.h ****   *         @arg @ref LL_ADC_CHANNEL_12
1852:Drivers/STM32H7xx_HAL_Driver/Inc/stm32h7xx_ll_adc.h ****   *         @arg @ref LL_ADC_CHANNEL_13
1853:Drivers/STM32H7xx_HAL_Driver/Inc/stm32h7xx_ll_adc.h ****   *         @arg @ref LL_ADC_CHANNEL_14
1854:Drivers/STM32H7xx_HAL_Driver/Inc/stm32h7xx_ll_adc.h ****   *         @arg @ref LL_ADC_CHANNEL_15
1855:Drivers/STM32H7xx_HAL_Driver/Inc/stm32h7xx_ll_adc.h ****   *         @arg @ref LL_ADC_CHANNEL_16
1856:Drivers/STM32H7xx_HAL_Driver/Inc/stm32h7xx_ll_adc.h ****   *         @arg @ref LL_ADC_CHANNEL_17
1857:Drivers/STM32H7xx_HAL_Driver/Inc/stm32h7xx_ll_adc.h ****   *         @arg @ref LL_ADC_CHANNEL_18
1858:Drivers/STM32H7xx_HAL_Driver/Inc/stm32h7xx_ll_adc.h ****   *         @arg @ref LL_ADC_CHANNEL_19
1859:Drivers/STM32H7xx_HAL_Driver/Inc/stm32h7xx_ll_adc.h ****   */
1860:Drivers/STM32H7xx_HAL_Driver/Inc/stm32h7xx_ll_adc.h **** #define __LL_ADC_CHANNEL_INTERNAL_TO_EXTERNAL(__CHANNEL__)                     \
1861:Drivers/STM32H7xx_HAL_Driver/Inc/stm32h7xx_ll_adc.h ****   ((__CHANNEL__) & ~ADC_CHANNEL_ID_INTERNAL_CH_MASK)
1862:Drivers/STM32H7xx_HAL_Driver/Inc/stm32h7xx_ll_adc.h **** 
1863:Drivers/STM32H7xx_HAL_Driver/Inc/stm32h7xx_ll_adc.h **** /**
1864:Drivers/STM32H7xx_HAL_Driver/Inc/stm32h7xx_ll_adc.h ****   * @brief  Helper macro to determine whether the internal channel
1865:Drivers/STM32H7xx_HAL_Driver/Inc/stm32h7xx_ll_adc.h ****   *         selected is available on the ADC instance selected.
1866:Drivers/STM32H7xx_HAL_Driver/Inc/stm32h7xx_ll_adc.h ****   * @note   The channel parameter must be a value defined from parameter
1867:Drivers/STM32H7xx_HAL_Driver/Inc/stm32h7xx_ll_adc.h ****   *         definition of a ADC internal channel (LL_ADC_CHANNEL_VREFINT,
1868:Drivers/STM32H7xx_HAL_Driver/Inc/stm32h7xx_ll_adc.h ****   *         LL_ADC_CHANNEL_TEMPSENSOR, ...),
1869:Drivers/STM32H7xx_HAL_Driver/Inc/stm32h7xx_ll_adc.h ****   *         must not be a value defined from parameter definition of
1870:Drivers/STM32H7xx_HAL_Driver/Inc/stm32h7xx_ll_adc.h ****   *         ADC external channel (LL_ADC_CHANNEL_1, LL_ADC_CHANNEL_2, ...)
1871:Drivers/STM32H7xx_HAL_Driver/Inc/stm32h7xx_ll_adc.h ****   *         or a value from functions where a channel number is
1872:Drivers/STM32H7xx_HAL_Driver/Inc/stm32h7xx_ll_adc.h ****   *         returned from ADC registers,
1873:Drivers/STM32H7xx_HAL_Driver/Inc/stm32h7xx_ll_adc.h ****   *         because internal and external channels share the same channel
ARM GAS  /tmp/ccmrLUMM.s 			page 38


1874:Drivers/STM32H7xx_HAL_Driver/Inc/stm32h7xx_ll_adc.h ****   *         number in ADC registers. The differentiation is made only with
1875:Drivers/STM32H7xx_HAL_Driver/Inc/stm32h7xx_ll_adc.h ****   *         parameters definitions of driver.
1876:Drivers/STM32H7xx_HAL_Driver/Inc/stm32h7xx_ll_adc.h ****   * @param  __ADC_INSTANCE__ ADC instance
1877:Drivers/STM32H7xx_HAL_Driver/Inc/stm32h7xx_ll_adc.h ****   * @param  __CHANNEL__ This parameter can be one of the following values:
1878:Drivers/STM32H7xx_HAL_Driver/Inc/stm32h7xx_ll_adc.h ****   *         @arg @ref LL_ADC_CHANNEL_VREFINT      (1)
1879:Drivers/STM32H7xx_HAL_Driver/Inc/stm32h7xx_ll_adc.h ****   *         @arg @ref LL_ADC_CHANNEL_TEMPSENSOR   (1)
1880:Drivers/STM32H7xx_HAL_Driver/Inc/stm32h7xx_ll_adc.h ****   *         @arg @ref LL_ADC_CHANNEL_VBAT         (1)
1881:Drivers/STM32H7xx_HAL_Driver/Inc/stm32h7xx_ll_adc.h ****   *         @arg @ref LL_ADC_CHANNEL_DAC1CH1_ADC2 (2)
1882:Drivers/STM32H7xx_HAL_Driver/Inc/stm32h7xx_ll_adc.h ****   *         @arg @ref LL_ADC_CHANNEL_DAC1CH2_ADC2 (2)
1883:Drivers/STM32H7xx_HAL_Driver/Inc/stm32h7xx_ll_adc.h ****   *
1884:Drivers/STM32H7xx_HAL_Driver/Inc/stm32h7xx_ll_adc.h ****   *         (1) On STM32H7, parameter available only on ADC instance: ADC3.\n
1885:Drivers/STM32H7xx_HAL_Driver/Inc/stm32h7xx_ll_adc.h ****   *         (2) On STM32H7, parameter available only on ADC instance: ADC2.
1886:Drivers/STM32H7xx_HAL_Driver/Inc/stm32h7xx_ll_adc.h ****   * @retval Value "0" if the internal channel selected is not available on the ADC instance selecte
