ARM GAS  /tmp/ccCJnE45.s 			page 1


   1              		.cpu cortex-m7
   2              		.eabi_attribute 28, 1
   3              		.eabi_attribute 20, 1
   4              		.eabi_attribute 21, 1
   5              		.eabi_attribute 23, 3
   6              		.eabi_attribute 24, 1
   7              		.eabi_attribute 25, 1
   8              		.eabi_attribute 26, 1
   9              		.eabi_attribute 30, 1
  10              		.eabi_attribute 34, 1
  11              		.eabi_attribute 18, 4
  12              		.file	"stm32h7xx_ll_usb.c"
  13              		.text
  14              	.Ltext0:
  15              		.cfi_sections	.debug_frame
  16              		.section	.text.USB_CoreReset,"ax",%progbits
  17              		.align	1
  18              		.syntax unified
  19              		.thumb
  20              		.thumb_func
  21              		.fpu fpv5-d16
  23              	USB_CoreReset:
  24              	.LFB376:
  25              		.file 1 "Drivers/STM32H7xx_HAL_Driver/Src/stm32h7xx_ll_usb.c"
   1:Drivers/STM32H7xx_HAL_Driver/Src/stm32h7xx_ll_usb.c **** /**
   2:Drivers/STM32H7xx_HAL_Driver/Src/stm32h7xx_ll_usb.c ****   ******************************************************************************
   3:Drivers/STM32H7xx_HAL_Driver/Src/stm32h7xx_ll_usb.c ****   * @file    stm32h7xx_ll_usb.c
   4:Drivers/STM32H7xx_HAL_Driver/Src/stm32h7xx_ll_usb.c ****   * @author  MCD Application Team
   5:Drivers/STM32H7xx_HAL_Driver/Src/stm32h7xx_ll_usb.c ****   * @brief   USB Low Layer HAL module driver.
   6:Drivers/STM32H7xx_HAL_Driver/Src/stm32h7xx_ll_usb.c ****   *
   7:Drivers/STM32H7xx_HAL_Driver/Src/stm32h7xx_ll_usb.c ****   *          This file provides firmware functions to manage the following
   8:Drivers/STM32H7xx_HAL_Driver/Src/stm32h7xx_ll_usb.c ****   *          functionalities of the USB Peripheral Controller:
   9:Drivers/STM32H7xx_HAL_Driver/Src/stm32h7xx_ll_usb.c ****   *           + Initialization/de-initialization functions
  10:Drivers/STM32H7xx_HAL_Driver/Src/stm32h7xx_ll_usb.c ****   *           + I/O operation functions
  11:Drivers/STM32H7xx_HAL_Driver/Src/stm32h7xx_ll_usb.c ****   *           + Peripheral Control functions
  12:Drivers/STM32H7xx_HAL_Driver/Src/stm32h7xx_ll_usb.c ****   *           + Peripheral State functions
  13:Drivers/STM32H7xx_HAL_Driver/Src/stm32h7xx_ll_usb.c ****   *
  14:Drivers/STM32H7xx_HAL_Driver/Src/stm32h7xx_ll_usb.c ****   @verbatim
  15:Drivers/STM32H7xx_HAL_Driver/Src/stm32h7xx_ll_usb.c ****   ==============================================================================
  16:Drivers/STM32H7xx_HAL_Driver/Src/stm32h7xx_ll_usb.c ****                     ##### How to use this driver #####
  17:Drivers/STM32H7xx_HAL_Driver/Src/stm32h7xx_ll_usb.c ****   ==============================================================================
  18:Drivers/STM32H7xx_HAL_Driver/Src/stm32h7xx_ll_usb.c ****     [..]
  19:Drivers/STM32H7xx_HAL_Driver/Src/stm32h7xx_ll_usb.c ****       (#) Fill parameters of Init structure in USB_OTG_CfgTypeDef structure.
  20:Drivers/STM32H7xx_HAL_Driver/Src/stm32h7xx_ll_usb.c **** 
  21:Drivers/STM32H7xx_HAL_Driver/Src/stm32h7xx_ll_usb.c ****       (#) Call USB_CoreInit() API to initialize the USB Core peripheral.
  22:Drivers/STM32H7xx_HAL_Driver/Src/stm32h7xx_ll_usb.c **** 
  23:Drivers/STM32H7xx_HAL_Driver/Src/stm32h7xx_ll_usb.c ****       (#) The upper HAL HCD/PCD driver will call the right routines for its internal processes.
  24:Drivers/STM32H7xx_HAL_Driver/Src/stm32h7xx_ll_usb.c **** 
  25:Drivers/STM32H7xx_HAL_Driver/Src/stm32h7xx_ll_usb.c ****   @endverbatim
  26:Drivers/STM32H7xx_HAL_Driver/Src/stm32h7xx_ll_usb.c ****   ******************************************************************************
  27:Drivers/STM32H7xx_HAL_Driver/Src/stm32h7xx_ll_usb.c ****   * @attention
  28:Drivers/STM32H7xx_HAL_Driver/Src/stm32h7xx_ll_usb.c ****   *
  29:Drivers/STM32H7xx_HAL_Driver/Src/stm32h7xx_ll_usb.c ****   * <h2><center>&copy; Copyright (c) 2017 STMicroelectronics.
  30:Drivers/STM32H7xx_HAL_Driver/Src/stm32h7xx_ll_usb.c ****   * All rights reserved.</center></h2>
  31:Drivers/STM32H7xx_HAL_Driver/Src/stm32h7xx_ll_usb.c ****   *
  32:Drivers/STM32H7xx_HAL_Driver/Src/stm32h7xx_ll_usb.c ****   * This software component is licensed by ST under BSD 3-Clause license,
  33:Drivers/STM32H7xx_HAL_Driver/Src/stm32h7xx_ll_usb.c ****   * the "License"; You may not use this file except in compliance with the
ARM GAS  /tmp/ccCJnE45.s 			page 2


  34:Drivers/STM32H7xx_HAL_Driver/Src/stm32h7xx_ll_usb.c ****   * License. You may obtain a copy of the License at:
  35:Drivers/STM32H7xx_HAL_Driver/Src/stm32h7xx_ll_usb.c ****   *                        opensource.org/licenses/BSD-3-Clause
  36:Drivers/STM32H7xx_HAL_Driver/Src/stm32h7xx_ll_usb.c ****   *
  37:Drivers/STM32H7xx_HAL_Driver/Src/stm32h7xx_ll_usb.c ****   ******************************************************************************
  38:Drivers/STM32H7xx_HAL_Driver/Src/stm32h7xx_ll_usb.c ****   */
  39:Drivers/STM32H7xx_HAL_Driver/Src/stm32h7xx_ll_usb.c **** 
  40:Drivers/STM32H7xx_HAL_Driver/Src/stm32h7xx_ll_usb.c **** /* Includes ------------------------------------------------------------------*/
  41:Drivers/STM32H7xx_HAL_Driver/Src/stm32h7xx_ll_usb.c **** #include "stm32h7xx_hal.h"
  42:Drivers/STM32H7xx_HAL_Driver/Src/stm32h7xx_ll_usb.c **** 
  43:Drivers/STM32H7xx_HAL_Driver/Src/stm32h7xx_ll_usb.c **** /** @addtogroup STM32H7xx_LL_USB_DRIVER
  44:Drivers/STM32H7xx_HAL_Driver/Src/stm32h7xx_ll_usb.c ****   * @{
  45:Drivers/STM32H7xx_HAL_Driver/Src/stm32h7xx_ll_usb.c ****   */
  46:Drivers/STM32H7xx_HAL_Driver/Src/stm32h7xx_ll_usb.c **** 
  47:Drivers/STM32H7xx_HAL_Driver/Src/stm32h7xx_ll_usb.c **** #if defined (HAL_PCD_MODULE_ENABLED) || defined (HAL_HCD_MODULE_ENABLED)
  48:Drivers/STM32H7xx_HAL_Driver/Src/stm32h7xx_ll_usb.c **** #if defined (USB_OTG_FS) || defined (USB_OTG_HS)
  49:Drivers/STM32H7xx_HAL_Driver/Src/stm32h7xx_ll_usb.c **** /* Private typedef -----------------------------------------------------------*/
  50:Drivers/STM32H7xx_HAL_Driver/Src/stm32h7xx_ll_usb.c **** /* Private define ------------------------------------------------------------*/
  51:Drivers/STM32H7xx_HAL_Driver/Src/stm32h7xx_ll_usb.c **** /* Private macro -------------------------------------------------------------*/
  52:Drivers/STM32H7xx_HAL_Driver/Src/stm32h7xx_ll_usb.c **** /* Private variables ---------------------------------------------------------*/
  53:Drivers/STM32H7xx_HAL_Driver/Src/stm32h7xx_ll_usb.c **** /* Private function prototypes -----------------------------------------------*/
  54:Drivers/STM32H7xx_HAL_Driver/Src/stm32h7xx_ll_usb.c **** /* Private functions ---------------------------------------------------------*/
  55:Drivers/STM32H7xx_HAL_Driver/Src/stm32h7xx_ll_usb.c **** #if defined (USB_OTG_FS) || defined (USB_OTG_HS)
  56:Drivers/STM32H7xx_HAL_Driver/Src/stm32h7xx_ll_usb.c **** static HAL_StatusTypeDef USB_CoreReset(USB_OTG_GlobalTypeDef *USBx);
  57:Drivers/STM32H7xx_HAL_Driver/Src/stm32h7xx_ll_usb.c **** 
  58:Drivers/STM32H7xx_HAL_Driver/Src/stm32h7xx_ll_usb.c **** /* Exported functions --------------------------------------------------------*/
  59:Drivers/STM32H7xx_HAL_Driver/Src/stm32h7xx_ll_usb.c **** /** @defgroup USB_LL_Exported_Functions USB Low Layer Exported Functions
  60:Drivers/STM32H7xx_HAL_Driver/Src/stm32h7xx_ll_usb.c ****   * @{
  61:Drivers/STM32H7xx_HAL_Driver/Src/stm32h7xx_ll_usb.c ****   */
  62:Drivers/STM32H7xx_HAL_Driver/Src/stm32h7xx_ll_usb.c **** 
  63:Drivers/STM32H7xx_HAL_Driver/Src/stm32h7xx_ll_usb.c **** /** @defgroup USB_LL_Exported_Functions_Group1 Initialization/de-initialization functions
  64:Drivers/STM32H7xx_HAL_Driver/Src/stm32h7xx_ll_usb.c ****  *  @brief    Initialization and Configuration functions
  65:Drivers/STM32H7xx_HAL_Driver/Src/stm32h7xx_ll_usb.c ****  *
  66:Drivers/STM32H7xx_HAL_Driver/Src/stm32h7xx_ll_usb.c **** @verbatim
  67:Drivers/STM32H7xx_HAL_Driver/Src/stm32h7xx_ll_usb.c ****  ===============================================================================
  68:Drivers/STM32H7xx_HAL_Driver/Src/stm32h7xx_ll_usb.c ****                       ##### Initialization/de-initialization functions #####
  69:Drivers/STM32H7xx_HAL_Driver/Src/stm32h7xx_ll_usb.c ****  ===============================================================================
  70:Drivers/STM32H7xx_HAL_Driver/Src/stm32h7xx_ll_usb.c **** 
  71:Drivers/STM32H7xx_HAL_Driver/Src/stm32h7xx_ll_usb.c **** @endverbatim
  72:Drivers/STM32H7xx_HAL_Driver/Src/stm32h7xx_ll_usb.c ****   * @{
  73:Drivers/STM32H7xx_HAL_Driver/Src/stm32h7xx_ll_usb.c ****   */
  74:Drivers/STM32H7xx_HAL_Driver/Src/stm32h7xx_ll_usb.c **** 
  75:Drivers/STM32H7xx_HAL_Driver/Src/stm32h7xx_ll_usb.c **** /**
  76:Drivers/STM32H7xx_HAL_Driver/Src/stm32h7xx_ll_usb.c ****   * @brief  Initializes the USB Core
  77:Drivers/STM32H7xx_HAL_Driver/Src/stm32h7xx_ll_usb.c ****   * @param  USBx USB Instance
  78:Drivers/STM32H7xx_HAL_Driver/Src/stm32h7xx_ll_usb.c ****   * @param  cfg pointer to a USB_OTG_CfgTypeDef structure that contains
  79:Drivers/STM32H7xx_HAL_Driver/Src/stm32h7xx_ll_usb.c ****   *         the configuration information for the specified USBx peripheral.
  80:Drivers/STM32H7xx_HAL_Driver/Src/stm32h7xx_ll_usb.c ****   * @retval HAL status
  81:Drivers/STM32H7xx_HAL_Driver/Src/stm32h7xx_ll_usb.c ****   */
  82:Drivers/STM32H7xx_HAL_Driver/Src/stm32h7xx_ll_usb.c **** HAL_StatusTypeDef USB_CoreInit(USB_OTG_GlobalTypeDef *USBx, USB_OTG_CfgTypeDef cfg)
  83:Drivers/STM32H7xx_HAL_Driver/Src/stm32h7xx_ll_usb.c **** {
  84:Drivers/STM32H7xx_HAL_Driver/Src/stm32h7xx_ll_usb.c ****   HAL_StatusTypeDef ret;
  85:Drivers/STM32H7xx_HAL_Driver/Src/stm32h7xx_ll_usb.c **** 
  86:Drivers/STM32H7xx_HAL_Driver/Src/stm32h7xx_ll_usb.c ****   if (cfg.phy_itface == USB_OTG_ULPI_PHY)
  87:Drivers/STM32H7xx_HAL_Driver/Src/stm32h7xx_ll_usb.c ****   {
  88:Drivers/STM32H7xx_HAL_Driver/Src/stm32h7xx_ll_usb.c ****     USBx->GCCFG &= ~(USB_OTG_GCCFG_PWRDWN);
  89:Drivers/STM32H7xx_HAL_Driver/Src/stm32h7xx_ll_usb.c **** 
  90:Drivers/STM32H7xx_HAL_Driver/Src/stm32h7xx_ll_usb.c ****     /* Init The ULPI Interface */
ARM GAS  /tmp/ccCJnE45.s 			page 3


  91:Drivers/STM32H7xx_HAL_Driver/Src/stm32h7xx_ll_usb.c ****     USBx->GUSBCFG &= ~(USB_OTG_GUSBCFG_TSDPS | USB_OTG_GUSBCFG_ULPIFSLS | USB_OTG_GUSBCFG_PHYSEL);
  92:Drivers/STM32H7xx_HAL_Driver/Src/stm32h7xx_ll_usb.c **** 
  93:Drivers/STM32H7xx_HAL_Driver/Src/stm32h7xx_ll_usb.c ****     /* Select vbus source */
  94:Drivers/STM32H7xx_HAL_Driver/Src/stm32h7xx_ll_usb.c ****     USBx->GUSBCFG &= ~(USB_OTG_GUSBCFG_ULPIEVBUSD | USB_OTG_GUSBCFG_ULPIEVBUSI);
  95:Drivers/STM32H7xx_HAL_Driver/Src/stm32h7xx_ll_usb.c ****     if (cfg.use_external_vbus == 1U)
  96:Drivers/STM32H7xx_HAL_Driver/Src/stm32h7xx_ll_usb.c ****     {
  97:Drivers/STM32H7xx_HAL_Driver/Src/stm32h7xx_ll_usb.c ****       USBx->GUSBCFG |= USB_OTG_GUSBCFG_ULPIEVBUSD;
  98:Drivers/STM32H7xx_HAL_Driver/Src/stm32h7xx_ll_usb.c ****     }
  99:Drivers/STM32H7xx_HAL_Driver/Src/stm32h7xx_ll_usb.c ****     /* Reset after a PHY select  */
 100:Drivers/STM32H7xx_HAL_Driver/Src/stm32h7xx_ll_usb.c ****     ret = USB_CoreReset(USBx);
 101:Drivers/STM32H7xx_HAL_Driver/Src/stm32h7xx_ll_usb.c ****   }
 102:Drivers/STM32H7xx_HAL_Driver/Src/stm32h7xx_ll_usb.c ****   else /* FS interface (embedded Phy) */
 103:Drivers/STM32H7xx_HAL_Driver/Src/stm32h7xx_ll_usb.c ****   {
 104:Drivers/STM32H7xx_HAL_Driver/Src/stm32h7xx_ll_usb.c ****     /* Select FS Embedded PHY */
 105:Drivers/STM32H7xx_HAL_Driver/Src/stm32h7xx_ll_usb.c ****     USBx->GUSBCFG |= USB_OTG_GUSBCFG_PHYSEL;
 106:Drivers/STM32H7xx_HAL_Driver/Src/stm32h7xx_ll_usb.c **** 
 107:Drivers/STM32H7xx_HAL_Driver/Src/stm32h7xx_ll_usb.c ****     /* Reset after a PHY select and set Host mode */
 108:Drivers/STM32H7xx_HAL_Driver/Src/stm32h7xx_ll_usb.c ****     ret = USB_CoreReset(USBx);
 109:Drivers/STM32H7xx_HAL_Driver/Src/stm32h7xx_ll_usb.c **** 
 110:Drivers/STM32H7xx_HAL_Driver/Src/stm32h7xx_ll_usb.c ****     if (cfg.battery_charging_enable == 0U)
 111:Drivers/STM32H7xx_HAL_Driver/Src/stm32h7xx_ll_usb.c ****     {
 112:Drivers/STM32H7xx_HAL_Driver/Src/stm32h7xx_ll_usb.c ****       /* Activate the USB Transceiver */
 113:Drivers/STM32H7xx_HAL_Driver/Src/stm32h7xx_ll_usb.c ****       USBx->GCCFG |= USB_OTG_GCCFG_PWRDWN;
 114:Drivers/STM32H7xx_HAL_Driver/Src/stm32h7xx_ll_usb.c ****     }
 115:Drivers/STM32H7xx_HAL_Driver/Src/stm32h7xx_ll_usb.c ****     else
 116:Drivers/STM32H7xx_HAL_Driver/Src/stm32h7xx_ll_usb.c ****     {
 117:Drivers/STM32H7xx_HAL_Driver/Src/stm32h7xx_ll_usb.c ****       /* Deactivate the USB Transceiver */
 118:Drivers/STM32H7xx_HAL_Driver/Src/stm32h7xx_ll_usb.c ****       USBx->GCCFG &= ~(USB_OTG_GCCFG_PWRDWN);
 119:Drivers/STM32H7xx_HAL_Driver/Src/stm32h7xx_ll_usb.c ****     }
 120:Drivers/STM32H7xx_HAL_Driver/Src/stm32h7xx_ll_usb.c ****   }
 121:Drivers/STM32H7xx_HAL_Driver/Src/stm32h7xx_ll_usb.c **** 
 122:Drivers/STM32H7xx_HAL_Driver/Src/stm32h7xx_ll_usb.c ****   if (cfg.dma_enable == 1U)
 123:Drivers/STM32H7xx_HAL_Driver/Src/stm32h7xx_ll_usb.c ****   {
 124:Drivers/STM32H7xx_HAL_Driver/Src/stm32h7xx_ll_usb.c ****     USBx->GAHBCFG |= USB_OTG_GAHBCFG_HBSTLEN_2;
 125:Drivers/STM32H7xx_HAL_Driver/Src/stm32h7xx_ll_usb.c ****     USBx->GAHBCFG |= USB_OTG_GAHBCFG_DMAEN;
 126:Drivers/STM32H7xx_HAL_Driver/Src/stm32h7xx_ll_usb.c ****   }
 127:Drivers/STM32H7xx_HAL_Driver/Src/stm32h7xx_ll_usb.c **** 
 128:Drivers/STM32H7xx_HAL_Driver/Src/stm32h7xx_ll_usb.c ****   return ret;
 129:Drivers/STM32H7xx_HAL_Driver/Src/stm32h7xx_ll_usb.c **** }
 130:Drivers/STM32H7xx_HAL_Driver/Src/stm32h7xx_ll_usb.c **** 
 131:Drivers/STM32H7xx_HAL_Driver/Src/stm32h7xx_ll_usb.c **** 
 132:Drivers/STM32H7xx_HAL_Driver/Src/stm32h7xx_ll_usb.c **** /**
 133:Drivers/STM32H7xx_HAL_Driver/Src/stm32h7xx_ll_usb.c ****   * @brief  Set the USB turnaround time
 134:Drivers/STM32H7xx_HAL_Driver/Src/stm32h7xx_ll_usb.c ****   * @param  USBx USB Instance
 135:Drivers/STM32H7xx_HAL_Driver/Src/stm32h7xx_ll_usb.c ****   * @param  hclk: AHB clock frequency
 136:Drivers/STM32H7xx_HAL_Driver/Src/stm32h7xx_ll_usb.c ****   * @retval USB turnaround time In PHY Clocks number
 137:Drivers/STM32H7xx_HAL_Driver/Src/stm32h7xx_ll_usb.c ****   */
 138:Drivers/STM32H7xx_HAL_Driver/Src/stm32h7xx_ll_usb.c **** HAL_StatusTypeDef USB_SetTurnaroundTime(USB_OTG_GlobalTypeDef *USBx,
 139:Drivers/STM32H7xx_HAL_Driver/Src/stm32h7xx_ll_usb.c ****                                         uint32_t hclk, uint8_t speed)
 140:Drivers/STM32H7xx_HAL_Driver/Src/stm32h7xx_ll_usb.c **** {
 141:Drivers/STM32H7xx_HAL_Driver/Src/stm32h7xx_ll_usb.c ****   uint32_t UsbTrd;
 142:Drivers/STM32H7xx_HAL_Driver/Src/stm32h7xx_ll_usb.c **** 
 143:Drivers/STM32H7xx_HAL_Driver/Src/stm32h7xx_ll_usb.c ****   /* The USBTRD is configured according to the tables below, depending on AHB frequency
 144:Drivers/STM32H7xx_HAL_Driver/Src/stm32h7xx_ll_usb.c ****   used by application. In the low AHB frequency range it is used to stretch enough the USB response
 145:Drivers/STM32H7xx_HAL_Driver/Src/stm32h7xx_ll_usb.c ****   time to IN tokens, the USB turnaround time, so to compensate for the longer AHB read access
 146:Drivers/STM32H7xx_HAL_Driver/Src/stm32h7xx_ll_usb.c ****   latency to the Data FIFO */
 147:Drivers/STM32H7xx_HAL_Driver/Src/stm32h7xx_ll_usb.c ****   if (speed == USBD_FS_SPEED)
ARM GAS  /tmp/ccCJnE45.s 			page 4


 148:Drivers/STM32H7xx_HAL_Driver/Src/stm32h7xx_ll_usb.c ****   {
 149:Drivers/STM32H7xx_HAL_Driver/Src/stm32h7xx_ll_usb.c ****     if ((hclk >= 14200000U) && (hclk < 15000000U))
 150:Drivers/STM32H7xx_HAL_Driver/Src/stm32h7xx_ll_usb.c ****     {
 151:Drivers/STM32H7xx_HAL_Driver/Src/stm32h7xx_ll_usb.c ****       /* hclk Clock Range between 14.2-15 MHz */
 152:Drivers/STM32H7xx_HAL_Driver/Src/stm32h7xx_ll_usb.c ****       UsbTrd = 0xFU;
 153:Drivers/STM32H7xx_HAL_Driver/Src/stm32h7xx_ll_usb.c ****     }
 154:Drivers/STM32H7xx_HAL_Driver/Src/stm32h7xx_ll_usb.c ****     else if ((hclk >= 15000000U) && (hclk < 16000000U))
 155:Drivers/STM32H7xx_HAL_Driver/Src/stm32h7xx_ll_usb.c ****     {
 156:Drivers/STM32H7xx_HAL_Driver/Src/stm32h7xx_ll_usb.c ****       /* hclk Clock Range between 15-16 MHz */
 157:Drivers/STM32H7xx_HAL_Driver/Src/stm32h7xx_ll_usb.c ****       UsbTrd = 0xEU;
 158:Drivers/STM32H7xx_HAL_Driver/Src/stm32h7xx_ll_usb.c ****     }
 159:Drivers/STM32H7xx_HAL_Driver/Src/stm32h7xx_ll_usb.c ****     else if ((hclk >= 16000000U) && (hclk < 17200000U))
 160:Drivers/STM32H7xx_HAL_Driver/Src/stm32h7xx_ll_usb.c ****     {
 161:Drivers/STM32H7xx_HAL_Driver/Src/stm32h7xx_ll_usb.c ****       /* hclk Clock Range between 16-17.2 MHz */
 162:Drivers/STM32H7xx_HAL_Driver/Src/stm32h7xx_ll_usb.c ****       UsbTrd = 0xDU;
 163:Drivers/STM32H7xx_HAL_Driver/Src/stm32h7xx_ll_usb.c ****     }
 164:Drivers/STM32H7xx_HAL_Driver/Src/stm32h7xx_ll_usb.c ****     else if ((hclk >= 17200000U) && (hclk < 18500000U))
 165:Drivers/STM32H7xx_HAL_Driver/Src/stm32h7xx_ll_usb.c ****     {
 166:Drivers/STM32H7xx_HAL_Driver/Src/stm32h7xx_ll_usb.c ****       /* hclk Clock Range between 17.2-18.5 MHz */
 167:Drivers/STM32H7xx_HAL_Driver/Src/stm32h7xx_ll_usb.c ****       UsbTrd = 0xCU;
 168:Drivers/STM32H7xx_HAL_Driver/Src/stm32h7xx_ll_usb.c ****     }
 169:Drivers/STM32H7xx_HAL_Driver/Src/stm32h7xx_ll_usb.c ****     else if ((hclk >= 18500000U) && (hclk < 20000000U))
 170:Drivers/STM32H7xx_HAL_Driver/Src/stm32h7xx_ll_usb.c ****     {
 171:Drivers/STM32H7xx_HAL_Driver/Src/stm32h7xx_ll_usb.c ****       /* hclk Clock Range between 18.5-20 MHz */
 172:Drivers/STM32H7xx_HAL_Driver/Src/stm32h7xx_ll_usb.c ****       UsbTrd = 0xBU;
 173:Drivers/STM32H7xx_HAL_Driver/Src/stm32h7xx_ll_usb.c ****     }
 174:Drivers/STM32H7xx_HAL_Driver/Src/stm32h7xx_ll_usb.c ****     else if ((hclk >= 20000000U) && (hclk < 21800000U))
 175:Drivers/STM32H7xx_HAL_Driver/Src/stm32h7xx_ll_usb.c ****     {
 176:Drivers/STM32H7xx_HAL_Driver/Src/stm32h7xx_ll_usb.c ****       /* hclk Clock Range between 20-21.8 MHz */
 177:Drivers/STM32H7xx_HAL_Driver/Src/stm32h7xx_ll_usb.c ****       UsbTrd = 0xAU;
 178:Drivers/STM32H7xx_HAL_Driver/Src/stm32h7xx_ll_usb.c ****     }
 179:Drivers/STM32H7xx_HAL_Driver/Src/stm32h7xx_ll_usb.c ****     else if ((hclk >= 21800000U) && (hclk < 24000000U))
 180:Drivers/STM32H7xx_HAL_Driver/Src/stm32h7xx_ll_usb.c ****     {
 181:Drivers/STM32H7xx_HAL_Driver/Src/stm32h7xx_ll_usb.c ****       /* hclk Clock Range between 21.8-24 MHz */
 182:Drivers/STM32H7xx_HAL_Driver/Src/stm32h7xx_ll_usb.c ****       UsbTrd = 0x9U;
 183:Drivers/STM32H7xx_HAL_Driver/Src/stm32h7xx_ll_usb.c ****     }
 184:Drivers/STM32H7xx_HAL_Driver/Src/stm32h7xx_ll_usb.c ****     else if ((hclk >= 24000000U) && (hclk < 27700000U))
 185:Drivers/STM32H7xx_HAL_Driver/Src/stm32h7xx_ll_usb.c ****     {
 186:Drivers/STM32H7xx_HAL_Driver/Src/stm32h7xx_ll_usb.c ****       /* hclk Clock Range between 24-27.7 MHz */
 187:Drivers/STM32H7xx_HAL_Driver/Src/stm32h7xx_ll_usb.c ****       UsbTrd = 0x8U;
 188:Drivers/STM32H7xx_HAL_Driver/Src/stm32h7xx_ll_usb.c ****     }
 189:Drivers/STM32H7xx_HAL_Driver/Src/stm32h7xx_ll_usb.c ****     else if ((hclk >= 27700000U) && (hclk < 32000000U))
 190:Drivers/STM32H7xx_HAL_Driver/Src/stm32h7xx_ll_usb.c ****     {
 191:Drivers/STM32H7xx_HAL_Driver/Src/stm32h7xx_ll_usb.c ****       /* hclk Clock Range between 27.7-32 MHz */
 192:Drivers/STM32H7xx_HAL_Driver/Src/stm32h7xx_ll_usb.c ****       UsbTrd = 0x7U;
 193:Drivers/STM32H7xx_HAL_Driver/Src/stm32h7xx_ll_usb.c ****     }
 194:Drivers/STM32H7xx_HAL_Driver/Src/stm32h7xx_ll_usb.c ****     else /* if(hclk >= 32000000) */
 195:Drivers/STM32H7xx_HAL_Driver/Src/stm32h7xx_ll_usb.c ****     {
 196:Drivers/STM32H7xx_HAL_Driver/Src/stm32h7xx_ll_usb.c ****       /* hclk Clock Range between 32-200 MHz */
 197:Drivers/STM32H7xx_HAL_Driver/Src/stm32h7xx_ll_usb.c ****       UsbTrd = 0x6U;
 198:Drivers/STM32H7xx_HAL_Driver/Src/stm32h7xx_ll_usb.c ****     }
 199:Drivers/STM32H7xx_HAL_Driver/Src/stm32h7xx_ll_usb.c ****   }
 200:Drivers/STM32H7xx_HAL_Driver/Src/stm32h7xx_ll_usb.c ****   else if (speed == USBD_HS_SPEED)
 201:Drivers/STM32H7xx_HAL_Driver/Src/stm32h7xx_ll_usb.c ****   {
 202:Drivers/STM32H7xx_HAL_Driver/Src/stm32h7xx_ll_usb.c ****     UsbTrd = USBD_HS_TRDT_VALUE;
 203:Drivers/STM32H7xx_HAL_Driver/Src/stm32h7xx_ll_usb.c ****   }
 204:Drivers/STM32H7xx_HAL_Driver/Src/stm32h7xx_ll_usb.c ****   else
ARM GAS  /tmp/ccCJnE45.s 			page 5


 205:Drivers/STM32H7xx_HAL_Driver/Src/stm32h7xx_ll_usb.c ****   {
 206:Drivers/STM32H7xx_HAL_Driver/Src/stm32h7xx_ll_usb.c ****     UsbTrd = USBD_DEFAULT_TRDT_VALUE;
 207:Drivers/STM32H7xx_HAL_Driver/Src/stm32h7xx_ll_usb.c ****   }
 208:Drivers/STM32H7xx_HAL_Driver/Src/stm32h7xx_ll_usb.c **** 
 209:Drivers/STM32H7xx_HAL_Driver/Src/stm32h7xx_ll_usb.c ****   USBx->GUSBCFG &= ~USB_OTG_GUSBCFG_TRDT;
 210:Drivers/STM32H7xx_HAL_Driver/Src/stm32h7xx_ll_usb.c ****   USBx->GUSBCFG |= (uint32_t)((UsbTrd << 10) & USB_OTG_GUSBCFG_TRDT);
 211:Drivers/STM32H7xx_HAL_Driver/Src/stm32h7xx_ll_usb.c **** 
 212:Drivers/STM32H7xx_HAL_Driver/Src/stm32h7xx_ll_usb.c ****   return HAL_OK;
 213:Drivers/STM32H7xx_HAL_Driver/Src/stm32h7xx_ll_usb.c **** }
 214:Drivers/STM32H7xx_HAL_Driver/Src/stm32h7xx_ll_usb.c **** 
 215:Drivers/STM32H7xx_HAL_Driver/Src/stm32h7xx_ll_usb.c **** /**
 216:Drivers/STM32H7xx_HAL_Driver/Src/stm32h7xx_ll_usb.c ****   * @brief  USB_EnableGlobalInt
 217:Drivers/STM32H7xx_HAL_Driver/Src/stm32h7xx_ll_usb.c ****   *         Enables the controller's Global Int in the AHB Config reg
 218:Drivers/STM32H7xx_HAL_Driver/Src/stm32h7xx_ll_usb.c ****   * @param  USBx  Selected device
 219:Drivers/STM32H7xx_HAL_Driver/Src/stm32h7xx_ll_usb.c ****   * @retval HAL status
 220:Drivers/STM32H7xx_HAL_Driver/Src/stm32h7xx_ll_usb.c ****   */
 221:Drivers/STM32H7xx_HAL_Driver/Src/stm32h7xx_ll_usb.c **** HAL_StatusTypeDef USB_EnableGlobalInt(USB_OTG_GlobalTypeDef *USBx)
 222:Drivers/STM32H7xx_HAL_Driver/Src/stm32h7xx_ll_usb.c **** {
 223:Drivers/STM32H7xx_HAL_Driver/Src/stm32h7xx_ll_usb.c ****   USBx->GAHBCFG |= USB_OTG_GAHBCFG_GINT;
 224:Drivers/STM32H7xx_HAL_Driver/Src/stm32h7xx_ll_usb.c ****   return HAL_OK;
 225:Drivers/STM32H7xx_HAL_Driver/Src/stm32h7xx_ll_usb.c **** }
 226:Drivers/STM32H7xx_HAL_Driver/Src/stm32h7xx_ll_usb.c **** 
 227:Drivers/STM32H7xx_HAL_Driver/Src/stm32h7xx_ll_usb.c **** /**
 228:Drivers/STM32H7xx_HAL_Driver/Src/stm32h7xx_ll_usb.c ****   * @brief  USB_DisableGlobalInt
 229:Drivers/STM32H7xx_HAL_Driver/Src/stm32h7xx_ll_usb.c ****   *         Disable the controller's Global Int in the AHB Config reg
 230:Drivers/STM32H7xx_HAL_Driver/Src/stm32h7xx_ll_usb.c ****   * @param  USBx  Selected device
 231:Drivers/STM32H7xx_HAL_Driver/Src/stm32h7xx_ll_usb.c ****   * @retval HAL status
 232:Drivers/STM32H7xx_HAL_Driver/Src/stm32h7xx_ll_usb.c **** */
 233:Drivers/STM32H7xx_HAL_Driver/Src/stm32h7xx_ll_usb.c **** HAL_StatusTypeDef USB_DisableGlobalInt(USB_OTG_GlobalTypeDef *USBx)
 234:Drivers/STM32H7xx_HAL_Driver/Src/stm32h7xx_ll_usb.c **** {
 235:Drivers/STM32H7xx_HAL_Driver/Src/stm32h7xx_ll_usb.c ****   USBx->GAHBCFG &= ~USB_OTG_GAHBCFG_GINT;
 236:Drivers/STM32H7xx_HAL_Driver/Src/stm32h7xx_ll_usb.c ****   return HAL_OK;
 237:Drivers/STM32H7xx_HAL_Driver/Src/stm32h7xx_ll_usb.c **** }
 238:Drivers/STM32H7xx_HAL_Driver/Src/stm32h7xx_ll_usb.c **** 
 239:Drivers/STM32H7xx_HAL_Driver/Src/stm32h7xx_ll_usb.c **** /**
 240:Drivers/STM32H7xx_HAL_Driver/Src/stm32h7xx_ll_usb.c ****   * @brief  USB_SetCurrentMode : Set functional mode
 241:Drivers/STM32H7xx_HAL_Driver/Src/stm32h7xx_ll_usb.c ****   * @param  USBx  Selected device
 242:Drivers/STM32H7xx_HAL_Driver/Src/stm32h7xx_ll_usb.c ****   * @param  mode   current core mode
 243:Drivers/STM32H7xx_HAL_Driver/Src/stm32h7xx_ll_usb.c ****   *          This parameter can be one of these values:
 244:Drivers/STM32H7xx_HAL_Driver/Src/stm32h7xx_ll_usb.c ****   *            @arg USB_DEVICE_MODE: Peripheral mode
 245:Drivers/STM32H7xx_HAL_Driver/Src/stm32h7xx_ll_usb.c ****   *            @arg USB_HOST_MODE: Host mode
 246:Drivers/STM32H7xx_HAL_Driver/Src/stm32h7xx_ll_usb.c ****   *            @arg USB_DRD_MODE: Dual Role Device mode
 247:Drivers/STM32H7xx_HAL_Driver/Src/stm32h7xx_ll_usb.c ****   * @retval HAL status
 248:Drivers/STM32H7xx_HAL_Driver/Src/stm32h7xx_ll_usb.c ****   */
 249:Drivers/STM32H7xx_HAL_Driver/Src/stm32h7xx_ll_usb.c **** HAL_StatusTypeDef USB_SetCurrentMode(USB_OTG_GlobalTypeDef *USBx, USB_OTG_ModeTypeDef mode)
 250:Drivers/STM32H7xx_HAL_Driver/Src/stm32h7xx_ll_usb.c **** {
 251:Drivers/STM32H7xx_HAL_Driver/Src/stm32h7xx_ll_usb.c ****   USBx->GUSBCFG &= ~(USB_OTG_GUSBCFG_FHMOD | USB_OTG_GUSBCFG_FDMOD);
 252:Drivers/STM32H7xx_HAL_Driver/Src/stm32h7xx_ll_usb.c **** 
 253:Drivers/STM32H7xx_HAL_Driver/Src/stm32h7xx_ll_usb.c ****   if (mode == USB_HOST_MODE)
 254:Drivers/STM32H7xx_HAL_Driver/Src/stm32h7xx_ll_usb.c ****   {
 255:Drivers/STM32H7xx_HAL_Driver/Src/stm32h7xx_ll_usb.c ****     USBx->GUSBCFG |= USB_OTG_GUSBCFG_FHMOD;
 256:Drivers/STM32H7xx_HAL_Driver/Src/stm32h7xx_ll_usb.c ****   }
 257:Drivers/STM32H7xx_HAL_Driver/Src/stm32h7xx_ll_usb.c ****   else if (mode == USB_DEVICE_MODE)
 258:Drivers/STM32H7xx_HAL_Driver/Src/stm32h7xx_ll_usb.c ****   {
 259:Drivers/STM32H7xx_HAL_Driver/Src/stm32h7xx_ll_usb.c ****     USBx->GUSBCFG |= USB_OTG_GUSBCFG_FDMOD;
 260:Drivers/STM32H7xx_HAL_Driver/Src/stm32h7xx_ll_usb.c ****   }
 261:Drivers/STM32H7xx_HAL_Driver/Src/stm32h7xx_ll_usb.c ****   else
ARM GAS  /tmp/ccCJnE45.s 			page 6


 262:Drivers/STM32H7xx_HAL_Driver/Src/stm32h7xx_ll_usb.c ****   {
 263:Drivers/STM32H7xx_HAL_Driver/Src/stm32h7xx_ll_usb.c ****     return HAL_ERROR;
 264:Drivers/STM32H7xx_HAL_Driver/Src/stm32h7xx_ll_usb.c ****   }
 265:Drivers/STM32H7xx_HAL_Driver/Src/stm32h7xx_ll_usb.c ****   HAL_Delay(50U);
 266:Drivers/STM32H7xx_HAL_Driver/Src/stm32h7xx_ll_usb.c **** 
 267:Drivers/STM32H7xx_HAL_Driver/Src/stm32h7xx_ll_usb.c ****   return HAL_OK;
 268:Drivers/STM32H7xx_HAL_Driver/Src/stm32h7xx_ll_usb.c **** }
 269:Drivers/STM32H7xx_HAL_Driver/Src/stm32h7xx_ll_usb.c **** 
 270:Drivers/STM32H7xx_HAL_Driver/Src/stm32h7xx_ll_usb.c **** /**
 271:Drivers/STM32H7xx_HAL_Driver/Src/stm32h7xx_ll_usb.c ****   * @brief  USB_DevInit : Initializes the USB_OTG controller registers
 272:Drivers/STM32H7xx_HAL_Driver/Src/stm32h7xx_ll_usb.c ****   *         for device mode
 273:Drivers/STM32H7xx_HAL_Driver/Src/stm32h7xx_ll_usb.c ****   * @param  USBx  Selected device
 274:Drivers/STM32H7xx_HAL_Driver/Src/stm32h7xx_ll_usb.c ****   * @param  cfg   pointer to a USB_OTG_CfgTypeDef structure that contains
 275:Drivers/STM32H7xx_HAL_Driver/Src/stm32h7xx_ll_usb.c ****   *         the configuration information for the specified USBx peripheral.
 276:Drivers/STM32H7xx_HAL_Driver/Src/stm32h7xx_ll_usb.c ****   * @retval HAL status
 277:Drivers/STM32H7xx_HAL_Driver/Src/stm32h7xx_ll_usb.c ****   */
 278:Drivers/STM32H7xx_HAL_Driver/Src/stm32h7xx_ll_usb.c **** HAL_StatusTypeDef USB_DevInit(USB_OTG_GlobalTypeDef *USBx, USB_OTG_CfgTypeDef cfg)
 279:Drivers/STM32H7xx_HAL_Driver/Src/stm32h7xx_ll_usb.c **** {
 280:Drivers/STM32H7xx_HAL_Driver/Src/stm32h7xx_ll_usb.c ****   HAL_StatusTypeDef ret = HAL_OK;
 281:Drivers/STM32H7xx_HAL_Driver/Src/stm32h7xx_ll_usb.c ****   uint32_t USBx_BASE = (uint32_t)USBx;
 282:Drivers/STM32H7xx_HAL_Driver/Src/stm32h7xx_ll_usb.c ****   uint32_t i;
 283:Drivers/STM32H7xx_HAL_Driver/Src/stm32h7xx_ll_usb.c **** 
 284:Drivers/STM32H7xx_HAL_Driver/Src/stm32h7xx_ll_usb.c ****   for (i = 0U; i < 15U; i++)
 285:Drivers/STM32H7xx_HAL_Driver/Src/stm32h7xx_ll_usb.c ****   {
 286:Drivers/STM32H7xx_HAL_Driver/Src/stm32h7xx_ll_usb.c ****     USBx->DIEPTXF[i] = 0U;
 287:Drivers/STM32H7xx_HAL_Driver/Src/stm32h7xx_ll_usb.c ****   }
 288:Drivers/STM32H7xx_HAL_Driver/Src/stm32h7xx_ll_usb.c **** 
 289:Drivers/STM32H7xx_HAL_Driver/Src/stm32h7xx_ll_usb.c ****   /* VBUS Sensing setup */
 290:Drivers/STM32H7xx_HAL_Driver/Src/stm32h7xx_ll_usb.c ****   if (cfg.vbus_sensing_enable == 0U)
 291:Drivers/STM32H7xx_HAL_Driver/Src/stm32h7xx_ll_usb.c ****   {
 292:Drivers/STM32H7xx_HAL_Driver/Src/stm32h7xx_ll_usb.c ****     USBx_DEVICE->DCTL |= USB_OTG_DCTL_SDIS;
 293:Drivers/STM32H7xx_HAL_Driver/Src/stm32h7xx_ll_usb.c **** 
 294:Drivers/STM32H7xx_HAL_Driver/Src/stm32h7xx_ll_usb.c ****     /* Deactivate VBUS Sensing B */
 295:Drivers/STM32H7xx_HAL_Driver/Src/stm32h7xx_ll_usb.c ****     USBx->GCCFG &= ~USB_OTG_GCCFG_VBDEN;
 296:Drivers/STM32H7xx_HAL_Driver/Src/stm32h7xx_ll_usb.c **** 
 297:Drivers/STM32H7xx_HAL_Driver/Src/stm32h7xx_ll_usb.c ****     /* B-peripheral session valid override enable */
 298:Drivers/STM32H7xx_HAL_Driver/Src/stm32h7xx_ll_usb.c ****     USBx->GOTGCTL |= USB_OTG_GOTGCTL_BVALOEN;
 299:Drivers/STM32H7xx_HAL_Driver/Src/stm32h7xx_ll_usb.c ****     USBx->GOTGCTL |= USB_OTG_GOTGCTL_BVALOVAL;
 300:Drivers/STM32H7xx_HAL_Driver/Src/stm32h7xx_ll_usb.c ****   }
 301:Drivers/STM32H7xx_HAL_Driver/Src/stm32h7xx_ll_usb.c ****   else
 302:Drivers/STM32H7xx_HAL_Driver/Src/stm32h7xx_ll_usb.c ****   {
 303:Drivers/STM32H7xx_HAL_Driver/Src/stm32h7xx_ll_usb.c ****     /* Enable HW VBUS sensing */
 304:Drivers/STM32H7xx_HAL_Driver/Src/stm32h7xx_ll_usb.c ****     USBx->GCCFG |= USB_OTG_GCCFG_VBDEN;
 305:Drivers/STM32H7xx_HAL_Driver/Src/stm32h7xx_ll_usb.c ****   }
 306:Drivers/STM32H7xx_HAL_Driver/Src/stm32h7xx_ll_usb.c **** 
 307:Drivers/STM32H7xx_HAL_Driver/Src/stm32h7xx_ll_usb.c ****   /* Restart the Phy Clock */
 308:Drivers/STM32H7xx_HAL_Driver/Src/stm32h7xx_ll_usb.c ****   USBx_PCGCCTL = 0U;
 309:Drivers/STM32H7xx_HAL_Driver/Src/stm32h7xx_ll_usb.c **** 
 310:Drivers/STM32H7xx_HAL_Driver/Src/stm32h7xx_ll_usb.c ****   /* Device mode configuration */
 311:Drivers/STM32H7xx_HAL_Driver/Src/stm32h7xx_ll_usb.c ****   USBx_DEVICE->DCFG |= DCFG_FRAME_INTERVAL_80;
 312:Drivers/STM32H7xx_HAL_Driver/Src/stm32h7xx_ll_usb.c **** 
 313:Drivers/STM32H7xx_HAL_Driver/Src/stm32h7xx_ll_usb.c ****   if (cfg.phy_itface == USB_OTG_ULPI_PHY)
 314:Drivers/STM32H7xx_HAL_Driver/Src/stm32h7xx_ll_usb.c ****   {
 315:Drivers/STM32H7xx_HAL_Driver/Src/stm32h7xx_ll_usb.c ****     if (cfg.speed == USBD_HS_SPEED)
 316:Drivers/STM32H7xx_HAL_Driver/Src/stm32h7xx_ll_usb.c ****     {
 317:Drivers/STM32H7xx_HAL_Driver/Src/stm32h7xx_ll_usb.c ****       /* Set Core speed to High speed mode */
 318:Drivers/STM32H7xx_HAL_Driver/Src/stm32h7xx_ll_usb.c ****       (void)USB_SetDevSpeed(USBx, USB_OTG_SPEED_HIGH);
ARM GAS  /tmp/ccCJnE45.s 			page 7


 319:Drivers/STM32H7xx_HAL_Driver/Src/stm32h7xx_ll_usb.c ****     }
 320:Drivers/STM32H7xx_HAL_Driver/Src/stm32h7xx_ll_usb.c ****     else
 321:Drivers/STM32H7xx_HAL_Driver/Src/stm32h7xx_ll_usb.c ****     {
 322:Drivers/STM32H7xx_HAL_Driver/Src/stm32h7xx_ll_usb.c ****       /* Set Core speed to Full speed mode */
 323:Drivers/STM32H7xx_HAL_Driver/Src/stm32h7xx_ll_usb.c ****       (void)USB_SetDevSpeed(USBx, USB_OTG_SPEED_HIGH_IN_FULL);
 324:Drivers/STM32H7xx_HAL_Driver/Src/stm32h7xx_ll_usb.c ****     }
 325:Drivers/STM32H7xx_HAL_Driver/Src/stm32h7xx_ll_usb.c ****   }
 326:Drivers/STM32H7xx_HAL_Driver/Src/stm32h7xx_ll_usb.c ****   else
 327:Drivers/STM32H7xx_HAL_Driver/Src/stm32h7xx_ll_usb.c ****   {
 328:Drivers/STM32H7xx_HAL_Driver/Src/stm32h7xx_ll_usb.c ****     /* Set Core speed to Full speed mode */
 329:Drivers/STM32H7xx_HAL_Driver/Src/stm32h7xx_ll_usb.c ****     (void)USB_SetDevSpeed(USBx, USB_OTG_SPEED_FULL);
 330:Drivers/STM32H7xx_HAL_Driver/Src/stm32h7xx_ll_usb.c ****   }
 331:Drivers/STM32H7xx_HAL_Driver/Src/stm32h7xx_ll_usb.c **** 
 332:Drivers/STM32H7xx_HAL_Driver/Src/stm32h7xx_ll_usb.c ****   /* Flush the FIFOs */
 333:Drivers/STM32H7xx_HAL_Driver/Src/stm32h7xx_ll_usb.c ****   if (USB_FlushTxFifo(USBx, 0x10U) != HAL_OK) /* all Tx FIFOs */
 334:Drivers/STM32H7xx_HAL_Driver/Src/stm32h7xx_ll_usb.c ****   {
 335:Drivers/STM32H7xx_HAL_Driver/Src/stm32h7xx_ll_usb.c ****     ret = HAL_ERROR;
 336:Drivers/STM32H7xx_HAL_Driver/Src/stm32h7xx_ll_usb.c ****   }
 337:Drivers/STM32H7xx_HAL_Driver/Src/stm32h7xx_ll_usb.c **** 
 338:Drivers/STM32H7xx_HAL_Driver/Src/stm32h7xx_ll_usb.c ****   if (USB_FlushRxFifo(USBx) != HAL_OK)
 339:Drivers/STM32H7xx_HAL_Driver/Src/stm32h7xx_ll_usb.c ****   {
 340:Drivers/STM32H7xx_HAL_Driver/Src/stm32h7xx_ll_usb.c ****     ret = HAL_ERROR;
 341:Drivers/STM32H7xx_HAL_Driver/Src/stm32h7xx_ll_usb.c ****   }
 342:Drivers/STM32H7xx_HAL_Driver/Src/stm32h7xx_ll_usb.c **** 
 343:Drivers/STM32H7xx_HAL_Driver/Src/stm32h7xx_ll_usb.c ****   /* Clear all pending Device Interrupts */
 344:Drivers/STM32H7xx_HAL_Driver/Src/stm32h7xx_ll_usb.c ****   USBx_DEVICE->DIEPMSK = 0U;
 345:Drivers/STM32H7xx_HAL_Driver/Src/stm32h7xx_ll_usb.c ****   USBx_DEVICE->DOEPMSK = 0U;
 346:Drivers/STM32H7xx_HAL_Driver/Src/stm32h7xx_ll_usb.c ****   USBx_DEVICE->DAINTMSK = 0U;
 347:Drivers/STM32H7xx_HAL_Driver/Src/stm32h7xx_ll_usb.c **** 
 348:Drivers/STM32H7xx_HAL_Driver/Src/stm32h7xx_ll_usb.c ****   for (i = 0U; i < cfg.dev_endpoints; i++)
 349:Drivers/STM32H7xx_HAL_Driver/Src/stm32h7xx_ll_usb.c ****   {
 350:Drivers/STM32H7xx_HAL_Driver/Src/stm32h7xx_ll_usb.c ****     if ((USBx_INEP(i)->DIEPCTL & USB_OTG_DIEPCTL_EPENA) == USB_OTG_DIEPCTL_EPENA)
 351:Drivers/STM32H7xx_HAL_Driver/Src/stm32h7xx_ll_usb.c ****     {
 352:Drivers/STM32H7xx_HAL_Driver/Src/stm32h7xx_ll_usb.c ****       if (i == 0U)
 353:Drivers/STM32H7xx_HAL_Driver/Src/stm32h7xx_ll_usb.c ****       {
 354:Drivers/STM32H7xx_HAL_Driver/Src/stm32h7xx_ll_usb.c ****         USBx_INEP(i)->DIEPCTL = USB_OTG_DIEPCTL_SNAK;
 355:Drivers/STM32H7xx_HAL_Driver/Src/stm32h7xx_ll_usb.c ****       }
 356:Drivers/STM32H7xx_HAL_Driver/Src/stm32h7xx_ll_usb.c ****       else
 357:Drivers/STM32H7xx_HAL_Driver/Src/stm32h7xx_ll_usb.c ****       {
 358:Drivers/STM32H7xx_HAL_Driver/Src/stm32h7xx_ll_usb.c ****         USBx_INEP(i)->DIEPCTL = USB_OTG_DIEPCTL_EPDIS | USB_OTG_DIEPCTL_SNAK;
 359:Drivers/STM32H7xx_HAL_Driver/Src/stm32h7xx_ll_usb.c ****       }
 360:Drivers/STM32H7xx_HAL_Driver/Src/stm32h7xx_ll_usb.c ****     }
 361:Drivers/STM32H7xx_HAL_Driver/Src/stm32h7xx_ll_usb.c ****     else
 362:Drivers/STM32H7xx_HAL_Driver/Src/stm32h7xx_ll_usb.c ****     {
 363:Drivers/STM32H7xx_HAL_Driver/Src/stm32h7xx_ll_usb.c ****       USBx_INEP(i)->DIEPCTL = 0U;
 364:Drivers/STM32H7xx_HAL_Driver/Src/stm32h7xx_ll_usb.c ****     }
 365:Drivers/STM32H7xx_HAL_Driver/Src/stm32h7xx_ll_usb.c **** 
 366:Drivers/STM32H7xx_HAL_Driver/Src/stm32h7xx_ll_usb.c ****     USBx_INEP(i)->DIEPTSIZ = 0U;
 367:Drivers/STM32H7xx_HAL_Driver/Src/stm32h7xx_ll_usb.c ****     USBx_INEP(i)->DIEPINT  = 0xFB7FU;
 368:Drivers/STM32H7xx_HAL_Driver/Src/stm32h7xx_ll_usb.c ****   }
 369:Drivers/STM32H7xx_HAL_Driver/Src/stm32h7xx_ll_usb.c **** 
 370:Drivers/STM32H7xx_HAL_Driver/Src/stm32h7xx_ll_usb.c ****   for (i = 0U; i < cfg.dev_endpoints; i++)
 371:Drivers/STM32H7xx_HAL_Driver/Src/stm32h7xx_ll_usb.c ****   {
 372:Drivers/STM32H7xx_HAL_Driver/Src/stm32h7xx_ll_usb.c ****     if ((USBx_OUTEP(i)->DOEPCTL & USB_OTG_DOEPCTL_EPENA) == USB_OTG_DOEPCTL_EPENA)
 373:Drivers/STM32H7xx_HAL_Driver/Src/stm32h7xx_ll_usb.c ****     {
 374:Drivers/STM32H7xx_HAL_Driver/Src/stm32h7xx_ll_usb.c ****       if (i == 0U)
 375:Drivers/STM32H7xx_HAL_Driver/Src/stm32h7xx_ll_usb.c ****       {
ARM GAS  /tmp/ccCJnE45.s 			page 8


 376:Drivers/STM32H7xx_HAL_Driver/Src/stm32h7xx_ll_usb.c ****         USBx_OUTEP(i)->DOEPCTL = USB_OTG_DOEPCTL_SNAK;
 377:Drivers/STM32H7xx_HAL_Driver/Src/stm32h7xx_ll_usb.c ****       }
 378:Drivers/STM32H7xx_HAL_Driver/Src/stm32h7xx_ll_usb.c ****       else
 379:Drivers/STM32H7xx_HAL_Driver/Src/stm32h7xx_ll_usb.c ****       {
 380:Drivers/STM32H7xx_HAL_Driver/Src/stm32h7xx_ll_usb.c ****         USBx_OUTEP(i)->DOEPCTL = USB_OTG_DOEPCTL_EPDIS | USB_OTG_DOEPCTL_SNAK;
 381:Drivers/STM32H7xx_HAL_Driver/Src/stm32h7xx_ll_usb.c ****       }
 382:Drivers/STM32H7xx_HAL_Driver/Src/stm32h7xx_ll_usb.c ****     }
 383:Drivers/STM32H7xx_HAL_Driver/Src/stm32h7xx_ll_usb.c ****     else
 384:Drivers/STM32H7xx_HAL_Driver/Src/stm32h7xx_ll_usb.c ****     {
 385:Drivers/STM32H7xx_HAL_Driver/Src/stm32h7xx_ll_usb.c ****       USBx_OUTEP(i)->DOEPCTL = 0U;
 386:Drivers/STM32H7xx_HAL_Driver/Src/stm32h7xx_ll_usb.c ****     }
 387:Drivers/STM32H7xx_HAL_Driver/Src/stm32h7xx_ll_usb.c **** 
 388:Drivers/STM32H7xx_HAL_Driver/Src/stm32h7xx_ll_usb.c ****     USBx_OUTEP(i)->DOEPTSIZ = 0U;
 389:Drivers/STM32H7xx_HAL_Driver/Src/stm32h7xx_ll_usb.c ****     USBx_OUTEP(i)->DOEPINT  = 0xFB7FU;
 390:Drivers/STM32H7xx_HAL_Driver/Src/stm32h7xx_ll_usb.c ****   }
 391:Drivers/STM32H7xx_HAL_Driver/Src/stm32h7xx_ll_usb.c **** 
 392:Drivers/STM32H7xx_HAL_Driver/Src/stm32h7xx_ll_usb.c ****   USBx_DEVICE->DIEPMSK &= ~(USB_OTG_DIEPMSK_TXFURM);
 393:Drivers/STM32H7xx_HAL_Driver/Src/stm32h7xx_ll_usb.c **** 
 394:Drivers/STM32H7xx_HAL_Driver/Src/stm32h7xx_ll_usb.c ****   /* Disable all interrupts. */
 395:Drivers/STM32H7xx_HAL_Driver/Src/stm32h7xx_ll_usb.c ****   USBx->GINTMSK = 0U;
 396:Drivers/STM32H7xx_HAL_Driver/Src/stm32h7xx_ll_usb.c **** 
 397:Drivers/STM32H7xx_HAL_Driver/Src/stm32h7xx_ll_usb.c ****   /* Clear any pending interrupts */
 398:Drivers/STM32H7xx_HAL_Driver/Src/stm32h7xx_ll_usb.c ****   USBx->GINTSTS = 0xBFFFFFFFU;
 399:Drivers/STM32H7xx_HAL_Driver/Src/stm32h7xx_ll_usb.c **** 
 400:Drivers/STM32H7xx_HAL_Driver/Src/stm32h7xx_ll_usb.c ****   /* Enable the common interrupts */
 401:Drivers/STM32H7xx_HAL_Driver/Src/stm32h7xx_ll_usb.c ****   if (cfg.dma_enable == 0U)
 402:Drivers/STM32H7xx_HAL_Driver/Src/stm32h7xx_ll_usb.c ****   {
 403:Drivers/STM32H7xx_HAL_Driver/Src/stm32h7xx_ll_usb.c ****     USBx->GINTMSK |= USB_OTG_GINTMSK_RXFLVLM;
 404:Drivers/STM32H7xx_HAL_Driver/Src/stm32h7xx_ll_usb.c ****   }
 405:Drivers/STM32H7xx_HAL_Driver/Src/stm32h7xx_ll_usb.c **** 
 406:Drivers/STM32H7xx_HAL_Driver/Src/stm32h7xx_ll_usb.c ****   /* Enable interrupts matching to the Device mode ONLY */
 407:Drivers/STM32H7xx_HAL_Driver/Src/stm32h7xx_ll_usb.c ****   USBx->GINTMSK |= USB_OTG_GINTMSK_USBSUSPM | USB_OTG_GINTMSK_USBRST |
 408:Drivers/STM32H7xx_HAL_Driver/Src/stm32h7xx_ll_usb.c ****                    USB_OTG_GINTMSK_ENUMDNEM | USB_OTG_GINTMSK_IEPINT |
 409:Drivers/STM32H7xx_HAL_Driver/Src/stm32h7xx_ll_usb.c ****                    USB_OTG_GINTMSK_OEPINT   | USB_OTG_GINTMSK_IISOIXFRM |
 410:Drivers/STM32H7xx_HAL_Driver/Src/stm32h7xx_ll_usb.c ****                    USB_OTG_GINTMSK_PXFRM_IISOOXFRM | USB_OTG_GINTMSK_WUIM;
 411:Drivers/STM32H7xx_HAL_Driver/Src/stm32h7xx_ll_usb.c **** 
 412:Drivers/STM32H7xx_HAL_Driver/Src/stm32h7xx_ll_usb.c ****   if (cfg.Sof_enable != 0U)
 413:Drivers/STM32H7xx_HAL_Driver/Src/stm32h7xx_ll_usb.c ****   {
 414:Drivers/STM32H7xx_HAL_Driver/Src/stm32h7xx_ll_usb.c ****     USBx->GINTMSK |= USB_OTG_GINTMSK_SOFM;
 415:Drivers/STM32H7xx_HAL_Driver/Src/stm32h7xx_ll_usb.c ****   }
 416:Drivers/STM32H7xx_HAL_Driver/Src/stm32h7xx_ll_usb.c **** 
 417:Drivers/STM32H7xx_HAL_Driver/Src/stm32h7xx_ll_usb.c ****   if (cfg.vbus_sensing_enable == 1U)
 418:Drivers/STM32H7xx_HAL_Driver/Src/stm32h7xx_ll_usb.c ****   {
 419:Drivers/STM32H7xx_HAL_Driver/Src/stm32h7xx_ll_usb.c ****     USBx->GINTMSK |= (USB_OTG_GINTMSK_SRQIM | USB_OTG_GINTMSK_OTGINT);
 420:Drivers/STM32H7xx_HAL_Driver/Src/stm32h7xx_ll_usb.c ****   }
 421:Drivers/STM32H7xx_HAL_Driver/Src/stm32h7xx_ll_usb.c **** 
 422:Drivers/STM32H7xx_HAL_Driver/Src/stm32h7xx_ll_usb.c ****   return ret;
 423:Drivers/STM32H7xx_HAL_Driver/Src/stm32h7xx_ll_usb.c **** }
 424:Drivers/STM32H7xx_HAL_Driver/Src/stm32h7xx_ll_usb.c **** 
 425:Drivers/STM32H7xx_HAL_Driver/Src/stm32h7xx_ll_usb.c **** /**
 426:Drivers/STM32H7xx_HAL_Driver/Src/stm32h7xx_ll_usb.c ****   * @brief  USB_OTG_FlushTxFifo : Flush a Tx FIFO
 427:Drivers/STM32H7xx_HAL_Driver/Src/stm32h7xx_ll_usb.c ****   * @param  USBx  Selected device
 428:Drivers/STM32H7xx_HAL_Driver/Src/stm32h7xx_ll_usb.c ****   * @param  num  FIFO number
 429:Drivers/STM32H7xx_HAL_Driver/Src/stm32h7xx_ll_usb.c ****   *         This parameter can be a value from 1 to 15
 430:Drivers/STM32H7xx_HAL_Driver/Src/stm32h7xx_ll_usb.c ****             15 means Flush all Tx FIFOs
 431:Drivers/STM32H7xx_HAL_Driver/Src/stm32h7xx_ll_usb.c ****   * @retval HAL status
 432:Drivers/STM32H7xx_HAL_Driver/Src/stm32h7xx_ll_usb.c ****   */
ARM GAS  /tmp/ccCJnE45.s 			page 9


 433:Drivers/STM32H7xx_HAL_Driver/Src/stm32h7xx_ll_usb.c **** HAL_StatusTypeDef USB_FlushTxFifo(USB_OTG_GlobalTypeDef *USBx, uint32_t num)
 434:Drivers/STM32H7xx_HAL_Driver/Src/stm32h7xx_ll_usb.c **** {
 435:Drivers/STM32H7xx_HAL_Driver/Src/stm32h7xx_ll_usb.c ****   uint32_t count = 0U;
 436:Drivers/STM32H7xx_HAL_Driver/Src/stm32h7xx_ll_usb.c **** 
 437:Drivers/STM32H7xx_HAL_Driver/Src/stm32h7xx_ll_usb.c ****   USBx->GRSTCTL = (USB_OTG_GRSTCTL_TXFFLSH | (num << 6));
 438:Drivers/STM32H7xx_HAL_Driver/Src/stm32h7xx_ll_usb.c **** 
 439:Drivers/STM32H7xx_HAL_Driver/Src/stm32h7xx_ll_usb.c ****   do
 440:Drivers/STM32H7xx_HAL_Driver/Src/stm32h7xx_ll_usb.c ****   {
 441:Drivers/STM32H7xx_HAL_Driver/Src/stm32h7xx_ll_usb.c ****     if (++count > 200000U)
 442:Drivers/STM32H7xx_HAL_Driver/Src/stm32h7xx_ll_usb.c ****     {
 443:Drivers/STM32H7xx_HAL_Driver/Src/stm32h7xx_ll_usb.c ****       return HAL_TIMEOUT;
 444:Drivers/STM32H7xx_HAL_Driver/Src/stm32h7xx_ll_usb.c ****     }
 445:Drivers/STM32H7xx_HAL_Driver/Src/stm32h7xx_ll_usb.c ****   }
 446:Drivers/STM32H7xx_HAL_Driver/Src/stm32h7xx_ll_usb.c ****   while ((USBx->GRSTCTL & USB_OTG_GRSTCTL_TXFFLSH) == USB_OTG_GRSTCTL_TXFFLSH);
 447:Drivers/STM32H7xx_HAL_Driver/Src/stm32h7xx_ll_usb.c **** 
 448:Drivers/STM32H7xx_HAL_Driver/Src/stm32h7xx_ll_usb.c ****   return HAL_OK;
 449:Drivers/STM32H7xx_HAL_Driver/Src/stm32h7xx_ll_usb.c **** }
 450:Drivers/STM32H7xx_HAL_Driver/Src/stm32h7xx_ll_usb.c **** 
 451:Drivers/STM32H7xx_HAL_Driver/Src/stm32h7xx_ll_usb.c **** /**
 452:Drivers/STM32H7xx_HAL_Driver/Src/stm32h7xx_ll_usb.c ****   * @brief  USB_FlushRxFifo : Flush Rx FIFO
 453:Drivers/STM32H7xx_HAL_Driver/Src/stm32h7xx_ll_usb.c ****   * @param  USBx  Selected device
 454:Drivers/STM32H7xx_HAL_Driver/Src/stm32h7xx_ll_usb.c ****   * @retval HAL status
 455:Drivers/STM32H7xx_HAL_Driver/Src/stm32h7xx_ll_usb.c ****   */
 456:Drivers/STM32H7xx_HAL_Driver/Src/stm32h7xx_ll_usb.c **** HAL_StatusTypeDef USB_FlushRxFifo(USB_OTG_GlobalTypeDef *USBx)
 457:Drivers/STM32H7xx_HAL_Driver/Src/stm32h7xx_ll_usb.c **** {
 458:Drivers/STM32H7xx_HAL_Driver/Src/stm32h7xx_ll_usb.c ****   uint32_t count = 0;
 459:Drivers/STM32H7xx_HAL_Driver/Src/stm32h7xx_ll_usb.c **** 
 460:Drivers/STM32H7xx_HAL_Driver/Src/stm32h7xx_ll_usb.c ****   USBx->GRSTCTL = USB_OTG_GRSTCTL_RXFFLSH;
 461:Drivers/STM32H7xx_HAL_Driver/Src/stm32h7xx_ll_usb.c **** 
 462:Drivers/STM32H7xx_HAL_Driver/Src/stm32h7xx_ll_usb.c ****   do
 463:Drivers/STM32H7xx_HAL_Driver/Src/stm32h7xx_ll_usb.c ****   {
 464:Drivers/STM32H7xx_HAL_Driver/Src/stm32h7xx_ll_usb.c ****     if (++count > 200000U)
 465:Drivers/STM32H7xx_HAL_Driver/Src/stm32h7xx_ll_usb.c ****     {
 466:Drivers/STM32H7xx_HAL_Driver/Src/stm32h7xx_ll_usb.c ****       return HAL_TIMEOUT;
 467:Drivers/STM32H7xx_HAL_Driver/Src/stm32h7xx_ll_usb.c ****     }
 468:Drivers/STM32H7xx_HAL_Driver/Src/stm32h7xx_ll_usb.c ****   }
 469:Drivers/STM32H7xx_HAL_Driver/Src/stm32h7xx_ll_usb.c ****   while ((USBx->GRSTCTL & USB_OTG_GRSTCTL_RXFFLSH) == USB_OTG_GRSTCTL_RXFFLSH);
 470:Drivers/STM32H7xx_HAL_Driver/Src/stm32h7xx_ll_usb.c **** 
 471:Drivers/STM32H7xx_HAL_Driver/Src/stm32h7xx_ll_usb.c ****   return HAL_OK;
 472:Drivers/STM32H7xx_HAL_Driver/Src/stm32h7xx_ll_usb.c **** }
 473:Drivers/STM32H7xx_HAL_Driver/Src/stm32h7xx_ll_usb.c **** 
 474:Drivers/STM32H7xx_HAL_Driver/Src/stm32h7xx_ll_usb.c **** /**
 475:Drivers/STM32H7xx_HAL_Driver/Src/stm32h7xx_ll_usb.c ****   * @brief  USB_SetDevSpeed  Initializes the DevSpd field of DCFG register
 476:Drivers/STM32H7xx_HAL_Driver/Src/stm32h7xx_ll_usb.c ****   *         depending the PHY type and the enumeration speed of the device.
 477:Drivers/STM32H7xx_HAL_Driver/Src/stm32h7xx_ll_usb.c ****   * @param  USBx  Selected device
 478:Drivers/STM32H7xx_HAL_Driver/Src/stm32h7xx_ll_usb.c ****   * @param  speed  device speed
 479:Drivers/STM32H7xx_HAL_Driver/Src/stm32h7xx_ll_usb.c ****   *          This parameter can be one of these values:
 480:Drivers/STM32H7xx_HAL_Driver/Src/stm32h7xx_ll_usb.c ****   *            @arg USB_OTG_SPEED_HIGH: High speed mode
 481:Drivers/STM32H7xx_HAL_Driver/Src/stm32h7xx_ll_usb.c ****   *            @arg USB_OTG_SPEED_HIGH_IN_FULL: High speed core in Full Speed mode
 482:Drivers/STM32H7xx_HAL_Driver/Src/stm32h7xx_ll_usb.c ****   *            @arg USB_OTG_SPEED_FULL: Full speed mode
 483:Drivers/STM32H7xx_HAL_Driver/Src/stm32h7xx_ll_usb.c ****   * @retval  Hal status
 484:Drivers/STM32H7xx_HAL_Driver/Src/stm32h7xx_ll_usb.c ****   */
 485:Drivers/STM32H7xx_HAL_Driver/Src/stm32h7xx_ll_usb.c **** HAL_StatusTypeDef USB_SetDevSpeed(USB_OTG_GlobalTypeDef *USBx, uint8_t speed)
 486:Drivers/STM32H7xx_HAL_Driver/Src/stm32h7xx_ll_usb.c **** {
 487:Drivers/STM32H7xx_HAL_Driver/Src/stm32h7xx_ll_usb.c ****   uint32_t USBx_BASE = (uint32_t)USBx;
 488:Drivers/STM32H7xx_HAL_Driver/Src/stm32h7xx_ll_usb.c **** 
 489:Drivers/STM32H7xx_HAL_Driver/Src/stm32h7xx_ll_usb.c ****   USBx_DEVICE->DCFG |= speed;
ARM GAS  /tmp/ccCJnE45.s 			page 10


 490:Drivers/STM32H7xx_HAL_Driver/Src/stm32h7xx_ll_usb.c ****   return HAL_OK;
 491:Drivers/STM32H7xx_HAL_Driver/Src/stm32h7xx_ll_usb.c **** }
 492:Drivers/STM32H7xx_HAL_Driver/Src/stm32h7xx_ll_usb.c **** 
 493:Drivers/STM32H7xx_HAL_Driver/Src/stm32h7xx_ll_usb.c **** /**
 494:Drivers/STM32H7xx_HAL_Driver/Src/stm32h7xx_ll_usb.c ****   * @brief  USB_GetDevSpeed  Return the Dev Speed
 495:Drivers/STM32H7xx_HAL_Driver/Src/stm32h7xx_ll_usb.c ****   * @param  USBx  Selected device
 496:Drivers/STM32H7xx_HAL_Driver/Src/stm32h7xx_ll_usb.c ****   * @retval speed  device speed
 497:Drivers/STM32H7xx_HAL_Driver/Src/stm32h7xx_ll_usb.c ****   *          This parameter can be one of these values:
 498:Drivers/STM32H7xx_HAL_Driver/Src/stm32h7xx_ll_usb.c ****   *            @arg PCD_SPEED_HIGH: High speed mode
 499:Drivers/STM32H7xx_HAL_Driver/Src/stm32h7xx_ll_usb.c ****   *            @arg PCD_SPEED_FULL: Full speed mode
 500:Drivers/STM32H7xx_HAL_Driver/Src/stm32h7xx_ll_usb.c ****   */
 501:Drivers/STM32H7xx_HAL_Driver/Src/stm32h7xx_ll_usb.c **** uint8_t USB_GetDevSpeed(USB_OTG_GlobalTypeDef *USBx)
 502:Drivers/STM32H7xx_HAL_Driver/Src/stm32h7xx_ll_usb.c **** {
 503:Drivers/STM32H7xx_HAL_Driver/Src/stm32h7xx_ll_usb.c ****   uint32_t USBx_BASE = (uint32_t)USBx;
 504:Drivers/STM32H7xx_HAL_Driver/Src/stm32h7xx_ll_usb.c ****   uint8_t speed;
 505:Drivers/STM32H7xx_HAL_Driver/Src/stm32h7xx_ll_usb.c ****   uint32_t DevEnumSpeed = USBx_DEVICE->DSTS & USB_OTG_DSTS_ENUMSPD;
 506:Drivers/STM32H7xx_HAL_Driver/Src/stm32h7xx_ll_usb.c **** 
 507:Drivers/STM32H7xx_HAL_Driver/Src/stm32h7xx_ll_usb.c ****   if (DevEnumSpeed == DSTS_ENUMSPD_HS_PHY_30MHZ_OR_60MHZ)
 508:Drivers/STM32H7xx_HAL_Driver/Src/stm32h7xx_ll_usb.c ****   {
 509:Drivers/STM32H7xx_HAL_Driver/Src/stm32h7xx_ll_usb.c ****     speed = USBD_HS_SPEED;
 510:Drivers/STM32H7xx_HAL_Driver/Src/stm32h7xx_ll_usb.c ****   }
 511:Drivers/STM32H7xx_HAL_Driver/Src/stm32h7xx_ll_usb.c ****   else if ((DevEnumSpeed == DSTS_ENUMSPD_FS_PHY_30MHZ_OR_60MHZ) ||
 512:Drivers/STM32H7xx_HAL_Driver/Src/stm32h7xx_ll_usb.c ****            (DevEnumSpeed == DSTS_ENUMSPD_FS_PHY_48MHZ))
 513:Drivers/STM32H7xx_HAL_Driver/Src/stm32h7xx_ll_usb.c ****   {
 514:Drivers/STM32H7xx_HAL_Driver/Src/stm32h7xx_ll_usb.c ****     speed = USBD_FS_SPEED;
 515:Drivers/STM32H7xx_HAL_Driver/Src/stm32h7xx_ll_usb.c ****   }
 516:Drivers/STM32H7xx_HAL_Driver/Src/stm32h7xx_ll_usb.c ****   else
 517:Drivers/STM32H7xx_HAL_Driver/Src/stm32h7xx_ll_usb.c ****   {
 518:Drivers/STM32H7xx_HAL_Driver/Src/stm32h7xx_ll_usb.c ****     speed = 0xFU;
 519:Drivers/STM32H7xx_HAL_Driver/Src/stm32h7xx_ll_usb.c ****   }
 520:Drivers/STM32H7xx_HAL_Driver/Src/stm32h7xx_ll_usb.c **** 
 521:Drivers/STM32H7xx_HAL_Driver/Src/stm32h7xx_ll_usb.c ****   return speed;
 522:Drivers/STM32H7xx_HAL_Driver/Src/stm32h7xx_ll_usb.c **** }
 523:Drivers/STM32H7xx_HAL_Driver/Src/stm32h7xx_ll_usb.c **** 
 524:Drivers/STM32H7xx_HAL_Driver/Src/stm32h7xx_ll_usb.c **** /**
 525:Drivers/STM32H7xx_HAL_Driver/Src/stm32h7xx_ll_usb.c ****   * @brief  Activate and configure an endpoint
 526:Drivers/STM32H7xx_HAL_Driver/Src/stm32h7xx_ll_usb.c ****   * @param  USBx  Selected device
 527:Drivers/STM32H7xx_HAL_Driver/Src/stm32h7xx_ll_usb.c ****   * @param  ep pointer to endpoint structure
 528:Drivers/STM32H7xx_HAL_Driver/Src/stm32h7xx_ll_usb.c ****   * @retval HAL status
 529:Drivers/STM32H7xx_HAL_Driver/Src/stm32h7xx_ll_usb.c ****   */
 530:Drivers/STM32H7xx_HAL_Driver/Src/stm32h7xx_ll_usb.c **** HAL_StatusTypeDef USB_ActivateEndpoint(USB_OTG_GlobalTypeDef *USBx, USB_OTG_EPTypeDef *ep)
 531:Drivers/STM32H7xx_HAL_Driver/Src/stm32h7xx_ll_usb.c **** {
 532:Drivers/STM32H7xx_HAL_Driver/Src/stm32h7xx_ll_usb.c ****   uint32_t USBx_BASE = (uint32_t)USBx;
 533:Drivers/STM32H7xx_HAL_Driver/Src/stm32h7xx_ll_usb.c ****   uint32_t epnum = (uint32_t)ep->num;
 534:Drivers/STM32H7xx_HAL_Driver/Src/stm32h7xx_ll_usb.c **** 
 535:Drivers/STM32H7xx_HAL_Driver/Src/stm32h7xx_ll_usb.c ****   if (ep->is_in == 1U)
 536:Drivers/STM32H7xx_HAL_Driver/Src/stm32h7xx_ll_usb.c ****   {
 537:Drivers/STM32H7xx_HAL_Driver/Src/stm32h7xx_ll_usb.c ****     USBx_DEVICE->DAINTMSK |= USB_OTG_DAINTMSK_IEPM & (uint32_t)(1UL << (ep->num & EP_ADDR_MSK));
 538:Drivers/STM32H7xx_HAL_Driver/Src/stm32h7xx_ll_usb.c **** 
 539:Drivers/STM32H7xx_HAL_Driver/Src/stm32h7xx_ll_usb.c ****     if ((USBx_INEP(epnum)->DIEPCTL & USB_OTG_DIEPCTL_USBAEP) == 0U)
 540:Drivers/STM32H7xx_HAL_Driver/Src/stm32h7xx_ll_usb.c ****     {
 541:Drivers/STM32H7xx_HAL_Driver/Src/stm32h7xx_ll_usb.c ****       USBx_INEP(epnum)->DIEPCTL |= (ep->maxpacket & USB_OTG_DIEPCTL_MPSIZ) |
 542:Drivers/STM32H7xx_HAL_Driver/Src/stm32h7xx_ll_usb.c ****                                    ((uint32_t)ep->type << 18) | (epnum << 22) |
 543:Drivers/STM32H7xx_HAL_Driver/Src/stm32h7xx_ll_usb.c ****                                    USB_OTG_DIEPCTL_SD0PID_SEVNFRM |
 544:Drivers/STM32H7xx_HAL_Driver/Src/stm32h7xx_ll_usb.c ****                                    USB_OTG_DIEPCTL_USBAEP;
 545:Drivers/STM32H7xx_HAL_Driver/Src/stm32h7xx_ll_usb.c ****     }
 546:Drivers/STM32H7xx_HAL_Driver/Src/stm32h7xx_ll_usb.c ****   }
ARM GAS  /tmp/ccCJnE45.s 			page 11


 547:Drivers/STM32H7xx_HAL_Driver/Src/stm32h7xx_ll_usb.c ****   else
 548:Drivers/STM32H7xx_HAL_Driver/Src/stm32h7xx_ll_usb.c ****   {
 549:Drivers/STM32H7xx_HAL_Driver/Src/stm32h7xx_ll_usb.c ****     USBx_DEVICE->DAINTMSK |= USB_OTG_DAINTMSK_OEPM & ((uint32_t)(1UL << (ep->num & EP_ADDR_MSK)) <<
 550:Drivers/STM32H7xx_HAL_Driver/Src/stm32h7xx_ll_usb.c **** 
 551:Drivers/STM32H7xx_HAL_Driver/Src/stm32h7xx_ll_usb.c ****     if (((USBx_OUTEP(epnum)->DOEPCTL) & USB_OTG_DOEPCTL_USBAEP) == 0U)
 552:Drivers/STM32H7xx_HAL_Driver/Src/stm32h7xx_ll_usb.c ****     {
 553:Drivers/STM32H7xx_HAL_Driver/Src/stm32h7xx_ll_usb.c ****       USBx_OUTEP(epnum)->DOEPCTL |= (ep->maxpacket & USB_OTG_DOEPCTL_MPSIZ) |
 554:Drivers/STM32H7xx_HAL_Driver/Src/stm32h7xx_ll_usb.c ****                                     ((uint32_t)ep->type << 18) |
 555:Drivers/STM32H7xx_HAL_Driver/Src/stm32h7xx_ll_usb.c ****                                     USB_OTG_DIEPCTL_SD0PID_SEVNFRM |
 556:Drivers/STM32H7xx_HAL_Driver/Src/stm32h7xx_ll_usb.c ****                                     USB_OTG_DOEPCTL_USBAEP;
 557:Drivers/STM32H7xx_HAL_Driver/Src/stm32h7xx_ll_usb.c ****     }
 558:Drivers/STM32H7xx_HAL_Driver/Src/stm32h7xx_ll_usb.c ****   }
 559:Drivers/STM32H7xx_HAL_Driver/Src/stm32h7xx_ll_usb.c ****   return HAL_OK;
 560:Drivers/STM32H7xx_HAL_Driver/Src/stm32h7xx_ll_usb.c **** }
 561:Drivers/STM32H7xx_HAL_Driver/Src/stm32h7xx_ll_usb.c **** 
 562:Drivers/STM32H7xx_HAL_Driver/Src/stm32h7xx_ll_usb.c **** /**
 563:Drivers/STM32H7xx_HAL_Driver/Src/stm32h7xx_ll_usb.c ****   * @brief  Activate and configure a dedicated endpoint
 564:Drivers/STM32H7xx_HAL_Driver/Src/stm32h7xx_ll_usb.c ****   * @param  USBx  Selected device
 565:Drivers/STM32H7xx_HAL_Driver/Src/stm32h7xx_ll_usb.c ****   * @param  ep pointer to endpoint structure
 566:Drivers/STM32H7xx_HAL_Driver/Src/stm32h7xx_ll_usb.c ****   * @retval HAL status
 567:Drivers/STM32H7xx_HAL_Driver/Src/stm32h7xx_ll_usb.c ****   */
 568:Drivers/STM32H7xx_HAL_Driver/Src/stm32h7xx_ll_usb.c **** HAL_StatusTypeDef USB_ActivateDedicatedEndpoint(USB_OTG_GlobalTypeDef *USBx, USB_OTG_EPTypeDef *ep)
 569:Drivers/STM32H7xx_HAL_Driver/Src/stm32h7xx_ll_usb.c **** {
 570:Drivers/STM32H7xx_HAL_Driver/Src/stm32h7xx_ll_usb.c ****   uint32_t USBx_BASE = (uint32_t)USBx;
 571:Drivers/STM32H7xx_HAL_Driver/Src/stm32h7xx_ll_usb.c ****   uint32_t epnum = (uint32_t)ep->num;
 572:Drivers/STM32H7xx_HAL_Driver/Src/stm32h7xx_ll_usb.c **** 
 573:Drivers/STM32H7xx_HAL_Driver/Src/stm32h7xx_ll_usb.c ****   /* Read DEPCTLn register */
 574:Drivers/STM32H7xx_HAL_Driver/Src/stm32h7xx_ll_usb.c ****   if (ep->is_in == 1U)
 575:Drivers/STM32H7xx_HAL_Driver/Src/stm32h7xx_ll_usb.c ****   {
 576:Drivers/STM32H7xx_HAL_Driver/Src/stm32h7xx_ll_usb.c ****     if (((USBx_INEP(epnum)->DIEPCTL) & USB_OTG_DIEPCTL_USBAEP) == 0U)
 577:Drivers/STM32H7xx_HAL_Driver/Src/stm32h7xx_ll_usb.c ****     {
 578:Drivers/STM32H7xx_HAL_Driver/Src/stm32h7xx_ll_usb.c ****       USBx_INEP(epnum)->DIEPCTL |= (ep->maxpacket & USB_OTG_DIEPCTL_MPSIZ) |
 579:Drivers/STM32H7xx_HAL_Driver/Src/stm32h7xx_ll_usb.c ****                                    ((uint32_t)ep->type << 18) | (epnum << 22) |
 580:Drivers/STM32H7xx_HAL_Driver/Src/stm32h7xx_ll_usb.c ****                                    USB_OTG_DIEPCTL_SD0PID_SEVNFRM |
 581:Drivers/STM32H7xx_HAL_Driver/Src/stm32h7xx_ll_usb.c ****                                    USB_OTG_DIEPCTL_USBAEP;
 582:Drivers/STM32H7xx_HAL_Driver/Src/stm32h7xx_ll_usb.c ****     }
 583:Drivers/STM32H7xx_HAL_Driver/Src/stm32h7xx_ll_usb.c **** 
 584:Drivers/STM32H7xx_HAL_Driver/Src/stm32h7xx_ll_usb.c ****     USBx_DEVICE->DEACHMSK |= USB_OTG_DAINTMSK_IEPM & (uint32_t)(1UL << (ep->num & EP_ADDR_MSK));
 585:Drivers/STM32H7xx_HAL_Driver/Src/stm32h7xx_ll_usb.c ****   }
 586:Drivers/STM32H7xx_HAL_Driver/Src/stm32h7xx_ll_usb.c ****   else
 587:Drivers/STM32H7xx_HAL_Driver/Src/stm32h7xx_ll_usb.c ****   {
 588:Drivers/STM32H7xx_HAL_Driver/Src/stm32h7xx_ll_usb.c ****     if (((USBx_OUTEP(epnum)->DOEPCTL) & USB_OTG_DOEPCTL_USBAEP) == 0U)
 589:Drivers/STM32H7xx_HAL_Driver/Src/stm32h7xx_ll_usb.c ****     {
 590:Drivers/STM32H7xx_HAL_Driver/Src/stm32h7xx_ll_usb.c ****       USBx_OUTEP(epnum)->DOEPCTL |= (ep->maxpacket & USB_OTG_DOEPCTL_MPSIZ) |
 591:Drivers/STM32H7xx_HAL_Driver/Src/stm32h7xx_ll_usb.c ****                                     ((uint32_t)ep->type << 18) | (epnum << 22) |
 592:Drivers/STM32H7xx_HAL_Driver/Src/stm32h7xx_ll_usb.c ****                                     USB_OTG_DOEPCTL_USBAEP;
 593:Drivers/STM32H7xx_HAL_Driver/Src/stm32h7xx_ll_usb.c ****     }
 594:Drivers/STM32H7xx_HAL_Driver/Src/stm32h7xx_ll_usb.c **** 
 595:Drivers/STM32H7xx_HAL_Driver/Src/stm32h7xx_ll_usb.c ****     USBx_DEVICE->DEACHMSK |= USB_OTG_DAINTMSK_OEPM & ((uint32_t)(1UL << (ep->num & EP_ADDR_MSK)) <<
 596:Drivers/STM32H7xx_HAL_Driver/Src/stm32h7xx_ll_usb.c ****   }
 597:Drivers/STM32H7xx_HAL_Driver/Src/stm32h7xx_ll_usb.c **** 
 598:Drivers/STM32H7xx_HAL_Driver/Src/stm32h7xx_ll_usb.c ****   return HAL_OK;
 599:Drivers/STM32H7xx_HAL_Driver/Src/stm32h7xx_ll_usb.c **** }
 600:Drivers/STM32H7xx_HAL_Driver/Src/stm32h7xx_ll_usb.c **** 
 601:Drivers/STM32H7xx_HAL_Driver/Src/stm32h7xx_ll_usb.c **** /**
 602:Drivers/STM32H7xx_HAL_Driver/Src/stm32h7xx_ll_usb.c ****   * @brief  De-activate and de-initialize an endpoint
 603:Drivers/STM32H7xx_HAL_Driver/Src/stm32h7xx_ll_usb.c ****   * @param  USBx  Selected device
ARM GAS  /tmp/ccCJnE45.s 			page 12


 604:Drivers/STM32H7xx_HAL_Driver/Src/stm32h7xx_ll_usb.c ****   * @param  ep pointer to endpoint structure
 605:Drivers/STM32H7xx_HAL_Driver/Src/stm32h7xx_ll_usb.c ****   * @retval HAL status
 606:Drivers/STM32H7xx_HAL_Driver/Src/stm32h7xx_ll_usb.c ****   */
 607:Drivers/STM32H7xx_HAL_Driver/Src/stm32h7xx_ll_usb.c **** HAL_StatusTypeDef USB_DeactivateEndpoint(USB_OTG_GlobalTypeDef *USBx, USB_OTG_EPTypeDef *ep)
 608:Drivers/STM32H7xx_HAL_Driver/Src/stm32h7xx_ll_usb.c **** {
 609:Drivers/STM32H7xx_HAL_Driver/Src/stm32h7xx_ll_usb.c ****   uint32_t USBx_BASE = (uint32_t)USBx;
 610:Drivers/STM32H7xx_HAL_Driver/Src/stm32h7xx_ll_usb.c ****   uint32_t epnum = (uint32_t)ep->num;
 611:Drivers/STM32H7xx_HAL_Driver/Src/stm32h7xx_ll_usb.c **** 
 612:Drivers/STM32H7xx_HAL_Driver/Src/stm32h7xx_ll_usb.c ****   /* Read DEPCTLn register */
 613:Drivers/STM32H7xx_HAL_Driver/Src/stm32h7xx_ll_usb.c ****   if (ep->is_in == 1U)
 614:Drivers/STM32H7xx_HAL_Driver/Src/stm32h7xx_ll_usb.c ****   {
 615:Drivers/STM32H7xx_HAL_Driver/Src/stm32h7xx_ll_usb.c ****     if ((USBx_INEP(epnum)->DIEPCTL & USB_OTG_DIEPCTL_EPENA) == USB_OTG_DIEPCTL_EPENA)
 616:Drivers/STM32H7xx_HAL_Driver/Src/stm32h7xx_ll_usb.c ****     {
 617:Drivers/STM32H7xx_HAL_Driver/Src/stm32h7xx_ll_usb.c ****       USBx_INEP(epnum)->DIEPCTL |= USB_OTG_DIEPCTL_SNAK;
 618:Drivers/STM32H7xx_HAL_Driver/Src/stm32h7xx_ll_usb.c ****       USBx_INEP(epnum)->DIEPCTL |= USB_OTG_DIEPCTL_EPDIS;
 619:Drivers/STM32H7xx_HAL_Driver/Src/stm32h7xx_ll_usb.c ****     }
 620:Drivers/STM32H7xx_HAL_Driver/Src/stm32h7xx_ll_usb.c **** 
 621:Drivers/STM32H7xx_HAL_Driver/Src/stm32h7xx_ll_usb.c ****     USBx_DEVICE->DEACHMSK &= ~(USB_OTG_DAINTMSK_IEPM & (uint32_t)(1UL << (ep->num & EP_ADDR_MSK)));
 622:Drivers/STM32H7xx_HAL_Driver/Src/stm32h7xx_ll_usb.c ****     USBx_DEVICE->DAINTMSK &= ~(USB_OTG_DAINTMSK_IEPM & (uint32_t)(1UL << (ep->num & EP_ADDR_MSK)));
 623:Drivers/STM32H7xx_HAL_Driver/Src/stm32h7xx_ll_usb.c ****     USBx_INEP(epnum)->DIEPCTL &= ~(USB_OTG_DIEPCTL_USBAEP |
 624:Drivers/STM32H7xx_HAL_Driver/Src/stm32h7xx_ll_usb.c ****                                    USB_OTG_DIEPCTL_MPSIZ |
 625:Drivers/STM32H7xx_HAL_Driver/Src/stm32h7xx_ll_usb.c ****                                    USB_OTG_DIEPCTL_TXFNUM |
 626:Drivers/STM32H7xx_HAL_Driver/Src/stm32h7xx_ll_usb.c ****                                    USB_OTG_DIEPCTL_SD0PID_SEVNFRM |
 627:Drivers/STM32H7xx_HAL_Driver/Src/stm32h7xx_ll_usb.c ****                                    USB_OTG_DIEPCTL_EPTYP);
 628:Drivers/STM32H7xx_HAL_Driver/Src/stm32h7xx_ll_usb.c ****   }
 629:Drivers/STM32H7xx_HAL_Driver/Src/stm32h7xx_ll_usb.c ****   else
 630:Drivers/STM32H7xx_HAL_Driver/Src/stm32h7xx_ll_usb.c ****   {
 631:Drivers/STM32H7xx_HAL_Driver/Src/stm32h7xx_ll_usb.c ****     if ((USBx_OUTEP(epnum)->DOEPCTL & USB_OTG_DOEPCTL_EPENA) == USB_OTG_DOEPCTL_EPENA)
 632:Drivers/STM32H7xx_HAL_Driver/Src/stm32h7xx_ll_usb.c ****     {
 633:Drivers/STM32H7xx_HAL_Driver/Src/stm32h7xx_ll_usb.c ****       USBx_OUTEP(epnum)->DOEPCTL |= USB_OTG_DOEPCTL_SNAK;
 634:Drivers/STM32H7xx_HAL_Driver/Src/stm32h7xx_ll_usb.c ****       USBx_OUTEP(epnum)->DOEPCTL |= USB_OTG_DOEPCTL_EPDIS;
 635:Drivers/STM32H7xx_HAL_Driver/Src/stm32h7xx_ll_usb.c ****     }
 636:Drivers/STM32H7xx_HAL_Driver/Src/stm32h7xx_ll_usb.c **** 
 637:Drivers/STM32H7xx_HAL_Driver/Src/stm32h7xx_ll_usb.c ****     USBx_DEVICE->DEACHMSK &= ~(USB_OTG_DAINTMSK_OEPM & ((uint32_t)(1UL << (ep->num & EP_ADDR_MSK)) 
 638:Drivers/STM32H7xx_HAL_Driver/Src/stm32h7xx_ll_usb.c ****     USBx_DEVICE->DAINTMSK &= ~(USB_OTG_DAINTMSK_OEPM & ((uint32_t)(1UL << (ep->num & EP_ADDR_MSK)) 
 639:Drivers/STM32H7xx_HAL_Driver/Src/stm32h7xx_ll_usb.c ****     USBx_OUTEP(epnum)->DOEPCTL &= ~(USB_OTG_DOEPCTL_USBAEP |
 640:Drivers/STM32H7xx_HAL_Driver/Src/stm32h7xx_ll_usb.c ****                                     USB_OTG_DOEPCTL_MPSIZ |
 641:Drivers/STM32H7xx_HAL_Driver/Src/stm32h7xx_ll_usb.c ****                                     USB_OTG_DOEPCTL_SD0PID_SEVNFRM |
 642:Drivers/STM32H7xx_HAL_Driver/Src/stm32h7xx_ll_usb.c ****                                     USB_OTG_DOEPCTL_EPTYP);
 643:Drivers/STM32H7xx_HAL_Driver/Src/stm32h7xx_ll_usb.c ****   }
 644:Drivers/STM32H7xx_HAL_Driver/Src/stm32h7xx_ll_usb.c **** 
 645:Drivers/STM32H7xx_HAL_Driver/Src/stm32h7xx_ll_usb.c ****   return HAL_OK;
 646:Drivers/STM32H7xx_HAL_Driver/Src/stm32h7xx_ll_usb.c **** }
 647:Drivers/STM32H7xx_HAL_Driver/Src/stm32h7xx_ll_usb.c **** 
 648:Drivers/STM32H7xx_HAL_Driver/Src/stm32h7xx_ll_usb.c **** /**
 649:Drivers/STM32H7xx_HAL_Driver/Src/stm32h7xx_ll_usb.c ****   * @brief  De-activate and de-initialize a dedicated endpoint
 650:Drivers/STM32H7xx_HAL_Driver/Src/stm32h7xx_ll_usb.c ****   * @param  USBx  Selected device
 651:Drivers/STM32H7xx_HAL_Driver/Src/stm32h7xx_ll_usb.c ****   * @param  ep pointer to endpoint structure
 652:Drivers/STM32H7xx_HAL_Driver/Src/stm32h7xx_ll_usb.c ****   * @retval HAL status
 653:Drivers/STM32H7xx_HAL_Driver/Src/stm32h7xx_ll_usb.c ****   */
 654:Drivers/STM32H7xx_HAL_Driver/Src/stm32h7xx_ll_usb.c **** HAL_StatusTypeDef USB_DeactivateDedicatedEndpoint(USB_OTG_GlobalTypeDef *USBx, USB_OTG_EPTypeDef *e
 655:Drivers/STM32H7xx_HAL_Driver/Src/stm32h7xx_ll_usb.c **** {
 656:Drivers/STM32H7xx_HAL_Driver/Src/stm32h7xx_ll_usb.c ****   uint32_t USBx_BASE = (uint32_t)USBx;
 657:Drivers/STM32H7xx_HAL_Driver/Src/stm32h7xx_ll_usb.c ****   uint32_t epnum = (uint32_t)ep->num;
 658:Drivers/STM32H7xx_HAL_Driver/Src/stm32h7xx_ll_usb.c **** 
 659:Drivers/STM32H7xx_HAL_Driver/Src/stm32h7xx_ll_usb.c ****   /* Read DEPCTLn register */
 660:Drivers/STM32H7xx_HAL_Driver/Src/stm32h7xx_ll_usb.c ****   if (ep->is_in == 1U)
ARM GAS  /tmp/ccCJnE45.s 			page 13


 661:Drivers/STM32H7xx_HAL_Driver/Src/stm32h7xx_ll_usb.c ****   {
 662:Drivers/STM32H7xx_HAL_Driver/Src/stm32h7xx_ll_usb.c ****     if ((USBx_INEP(epnum)->DIEPCTL & USB_OTG_DIEPCTL_EPENA) == USB_OTG_DIEPCTL_EPENA)
 663:Drivers/STM32H7xx_HAL_Driver/Src/stm32h7xx_ll_usb.c ****     {
 664:Drivers/STM32H7xx_HAL_Driver/Src/stm32h7xx_ll_usb.c ****       USBx_INEP(epnum)->DIEPCTL  |= USB_OTG_DIEPCTL_SNAK;
 665:Drivers/STM32H7xx_HAL_Driver/Src/stm32h7xx_ll_usb.c ****       USBx_INEP(epnum)->DIEPCTL  |= USB_OTG_DIEPCTL_EPDIS;
 666:Drivers/STM32H7xx_HAL_Driver/Src/stm32h7xx_ll_usb.c ****     }
 667:Drivers/STM32H7xx_HAL_Driver/Src/stm32h7xx_ll_usb.c **** 
 668:Drivers/STM32H7xx_HAL_Driver/Src/stm32h7xx_ll_usb.c ****     USBx_INEP(epnum)->DIEPCTL &= ~ USB_OTG_DIEPCTL_USBAEP;
 669:Drivers/STM32H7xx_HAL_Driver/Src/stm32h7xx_ll_usb.c ****     USBx_DEVICE->DAINTMSK &= ~(USB_OTG_DAINTMSK_IEPM & (uint32_t)(1UL << (ep->num & EP_ADDR_MSK)));
 670:Drivers/STM32H7xx_HAL_Driver/Src/stm32h7xx_ll_usb.c ****   }
 671:Drivers/STM32H7xx_HAL_Driver/Src/stm32h7xx_ll_usb.c ****   else
 672:Drivers/STM32H7xx_HAL_Driver/Src/stm32h7xx_ll_usb.c ****   {
 673:Drivers/STM32H7xx_HAL_Driver/Src/stm32h7xx_ll_usb.c ****     if ((USBx_OUTEP(epnum)->DOEPCTL & USB_OTG_DOEPCTL_EPENA) == USB_OTG_DOEPCTL_EPENA)
 674:Drivers/STM32H7xx_HAL_Driver/Src/stm32h7xx_ll_usb.c ****     {
 675:Drivers/STM32H7xx_HAL_Driver/Src/stm32h7xx_ll_usb.c ****       USBx_OUTEP(epnum)->DOEPCTL  |= USB_OTG_DOEPCTL_SNAK;
 676:Drivers/STM32H7xx_HAL_Driver/Src/stm32h7xx_ll_usb.c ****       USBx_OUTEP(epnum)->DOEPCTL  |= USB_OTG_DOEPCTL_EPDIS;
 677:Drivers/STM32H7xx_HAL_Driver/Src/stm32h7xx_ll_usb.c ****     }
 678:Drivers/STM32H7xx_HAL_Driver/Src/stm32h7xx_ll_usb.c **** 
 679:Drivers/STM32H7xx_HAL_Driver/Src/stm32h7xx_ll_usb.c ****     USBx_OUTEP(epnum)->DOEPCTL &= ~USB_OTG_DOEPCTL_USBAEP;
 680:Drivers/STM32H7xx_HAL_Driver/Src/stm32h7xx_ll_usb.c ****     USBx_DEVICE->DAINTMSK &= ~(USB_OTG_DAINTMSK_OEPM & ((uint32_t)(1UL << (ep->num & EP_ADDR_MSK)) 
 681:Drivers/STM32H7xx_HAL_Driver/Src/stm32h7xx_ll_usb.c ****   }
 682:Drivers/STM32H7xx_HAL_Driver/Src/stm32h7xx_ll_usb.c **** 
 683:Drivers/STM32H7xx_HAL_Driver/Src/stm32h7xx_ll_usb.c ****   return HAL_OK;
 684:Drivers/STM32H7xx_HAL_Driver/Src/stm32h7xx_ll_usb.c **** }
 685:Drivers/STM32H7xx_HAL_Driver/Src/stm32h7xx_ll_usb.c **** 
 686:Drivers/STM32H7xx_HAL_Driver/Src/stm32h7xx_ll_usb.c **** /**
 687:Drivers/STM32H7xx_HAL_Driver/Src/stm32h7xx_ll_usb.c ****   * @brief  USB_EPStartXfer : setup and starts a transfer over an EP
 688:Drivers/STM32H7xx_HAL_Driver/Src/stm32h7xx_ll_usb.c ****   * @param  USBx  Selected device
 689:Drivers/STM32H7xx_HAL_Driver/Src/stm32h7xx_ll_usb.c ****   * @param  ep pointer to endpoint structure
 690:Drivers/STM32H7xx_HAL_Driver/Src/stm32h7xx_ll_usb.c ****   * @param  dma USB dma enabled or disabled
 691:Drivers/STM32H7xx_HAL_Driver/Src/stm32h7xx_ll_usb.c ****   *          This parameter can be one of these values:
 692:Drivers/STM32H7xx_HAL_Driver/Src/stm32h7xx_ll_usb.c ****   *           0 : DMA feature not used
 693:Drivers/STM32H7xx_HAL_Driver/Src/stm32h7xx_ll_usb.c ****   *           1 : DMA feature used
 694:Drivers/STM32H7xx_HAL_Driver/Src/stm32h7xx_ll_usb.c ****   * @retval HAL status
 695:Drivers/STM32H7xx_HAL_Driver/Src/stm32h7xx_ll_usb.c ****   */
 696:Drivers/STM32H7xx_HAL_Driver/Src/stm32h7xx_ll_usb.c **** HAL_StatusTypeDef USB_EPStartXfer(USB_OTG_GlobalTypeDef *USBx, USB_OTG_EPTypeDef *ep, uint8_t dma)
 697:Drivers/STM32H7xx_HAL_Driver/Src/stm32h7xx_ll_usb.c **** {
 698:Drivers/STM32H7xx_HAL_Driver/Src/stm32h7xx_ll_usb.c ****   uint32_t USBx_BASE = (uint32_t)USBx;
 699:Drivers/STM32H7xx_HAL_Driver/Src/stm32h7xx_ll_usb.c ****   uint32_t epnum = (uint32_t)ep->num;
 700:Drivers/STM32H7xx_HAL_Driver/Src/stm32h7xx_ll_usb.c ****   uint16_t pktcnt;
 701:Drivers/STM32H7xx_HAL_Driver/Src/stm32h7xx_ll_usb.c **** 
 702:Drivers/STM32H7xx_HAL_Driver/Src/stm32h7xx_ll_usb.c ****   /* IN endpoint */
 703:Drivers/STM32H7xx_HAL_Driver/Src/stm32h7xx_ll_usb.c ****   if (ep->is_in == 1U)
 704:Drivers/STM32H7xx_HAL_Driver/Src/stm32h7xx_ll_usb.c ****   {
 705:Drivers/STM32H7xx_HAL_Driver/Src/stm32h7xx_ll_usb.c ****     /* Zero Length Packet? */
 706:Drivers/STM32H7xx_HAL_Driver/Src/stm32h7xx_ll_usb.c ****     if (ep->xfer_len == 0U)
 707:Drivers/STM32H7xx_HAL_Driver/Src/stm32h7xx_ll_usb.c ****     {
 708:Drivers/STM32H7xx_HAL_Driver/Src/stm32h7xx_ll_usb.c ****       USBx_INEP(epnum)->DIEPTSIZ &= ~(USB_OTG_DIEPTSIZ_PKTCNT);
 709:Drivers/STM32H7xx_HAL_Driver/Src/stm32h7xx_ll_usb.c ****       USBx_INEP(epnum)->DIEPTSIZ |= (USB_OTG_DIEPTSIZ_PKTCNT & (1U << 19));
 710:Drivers/STM32H7xx_HAL_Driver/Src/stm32h7xx_ll_usb.c ****       USBx_INEP(epnum)->DIEPTSIZ &= ~(USB_OTG_DIEPTSIZ_XFRSIZ);
 711:Drivers/STM32H7xx_HAL_Driver/Src/stm32h7xx_ll_usb.c ****     }
 712:Drivers/STM32H7xx_HAL_Driver/Src/stm32h7xx_ll_usb.c ****     else
 713:Drivers/STM32H7xx_HAL_Driver/Src/stm32h7xx_ll_usb.c ****     {
 714:Drivers/STM32H7xx_HAL_Driver/Src/stm32h7xx_ll_usb.c ****       /* Program the transfer size and packet count
 715:Drivers/STM32H7xx_HAL_Driver/Src/stm32h7xx_ll_usb.c ****       * as follows: xfersize = N * maxpacket +
 716:Drivers/STM32H7xx_HAL_Driver/Src/stm32h7xx_ll_usb.c ****       * short_packet pktcnt = N + (short_packet
 717:Drivers/STM32H7xx_HAL_Driver/Src/stm32h7xx_ll_usb.c ****       * exist ? 1 : 0)
ARM GAS  /tmp/ccCJnE45.s 			page 14


 718:Drivers/STM32H7xx_HAL_Driver/Src/stm32h7xx_ll_usb.c ****       */
 719:Drivers/STM32H7xx_HAL_Driver/Src/stm32h7xx_ll_usb.c ****       USBx_INEP(epnum)->DIEPTSIZ &= ~(USB_OTG_DIEPTSIZ_XFRSIZ);
 720:Drivers/STM32H7xx_HAL_Driver/Src/stm32h7xx_ll_usb.c ****       USBx_INEP(epnum)->DIEPTSIZ &= ~(USB_OTG_DIEPTSIZ_PKTCNT);
 721:Drivers/STM32H7xx_HAL_Driver/Src/stm32h7xx_ll_usb.c ****       USBx_INEP(epnum)->DIEPTSIZ |= (USB_OTG_DIEPTSIZ_PKTCNT & (((ep->xfer_len + ep->maxpacket - 1U
 722:Drivers/STM32H7xx_HAL_Driver/Src/stm32h7xx_ll_usb.c ****       USBx_INEP(epnum)->DIEPTSIZ |= (USB_OTG_DIEPTSIZ_XFRSIZ & ep->xfer_len);
 723:Drivers/STM32H7xx_HAL_Driver/Src/stm32h7xx_ll_usb.c **** 
 724:Drivers/STM32H7xx_HAL_Driver/Src/stm32h7xx_ll_usb.c ****       if (ep->type == EP_TYPE_ISOC)
 725:Drivers/STM32H7xx_HAL_Driver/Src/stm32h7xx_ll_usb.c ****       {
 726:Drivers/STM32H7xx_HAL_Driver/Src/stm32h7xx_ll_usb.c ****         USBx_INEP(epnum)->DIEPTSIZ &= ~(USB_OTG_DIEPTSIZ_MULCNT);
 727:Drivers/STM32H7xx_HAL_Driver/Src/stm32h7xx_ll_usb.c ****         USBx_INEP(epnum)->DIEPTSIZ |= (USB_OTG_DIEPTSIZ_MULCNT & (1U << 29));
 728:Drivers/STM32H7xx_HAL_Driver/Src/stm32h7xx_ll_usb.c ****       }
 729:Drivers/STM32H7xx_HAL_Driver/Src/stm32h7xx_ll_usb.c ****     }
 730:Drivers/STM32H7xx_HAL_Driver/Src/stm32h7xx_ll_usb.c **** 
 731:Drivers/STM32H7xx_HAL_Driver/Src/stm32h7xx_ll_usb.c ****     if (dma == 1U)
 732:Drivers/STM32H7xx_HAL_Driver/Src/stm32h7xx_ll_usb.c ****     {
 733:Drivers/STM32H7xx_HAL_Driver/Src/stm32h7xx_ll_usb.c ****       if ((uint32_t)ep->dma_addr != 0U)
 734:Drivers/STM32H7xx_HAL_Driver/Src/stm32h7xx_ll_usb.c ****       {
 735:Drivers/STM32H7xx_HAL_Driver/Src/stm32h7xx_ll_usb.c ****         USBx_INEP(epnum)->DIEPDMA = (uint32_t)(ep->dma_addr);
 736:Drivers/STM32H7xx_HAL_Driver/Src/stm32h7xx_ll_usb.c ****       }
 737:Drivers/STM32H7xx_HAL_Driver/Src/stm32h7xx_ll_usb.c **** 
 738:Drivers/STM32H7xx_HAL_Driver/Src/stm32h7xx_ll_usb.c ****       if (ep->type == EP_TYPE_ISOC)
 739:Drivers/STM32H7xx_HAL_Driver/Src/stm32h7xx_ll_usb.c ****       {
 740:Drivers/STM32H7xx_HAL_Driver/Src/stm32h7xx_ll_usb.c ****         if ((USBx_DEVICE->DSTS & (1U << 8)) == 0U)
 741:Drivers/STM32H7xx_HAL_Driver/Src/stm32h7xx_ll_usb.c ****         {
 742:Drivers/STM32H7xx_HAL_Driver/Src/stm32h7xx_ll_usb.c ****           USBx_INEP(epnum)->DIEPCTL |= USB_OTG_DIEPCTL_SODDFRM;
 743:Drivers/STM32H7xx_HAL_Driver/Src/stm32h7xx_ll_usb.c ****         }
 744:Drivers/STM32H7xx_HAL_Driver/Src/stm32h7xx_ll_usb.c ****         else
 745:Drivers/STM32H7xx_HAL_Driver/Src/stm32h7xx_ll_usb.c ****         {
 746:Drivers/STM32H7xx_HAL_Driver/Src/stm32h7xx_ll_usb.c ****           USBx_INEP(epnum)->DIEPCTL |= USB_OTG_DIEPCTL_SD0PID_SEVNFRM;
 747:Drivers/STM32H7xx_HAL_Driver/Src/stm32h7xx_ll_usb.c ****         }
 748:Drivers/STM32H7xx_HAL_Driver/Src/stm32h7xx_ll_usb.c ****       }
 749:Drivers/STM32H7xx_HAL_Driver/Src/stm32h7xx_ll_usb.c **** 
 750:Drivers/STM32H7xx_HAL_Driver/Src/stm32h7xx_ll_usb.c ****       /* EP enable, IN data in FIFO */
 751:Drivers/STM32H7xx_HAL_Driver/Src/stm32h7xx_ll_usb.c ****       USBx_INEP(epnum)->DIEPCTL |= (USB_OTG_DIEPCTL_CNAK | USB_OTG_DIEPCTL_EPENA);
 752:Drivers/STM32H7xx_HAL_Driver/Src/stm32h7xx_ll_usb.c ****     }
 753:Drivers/STM32H7xx_HAL_Driver/Src/stm32h7xx_ll_usb.c ****     else
 754:Drivers/STM32H7xx_HAL_Driver/Src/stm32h7xx_ll_usb.c ****     {
 755:Drivers/STM32H7xx_HAL_Driver/Src/stm32h7xx_ll_usb.c ****       /* EP enable, IN data in FIFO */
 756:Drivers/STM32H7xx_HAL_Driver/Src/stm32h7xx_ll_usb.c ****       USBx_INEP(epnum)->DIEPCTL |= (USB_OTG_DIEPCTL_CNAK | USB_OTG_DIEPCTL_EPENA);
 757:Drivers/STM32H7xx_HAL_Driver/Src/stm32h7xx_ll_usb.c **** 
 758:Drivers/STM32H7xx_HAL_Driver/Src/stm32h7xx_ll_usb.c ****       if (ep->type != EP_TYPE_ISOC)
 759:Drivers/STM32H7xx_HAL_Driver/Src/stm32h7xx_ll_usb.c ****       {
 760:Drivers/STM32H7xx_HAL_Driver/Src/stm32h7xx_ll_usb.c ****         /* Enable the Tx FIFO Empty Interrupt for this EP */
 761:Drivers/STM32H7xx_HAL_Driver/Src/stm32h7xx_ll_usb.c ****         if (ep->xfer_len > 0U)
 762:Drivers/STM32H7xx_HAL_Driver/Src/stm32h7xx_ll_usb.c ****         {
 763:Drivers/STM32H7xx_HAL_Driver/Src/stm32h7xx_ll_usb.c ****           USBx_DEVICE->DIEPEMPMSK |= 1UL << (ep->num & EP_ADDR_MSK);
 764:Drivers/STM32H7xx_HAL_Driver/Src/stm32h7xx_ll_usb.c ****         }
 765:Drivers/STM32H7xx_HAL_Driver/Src/stm32h7xx_ll_usb.c ****       }
 766:Drivers/STM32H7xx_HAL_Driver/Src/stm32h7xx_ll_usb.c ****       else
 767:Drivers/STM32H7xx_HAL_Driver/Src/stm32h7xx_ll_usb.c ****       {
 768:Drivers/STM32H7xx_HAL_Driver/Src/stm32h7xx_ll_usb.c ****         if ((USBx_DEVICE->DSTS & (1U << 8)) == 0U)
 769:Drivers/STM32H7xx_HAL_Driver/Src/stm32h7xx_ll_usb.c ****         {
 770:Drivers/STM32H7xx_HAL_Driver/Src/stm32h7xx_ll_usb.c ****           USBx_INEP(epnum)->DIEPCTL |= USB_OTG_DIEPCTL_SODDFRM;
 771:Drivers/STM32H7xx_HAL_Driver/Src/stm32h7xx_ll_usb.c ****         }
 772:Drivers/STM32H7xx_HAL_Driver/Src/stm32h7xx_ll_usb.c ****         else
 773:Drivers/STM32H7xx_HAL_Driver/Src/stm32h7xx_ll_usb.c ****         {
 774:Drivers/STM32H7xx_HAL_Driver/Src/stm32h7xx_ll_usb.c ****           USBx_INEP(epnum)->DIEPCTL |= USB_OTG_DIEPCTL_SD0PID_SEVNFRM;
ARM GAS  /tmp/ccCJnE45.s 			page 15


 775:Drivers/STM32H7xx_HAL_Driver/Src/stm32h7xx_ll_usb.c ****         }
 776:Drivers/STM32H7xx_HAL_Driver/Src/stm32h7xx_ll_usb.c **** 
 777:Drivers/STM32H7xx_HAL_Driver/Src/stm32h7xx_ll_usb.c ****         (void)USB_WritePacket(USBx, ep->xfer_buff, ep->num, (uint16_t)ep->xfer_len, dma);
 778:Drivers/STM32H7xx_HAL_Driver/Src/stm32h7xx_ll_usb.c ****       }
 779:Drivers/STM32H7xx_HAL_Driver/Src/stm32h7xx_ll_usb.c ****     }
 780:Drivers/STM32H7xx_HAL_Driver/Src/stm32h7xx_ll_usb.c ****   }
 781:Drivers/STM32H7xx_HAL_Driver/Src/stm32h7xx_ll_usb.c ****   else /* OUT endpoint */
 782:Drivers/STM32H7xx_HAL_Driver/Src/stm32h7xx_ll_usb.c ****   {
 783:Drivers/STM32H7xx_HAL_Driver/Src/stm32h7xx_ll_usb.c ****     /* Program the transfer size and packet count as follows:
 784:Drivers/STM32H7xx_HAL_Driver/Src/stm32h7xx_ll_usb.c ****     * pktcnt = N
 785:Drivers/STM32H7xx_HAL_Driver/Src/stm32h7xx_ll_usb.c ****     * xfersize = N * maxpacket
 786:Drivers/STM32H7xx_HAL_Driver/Src/stm32h7xx_ll_usb.c ****     */
 787:Drivers/STM32H7xx_HAL_Driver/Src/stm32h7xx_ll_usb.c ****     USBx_OUTEP(epnum)->DOEPTSIZ &= ~(USB_OTG_DOEPTSIZ_XFRSIZ);
 788:Drivers/STM32H7xx_HAL_Driver/Src/stm32h7xx_ll_usb.c ****     USBx_OUTEP(epnum)->DOEPTSIZ &= ~(USB_OTG_DOEPTSIZ_PKTCNT);
 789:Drivers/STM32H7xx_HAL_Driver/Src/stm32h7xx_ll_usb.c **** 
 790:Drivers/STM32H7xx_HAL_Driver/Src/stm32h7xx_ll_usb.c ****     if (ep->xfer_len == 0U)
 791:Drivers/STM32H7xx_HAL_Driver/Src/stm32h7xx_ll_usb.c ****     {
 792:Drivers/STM32H7xx_HAL_Driver/Src/stm32h7xx_ll_usb.c ****       USBx_OUTEP(epnum)->DOEPTSIZ |= (USB_OTG_DOEPTSIZ_XFRSIZ & ep->maxpacket);
 793:Drivers/STM32H7xx_HAL_Driver/Src/stm32h7xx_ll_usb.c ****       USBx_OUTEP(epnum)->DOEPTSIZ |= (USB_OTG_DOEPTSIZ_PKTCNT & (1U << 19));
 794:Drivers/STM32H7xx_HAL_Driver/Src/stm32h7xx_ll_usb.c ****     }
 795:Drivers/STM32H7xx_HAL_Driver/Src/stm32h7xx_ll_usb.c ****     else
 796:Drivers/STM32H7xx_HAL_Driver/Src/stm32h7xx_ll_usb.c ****     {
 797:Drivers/STM32H7xx_HAL_Driver/Src/stm32h7xx_ll_usb.c ****       pktcnt = (uint16_t)((ep->xfer_len + ep->maxpacket - 1U) / ep->maxpacket);
 798:Drivers/STM32H7xx_HAL_Driver/Src/stm32h7xx_ll_usb.c ****       USBx_OUTEP(epnum)->DOEPTSIZ |= USB_OTG_DOEPTSIZ_PKTCNT & ((uint32_t)pktcnt << 19);
 799:Drivers/STM32H7xx_HAL_Driver/Src/stm32h7xx_ll_usb.c ****       USBx_OUTEP(epnum)->DOEPTSIZ |= USB_OTG_DOEPTSIZ_XFRSIZ & (ep->maxpacket * pktcnt);
 800:Drivers/STM32H7xx_HAL_Driver/Src/stm32h7xx_ll_usb.c ****     }
 801:Drivers/STM32H7xx_HAL_Driver/Src/stm32h7xx_ll_usb.c **** 
 802:Drivers/STM32H7xx_HAL_Driver/Src/stm32h7xx_ll_usb.c ****     if (dma == 1U)
 803:Drivers/STM32H7xx_HAL_Driver/Src/stm32h7xx_ll_usb.c ****     {
 804:Drivers/STM32H7xx_HAL_Driver/Src/stm32h7xx_ll_usb.c ****       if ((uint32_t)ep->xfer_buff != 0U)
 805:Drivers/STM32H7xx_HAL_Driver/Src/stm32h7xx_ll_usb.c ****       {
 806:Drivers/STM32H7xx_HAL_Driver/Src/stm32h7xx_ll_usb.c ****         USBx_OUTEP(epnum)->DOEPDMA = (uint32_t)(ep->xfer_buff);
 807:Drivers/STM32H7xx_HAL_Driver/Src/stm32h7xx_ll_usb.c ****       }
 808:Drivers/STM32H7xx_HAL_Driver/Src/stm32h7xx_ll_usb.c ****     }
 809:Drivers/STM32H7xx_HAL_Driver/Src/stm32h7xx_ll_usb.c **** 
 810:Drivers/STM32H7xx_HAL_Driver/Src/stm32h7xx_ll_usb.c ****     if (ep->type == EP_TYPE_ISOC)
 811:Drivers/STM32H7xx_HAL_Driver/Src/stm32h7xx_ll_usb.c ****     {
 812:Drivers/STM32H7xx_HAL_Driver/Src/stm32h7xx_ll_usb.c ****       if ((USBx_DEVICE->DSTS & (1U << 8)) == 0U)
 813:Drivers/STM32H7xx_HAL_Driver/Src/stm32h7xx_ll_usb.c ****       {
 814:Drivers/STM32H7xx_HAL_Driver/Src/stm32h7xx_ll_usb.c ****         USBx_OUTEP(epnum)->DOEPCTL |= USB_OTG_DOEPCTL_SODDFRM;
 815:Drivers/STM32H7xx_HAL_Driver/Src/stm32h7xx_ll_usb.c ****       }
 816:Drivers/STM32H7xx_HAL_Driver/Src/stm32h7xx_ll_usb.c ****       else
 817:Drivers/STM32H7xx_HAL_Driver/Src/stm32h7xx_ll_usb.c ****       {
 818:Drivers/STM32H7xx_HAL_Driver/Src/stm32h7xx_ll_usb.c ****         USBx_OUTEP(epnum)->DOEPCTL |= USB_OTG_DOEPCTL_SD0PID_SEVNFRM;
 819:Drivers/STM32H7xx_HAL_Driver/Src/stm32h7xx_ll_usb.c ****       }
 820:Drivers/STM32H7xx_HAL_Driver/Src/stm32h7xx_ll_usb.c ****     }
 821:Drivers/STM32H7xx_HAL_Driver/Src/stm32h7xx_ll_usb.c ****     /* EP enable */
 822:Drivers/STM32H7xx_HAL_Driver/Src/stm32h7xx_ll_usb.c ****     USBx_OUTEP(epnum)->DOEPCTL |= (USB_OTG_DOEPCTL_CNAK | USB_OTG_DOEPCTL_EPENA);
 823:Drivers/STM32H7xx_HAL_Driver/Src/stm32h7xx_ll_usb.c ****   }
 824:Drivers/STM32H7xx_HAL_Driver/Src/stm32h7xx_ll_usb.c **** 
 825:Drivers/STM32H7xx_HAL_Driver/Src/stm32h7xx_ll_usb.c ****   return HAL_OK;
 826:Drivers/STM32H7xx_HAL_Driver/Src/stm32h7xx_ll_usb.c **** }
 827:Drivers/STM32H7xx_HAL_Driver/Src/stm32h7xx_ll_usb.c **** 
 828:Drivers/STM32H7xx_HAL_Driver/Src/stm32h7xx_ll_usb.c **** /**
 829:Drivers/STM32H7xx_HAL_Driver/Src/stm32h7xx_ll_usb.c ****   * @brief  USB_EP0StartXfer : setup and starts a transfer over the EP  0
 830:Drivers/STM32H7xx_HAL_Driver/Src/stm32h7xx_ll_usb.c ****   * @param  USBx  Selected device
 831:Drivers/STM32H7xx_HAL_Driver/Src/stm32h7xx_ll_usb.c ****   * @param  ep pointer to endpoint structure
ARM GAS  /tmp/ccCJnE45.s 			page 16


 832:Drivers/STM32H7xx_HAL_Driver/Src/stm32h7xx_ll_usb.c ****   * @param  dma USB dma enabled or disabled
 833:Drivers/STM32H7xx_HAL_Driver/Src/stm32h7xx_ll_usb.c ****   *          This parameter can be one of these values:
 834:Drivers/STM32H7xx_HAL_Driver/Src/stm32h7xx_ll_usb.c ****   *           0 : DMA feature not used
 835:Drivers/STM32H7xx_HAL_Driver/Src/stm32h7xx_ll_usb.c ****   *           1 : DMA feature used
 836:Drivers/STM32H7xx_HAL_Driver/Src/stm32h7xx_ll_usb.c ****   * @retval HAL status
 837:Drivers/STM32H7xx_HAL_Driver/Src/stm32h7xx_ll_usb.c ****   */
 838:Drivers/STM32H7xx_HAL_Driver/Src/stm32h7xx_ll_usb.c **** HAL_StatusTypeDef USB_EP0StartXfer(USB_OTG_GlobalTypeDef *USBx, USB_OTG_EPTypeDef *ep, uint8_t dma)
 839:Drivers/STM32H7xx_HAL_Driver/Src/stm32h7xx_ll_usb.c **** {
 840:Drivers/STM32H7xx_HAL_Driver/Src/stm32h7xx_ll_usb.c ****   uint32_t USBx_BASE = (uint32_t)USBx;
 841:Drivers/STM32H7xx_HAL_Driver/Src/stm32h7xx_ll_usb.c ****   uint32_t epnum = (uint32_t)ep->num;
 842:Drivers/STM32H7xx_HAL_Driver/Src/stm32h7xx_ll_usb.c **** 
 843:Drivers/STM32H7xx_HAL_Driver/Src/stm32h7xx_ll_usb.c ****   /* IN endpoint */
 844:Drivers/STM32H7xx_HAL_Driver/Src/stm32h7xx_ll_usb.c ****   if (ep->is_in == 1U)
 845:Drivers/STM32H7xx_HAL_Driver/Src/stm32h7xx_ll_usb.c ****   {
 846:Drivers/STM32H7xx_HAL_Driver/Src/stm32h7xx_ll_usb.c ****     /* Zero Length Packet? */
 847:Drivers/STM32H7xx_HAL_Driver/Src/stm32h7xx_ll_usb.c ****     if (ep->xfer_len == 0U)
 848:Drivers/STM32H7xx_HAL_Driver/Src/stm32h7xx_ll_usb.c ****     {
 849:Drivers/STM32H7xx_HAL_Driver/Src/stm32h7xx_ll_usb.c ****       USBx_INEP(epnum)->DIEPTSIZ &= ~(USB_OTG_DIEPTSIZ_PKTCNT);
 850:Drivers/STM32H7xx_HAL_Driver/Src/stm32h7xx_ll_usb.c ****       USBx_INEP(epnum)->DIEPTSIZ |= (USB_OTG_DIEPTSIZ_PKTCNT & (1U << 19));
 851:Drivers/STM32H7xx_HAL_Driver/Src/stm32h7xx_ll_usb.c ****       USBx_INEP(epnum)->DIEPTSIZ &= ~(USB_OTG_DIEPTSIZ_XFRSIZ);
 852:Drivers/STM32H7xx_HAL_Driver/Src/stm32h7xx_ll_usb.c ****     }
 853:Drivers/STM32H7xx_HAL_Driver/Src/stm32h7xx_ll_usb.c ****     else
 854:Drivers/STM32H7xx_HAL_Driver/Src/stm32h7xx_ll_usb.c ****     {
 855:Drivers/STM32H7xx_HAL_Driver/Src/stm32h7xx_ll_usb.c ****       /* Program the transfer size and packet count
 856:Drivers/STM32H7xx_HAL_Driver/Src/stm32h7xx_ll_usb.c ****       * as follows: xfersize = N * maxpacket +
 857:Drivers/STM32H7xx_HAL_Driver/Src/stm32h7xx_ll_usb.c ****       * short_packet pktcnt = N + (short_packet
 858:Drivers/STM32H7xx_HAL_Driver/Src/stm32h7xx_ll_usb.c ****       * exist ? 1 : 0)
 859:Drivers/STM32H7xx_HAL_Driver/Src/stm32h7xx_ll_usb.c ****       */
 860:Drivers/STM32H7xx_HAL_Driver/Src/stm32h7xx_ll_usb.c ****       USBx_INEP(epnum)->DIEPTSIZ &= ~(USB_OTG_DIEPTSIZ_XFRSIZ);
 861:Drivers/STM32H7xx_HAL_Driver/Src/stm32h7xx_ll_usb.c ****       USBx_INEP(epnum)->DIEPTSIZ &= ~(USB_OTG_DIEPTSIZ_PKTCNT);
 862:Drivers/STM32H7xx_HAL_Driver/Src/stm32h7xx_ll_usb.c **** 
 863:Drivers/STM32H7xx_HAL_Driver/Src/stm32h7xx_ll_usb.c ****       if (ep->xfer_len > ep->maxpacket)
 864:Drivers/STM32H7xx_HAL_Driver/Src/stm32h7xx_ll_usb.c ****       {
 865:Drivers/STM32H7xx_HAL_Driver/Src/stm32h7xx_ll_usb.c ****         ep->xfer_len = ep->maxpacket;
 866:Drivers/STM32H7xx_HAL_Driver/Src/stm32h7xx_ll_usb.c ****       }
 867:Drivers/STM32H7xx_HAL_Driver/Src/stm32h7xx_ll_usb.c ****       USBx_INEP(epnum)->DIEPTSIZ |= (USB_OTG_DIEPTSIZ_PKTCNT & (1U << 19));
 868:Drivers/STM32H7xx_HAL_Driver/Src/stm32h7xx_ll_usb.c ****       USBx_INEP(epnum)->DIEPTSIZ |= (USB_OTG_DIEPTSIZ_XFRSIZ & ep->xfer_len);
 869:Drivers/STM32H7xx_HAL_Driver/Src/stm32h7xx_ll_usb.c ****     }
 870:Drivers/STM32H7xx_HAL_Driver/Src/stm32h7xx_ll_usb.c **** 
 871:Drivers/STM32H7xx_HAL_Driver/Src/stm32h7xx_ll_usb.c ****     if (dma == 1U)
 872:Drivers/STM32H7xx_HAL_Driver/Src/stm32h7xx_ll_usb.c ****     {
 873:Drivers/STM32H7xx_HAL_Driver/Src/stm32h7xx_ll_usb.c ****       if ((uint32_t)ep->dma_addr != 0U)
 874:Drivers/STM32H7xx_HAL_Driver/Src/stm32h7xx_ll_usb.c ****       {
 875:Drivers/STM32H7xx_HAL_Driver/Src/stm32h7xx_ll_usb.c ****         USBx_INEP(epnum)->DIEPDMA = (uint32_t)(ep->dma_addr);
 876:Drivers/STM32H7xx_HAL_Driver/Src/stm32h7xx_ll_usb.c ****       }
 877:Drivers/STM32H7xx_HAL_Driver/Src/stm32h7xx_ll_usb.c **** 
 878:Drivers/STM32H7xx_HAL_Driver/Src/stm32h7xx_ll_usb.c ****       /* EP enable, IN data in FIFO */
 879:Drivers/STM32H7xx_HAL_Driver/Src/stm32h7xx_ll_usb.c ****       USBx_INEP(epnum)->DIEPCTL |= (USB_OTG_DIEPCTL_CNAK | USB_OTG_DIEPCTL_EPENA);
 880:Drivers/STM32H7xx_HAL_Driver/Src/stm32h7xx_ll_usb.c ****     }
 881:Drivers/STM32H7xx_HAL_Driver/Src/stm32h7xx_ll_usb.c ****     else
 882:Drivers/STM32H7xx_HAL_Driver/Src/stm32h7xx_ll_usb.c ****     {
 883:Drivers/STM32H7xx_HAL_Driver/Src/stm32h7xx_ll_usb.c ****       /* EP enable, IN data in FIFO */
 884:Drivers/STM32H7xx_HAL_Driver/Src/stm32h7xx_ll_usb.c ****       USBx_INEP(epnum)->DIEPCTL |= (USB_OTG_DIEPCTL_CNAK | USB_OTG_DIEPCTL_EPENA);
 885:Drivers/STM32H7xx_HAL_Driver/Src/stm32h7xx_ll_usb.c **** 
 886:Drivers/STM32H7xx_HAL_Driver/Src/stm32h7xx_ll_usb.c ****       /* Enable the Tx FIFO Empty Interrupt for this EP */
 887:Drivers/STM32H7xx_HAL_Driver/Src/stm32h7xx_ll_usb.c ****       if (ep->xfer_len > 0U)
 888:Drivers/STM32H7xx_HAL_Driver/Src/stm32h7xx_ll_usb.c ****       {
ARM GAS  /tmp/ccCJnE45.s 			page 17


 889:Drivers/STM32H7xx_HAL_Driver/Src/stm32h7xx_ll_usb.c ****         USBx_DEVICE->DIEPEMPMSK |= 1UL << (ep->num & EP_ADDR_MSK);
 890:Drivers/STM32H7xx_HAL_Driver/Src/stm32h7xx_ll_usb.c ****       }
 891:Drivers/STM32H7xx_HAL_Driver/Src/stm32h7xx_ll_usb.c ****     }
 892:Drivers/STM32H7xx_HAL_Driver/Src/stm32h7xx_ll_usb.c ****   }
 893:Drivers/STM32H7xx_HAL_Driver/Src/stm32h7xx_ll_usb.c ****   else /* OUT endpoint */
 894:Drivers/STM32H7xx_HAL_Driver/Src/stm32h7xx_ll_usb.c ****   {
 895:Drivers/STM32H7xx_HAL_Driver/Src/stm32h7xx_ll_usb.c ****     /* Program the transfer size and packet count as follows:
 896:Drivers/STM32H7xx_HAL_Driver/Src/stm32h7xx_ll_usb.c ****     * pktcnt = N
 897:Drivers/STM32H7xx_HAL_Driver/Src/stm32h7xx_ll_usb.c ****     * xfersize = N * maxpacket
 898:Drivers/STM32H7xx_HAL_Driver/Src/stm32h7xx_ll_usb.c ****     */
 899:Drivers/STM32H7xx_HAL_Driver/Src/stm32h7xx_ll_usb.c ****     USBx_OUTEP(epnum)->DOEPTSIZ &= ~(USB_OTG_DOEPTSIZ_XFRSIZ);
 900:Drivers/STM32H7xx_HAL_Driver/Src/stm32h7xx_ll_usb.c ****     USBx_OUTEP(epnum)->DOEPTSIZ &= ~(USB_OTG_DOEPTSIZ_PKTCNT);
 901:Drivers/STM32H7xx_HAL_Driver/Src/stm32h7xx_ll_usb.c **** 
 902:Drivers/STM32H7xx_HAL_Driver/Src/stm32h7xx_ll_usb.c ****     if (ep->xfer_len > 0U)
 903:Drivers/STM32H7xx_HAL_Driver/Src/stm32h7xx_ll_usb.c ****     {
 904:Drivers/STM32H7xx_HAL_Driver/Src/stm32h7xx_ll_usb.c ****       ep->xfer_len = ep->maxpacket;
 905:Drivers/STM32H7xx_HAL_Driver/Src/stm32h7xx_ll_usb.c ****     }
 906:Drivers/STM32H7xx_HAL_Driver/Src/stm32h7xx_ll_usb.c **** 
 907:Drivers/STM32H7xx_HAL_Driver/Src/stm32h7xx_ll_usb.c ****     USBx_OUTEP(epnum)->DOEPTSIZ |= (USB_OTG_DOEPTSIZ_PKTCNT & (1U << 19));
 908:Drivers/STM32H7xx_HAL_Driver/Src/stm32h7xx_ll_usb.c ****     USBx_OUTEP(epnum)->DOEPTSIZ |= (USB_OTG_DOEPTSIZ_XFRSIZ & (ep->maxpacket));
 909:Drivers/STM32H7xx_HAL_Driver/Src/stm32h7xx_ll_usb.c **** 
 910:Drivers/STM32H7xx_HAL_Driver/Src/stm32h7xx_ll_usb.c ****     if (dma == 1U)
 911:Drivers/STM32H7xx_HAL_Driver/Src/stm32h7xx_ll_usb.c ****     {
 912:Drivers/STM32H7xx_HAL_Driver/Src/stm32h7xx_ll_usb.c ****       if ((uint32_t)ep->xfer_buff != 0U)
 913:Drivers/STM32H7xx_HAL_Driver/Src/stm32h7xx_ll_usb.c ****       {
 914:Drivers/STM32H7xx_HAL_Driver/Src/stm32h7xx_ll_usb.c ****         USBx_OUTEP(epnum)->DOEPDMA = (uint32_t)(ep->xfer_buff);
 915:Drivers/STM32H7xx_HAL_Driver/Src/stm32h7xx_ll_usb.c ****       }
 916:Drivers/STM32H7xx_HAL_Driver/Src/stm32h7xx_ll_usb.c ****     }
 917:Drivers/STM32H7xx_HAL_Driver/Src/stm32h7xx_ll_usb.c **** 
 918:Drivers/STM32H7xx_HAL_Driver/Src/stm32h7xx_ll_usb.c ****     /* EP enable */
 919:Drivers/STM32H7xx_HAL_Driver/Src/stm32h7xx_ll_usb.c ****     USBx_OUTEP(epnum)->DOEPCTL |= (USB_OTG_DOEPCTL_CNAK | USB_OTG_DOEPCTL_EPENA);
 920:Drivers/STM32H7xx_HAL_Driver/Src/stm32h7xx_ll_usb.c ****   }
 921:Drivers/STM32H7xx_HAL_Driver/Src/stm32h7xx_ll_usb.c **** 
 922:Drivers/STM32H7xx_HAL_Driver/Src/stm32h7xx_ll_usb.c ****   return HAL_OK;
 923:Drivers/STM32H7xx_HAL_Driver/Src/stm32h7xx_ll_usb.c **** }
 924:Drivers/STM32H7xx_HAL_Driver/Src/stm32h7xx_ll_usb.c **** 
 925:Drivers/STM32H7xx_HAL_Driver/Src/stm32h7xx_ll_usb.c **** /**
 926:Drivers/STM32H7xx_HAL_Driver/Src/stm32h7xx_ll_usb.c ****   * @brief  USB_WritePacket : Writes a packet into the Tx FIFO associated
 927:Drivers/STM32H7xx_HAL_Driver/Src/stm32h7xx_ll_usb.c ****   *         with the EP/channel
 928:Drivers/STM32H7xx_HAL_Driver/Src/stm32h7xx_ll_usb.c ****   * @param  USBx  Selected device
 929:Drivers/STM32H7xx_HAL_Driver/Src/stm32h7xx_ll_usb.c ****   * @param  src   pointer to source buffer
 930:Drivers/STM32H7xx_HAL_Driver/Src/stm32h7xx_ll_usb.c ****   * @param  ch_ep_num  endpoint or host channel number
 931:Drivers/STM32H7xx_HAL_Driver/Src/stm32h7xx_ll_usb.c ****   * @param  len  Number of bytes to write
 932:Drivers/STM32H7xx_HAL_Driver/Src/stm32h7xx_ll_usb.c ****   * @param  dma USB dma enabled or disabled
 933:Drivers/STM32H7xx_HAL_Driver/Src/stm32h7xx_ll_usb.c ****   *          This parameter can be one of these values:
 934:Drivers/STM32H7xx_HAL_Driver/Src/stm32h7xx_ll_usb.c ****   *           0 : DMA feature not used
 935:Drivers/STM32H7xx_HAL_Driver/Src/stm32h7xx_ll_usb.c ****   *           1 : DMA feature used
 936:Drivers/STM32H7xx_HAL_Driver/Src/stm32h7xx_ll_usb.c ****   * @retval HAL status
 937:Drivers/STM32H7xx_HAL_Driver/Src/stm32h7xx_ll_usb.c ****   */
 938:Drivers/STM32H7xx_HAL_Driver/Src/stm32h7xx_ll_usb.c **** HAL_StatusTypeDef USB_WritePacket(USB_OTG_GlobalTypeDef *USBx, uint8_t *src, uint8_t ch_ep_num, uin
 939:Drivers/STM32H7xx_HAL_Driver/Src/stm32h7xx_ll_usb.c **** {
 940:Drivers/STM32H7xx_HAL_Driver/Src/stm32h7xx_ll_usb.c ****   uint32_t USBx_BASE = (uint32_t)USBx;
 941:Drivers/STM32H7xx_HAL_Driver/Src/stm32h7xx_ll_usb.c ****   uint32_t *pSrc = (uint32_t *)src;
 942:Drivers/STM32H7xx_HAL_Driver/Src/stm32h7xx_ll_usb.c ****   uint32_t count32b, i;
 943:Drivers/STM32H7xx_HAL_Driver/Src/stm32h7xx_ll_usb.c **** 
 944:Drivers/STM32H7xx_HAL_Driver/Src/stm32h7xx_ll_usb.c ****   if (dma == 0U)
 945:Drivers/STM32H7xx_HAL_Driver/Src/stm32h7xx_ll_usb.c ****   {
ARM GAS  /tmp/ccCJnE45.s 			page 18


 946:Drivers/STM32H7xx_HAL_Driver/Src/stm32h7xx_ll_usb.c ****     count32b = ((uint32_t)len + 3U) / 4U;
 947:Drivers/STM32H7xx_HAL_Driver/Src/stm32h7xx_ll_usb.c ****     for (i = 0U; i < count32b; i++)
 948:Drivers/STM32H7xx_HAL_Driver/Src/stm32h7xx_ll_usb.c ****     {
 949:Drivers/STM32H7xx_HAL_Driver/Src/stm32h7xx_ll_usb.c ****       USBx_DFIFO((uint32_t)ch_ep_num) = __UNALIGNED_UINT32_READ(pSrc);
 950:Drivers/STM32H7xx_HAL_Driver/Src/stm32h7xx_ll_usb.c ****       pSrc++;
 951:Drivers/STM32H7xx_HAL_Driver/Src/stm32h7xx_ll_usb.c ****     }
 952:Drivers/STM32H7xx_HAL_Driver/Src/stm32h7xx_ll_usb.c ****   }
 953:Drivers/STM32H7xx_HAL_Driver/Src/stm32h7xx_ll_usb.c **** 
 954:Drivers/STM32H7xx_HAL_Driver/Src/stm32h7xx_ll_usb.c ****   return HAL_OK;
 955:Drivers/STM32H7xx_HAL_Driver/Src/stm32h7xx_ll_usb.c **** }
 956:Drivers/STM32H7xx_HAL_Driver/Src/stm32h7xx_ll_usb.c **** 
 957:Drivers/STM32H7xx_HAL_Driver/Src/stm32h7xx_ll_usb.c **** /**
 958:Drivers/STM32H7xx_HAL_Driver/Src/stm32h7xx_ll_usb.c ****   * @brief  USB_ReadPacket : read a packet from the RX FIFO
 959:Drivers/STM32H7xx_HAL_Driver/Src/stm32h7xx_ll_usb.c ****   * @param  USBx  Selected device
 960:Drivers/STM32H7xx_HAL_Driver/Src/stm32h7xx_ll_usb.c ****   * @param  dest  source pointer
 961:Drivers/STM32H7xx_HAL_Driver/Src/stm32h7xx_ll_usb.c ****   * @param  len  Number of bytes to read
 962:Drivers/STM32H7xx_HAL_Driver/Src/stm32h7xx_ll_usb.c ****   * @retval pointer to destination buffer
 963:Drivers/STM32H7xx_HAL_Driver/Src/stm32h7xx_ll_usb.c ****   */
 964:Drivers/STM32H7xx_HAL_Driver/Src/stm32h7xx_ll_usb.c **** void *USB_ReadPacket(USB_OTG_GlobalTypeDef *USBx, uint8_t *dest, uint16_t len)
 965:Drivers/STM32H7xx_HAL_Driver/Src/stm32h7xx_ll_usb.c **** {
 966:Drivers/STM32H7xx_HAL_Driver/Src/stm32h7xx_ll_usb.c ****   uint32_t USBx_BASE = (uint32_t)USBx;
 967:Drivers/STM32H7xx_HAL_Driver/Src/stm32h7xx_ll_usb.c ****   uint32_t *pDest = (uint32_t *)dest;
 968:Drivers/STM32H7xx_HAL_Driver/Src/stm32h7xx_ll_usb.c ****   uint32_t i;
 969:Drivers/STM32H7xx_HAL_Driver/Src/stm32h7xx_ll_usb.c ****   uint32_t count32b = ((uint32_t)len + 3U) / 4U;
 970:Drivers/STM32H7xx_HAL_Driver/Src/stm32h7xx_ll_usb.c **** 
 971:Drivers/STM32H7xx_HAL_Driver/Src/stm32h7xx_ll_usb.c ****   for (i = 0U; i < count32b; i++)
 972:Drivers/STM32H7xx_HAL_Driver/Src/stm32h7xx_ll_usb.c ****   {
 973:Drivers/STM32H7xx_HAL_Driver/Src/stm32h7xx_ll_usb.c ****     __UNALIGNED_UINT32_WRITE(pDest, USBx_DFIFO(0U));
 974:Drivers/STM32H7xx_HAL_Driver/Src/stm32h7xx_ll_usb.c ****     pDest++;
 975:Drivers/STM32H7xx_HAL_Driver/Src/stm32h7xx_ll_usb.c ****   }
 976:Drivers/STM32H7xx_HAL_Driver/Src/stm32h7xx_ll_usb.c **** 
 977:Drivers/STM32H7xx_HAL_Driver/Src/stm32h7xx_ll_usb.c ****   return ((void *)pDest);
 978:Drivers/STM32H7xx_HAL_Driver/Src/stm32h7xx_ll_usb.c **** }
 979:Drivers/STM32H7xx_HAL_Driver/Src/stm32h7xx_ll_usb.c **** 
 980:Drivers/STM32H7xx_HAL_Driver/Src/stm32h7xx_ll_usb.c **** /**
 981:Drivers/STM32H7xx_HAL_Driver/Src/stm32h7xx_ll_usb.c ****   * @brief  USB_EPSetStall : set a stall condition over an EP
 982:Drivers/STM32H7xx_HAL_Driver/Src/stm32h7xx_ll_usb.c ****   * @param  USBx  Selected device
 983:Drivers/STM32H7xx_HAL_Driver/Src/stm32h7xx_ll_usb.c ****   * @param  ep pointer to endpoint structure
 984:Drivers/STM32H7xx_HAL_Driver/Src/stm32h7xx_ll_usb.c ****   * @retval HAL status
 985:Drivers/STM32H7xx_HAL_Driver/Src/stm32h7xx_ll_usb.c ****   */
 986:Drivers/STM32H7xx_HAL_Driver/Src/stm32h7xx_ll_usb.c **** HAL_StatusTypeDef USB_EPSetStall(USB_OTG_GlobalTypeDef *USBx, USB_OTG_EPTypeDef *ep)
 987:Drivers/STM32H7xx_HAL_Driver/Src/stm32h7xx_ll_usb.c **** {
 988:Drivers/STM32H7xx_HAL_Driver/Src/stm32h7xx_ll_usb.c ****   uint32_t USBx_BASE = (uint32_t)USBx;
 989:Drivers/STM32H7xx_HAL_Driver/Src/stm32h7xx_ll_usb.c ****   uint32_t epnum = (uint32_t)ep->num;
 990:Drivers/STM32H7xx_HAL_Driver/Src/stm32h7xx_ll_usb.c **** 
 991:Drivers/STM32H7xx_HAL_Driver/Src/stm32h7xx_ll_usb.c ****   if (ep->is_in == 1U)
 992:Drivers/STM32H7xx_HAL_Driver/Src/stm32h7xx_ll_usb.c ****   {
 993:Drivers/STM32H7xx_HAL_Driver/Src/stm32h7xx_ll_usb.c ****     if (((USBx_INEP(epnum)->DIEPCTL & USB_OTG_DIEPCTL_EPENA) == 0U) && (epnum != 0U))
 994:Drivers/STM32H7xx_HAL_Driver/Src/stm32h7xx_ll_usb.c ****     {
 995:Drivers/STM32H7xx_HAL_Driver/Src/stm32h7xx_ll_usb.c ****       USBx_INEP(epnum)->DIEPCTL &= ~(USB_OTG_DIEPCTL_EPDIS);
 996:Drivers/STM32H7xx_HAL_Driver/Src/stm32h7xx_ll_usb.c ****     }
 997:Drivers/STM32H7xx_HAL_Driver/Src/stm32h7xx_ll_usb.c ****     USBx_INEP(epnum)->DIEPCTL |= USB_OTG_DIEPCTL_STALL;
 998:Drivers/STM32H7xx_HAL_Driver/Src/stm32h7xx_ll_usb.c ****   }
 999:Drivers/STM32H7xx_HAL_Driver/Src/stm32h7xx_ll_usb.c ****   else
1000:Drivers/STM32H7xx_HAL_Driver/Src/stm32h7xx_ll_usb.c ****   {
1001:Drivers/STM32H7xx_HAL_Driver/Src/stm32h7xx_ll_usb.c ****     if (((USBx_OUTEP(epnum)->DOEPCTL & USB_OTG_DOEPCTL_EPENA) == 0U) && (epnum != 0U))
1002:Drivers/STM32H7xx_HAL_Driver/Src/stm32h7xx_ll_usb.c ****     {
ARM GAS  /tmp/ccCJnE45.s 			page 19


1003:Drivers/STM32H7xx_HAL_Driver/Src/stm32h7xx_ll_usb.c ****       USBx_OUTEP(epnum)->DOEPCTL &= ~(USB_OTG_DOEPCTL_EPDIS);
1004:Drivers/STM32H7xx_HAL_Driver/Src/stm32h7xx_ll_usb.c ****     }
1005:Drivers/STM32H7xx_HAL_Driver/Src/stm32h7xx_ll_usb.c ****     USBx_OUTEP(epnum)->DOEPCTL |= USB_OTG_DOEPCTL_STALL;
1006:Drivers/STM32H7xx_HAL_Driver/Src/stm32h7xx_ll_usb.c ****   }
1007:Drivers/STM32H7xx_HAL_Driver/Src/stm32h7xx_ll_usb.c **** 
1008:Drivers/STM32H7xx_HAL_Driver/Src/stm32h7xx_ll_usb.c ****   return HAL_OK;
1009:Drivers/STM32H7xx_HAL_Driver/Src/stm32h7xx_ll_usb.c **** }
1010:Drivers/STM32H7xx_HAL_Driver/Src/stm32h7xx_ll_usb.c **** 
1011:Drivers/STM32H7xx_HAL_Driver/Src/stm32h7xx_ll_usb.c **** /**
1012:Drivers/STM32H7xx_HAL_Driver/Src/stm32h7xx_ll_usb.c ****   * @brief  USB_EPClearStall : Clear a stall condition over an EP
1013:Drivers/STM32H7xx_HAL_Driver/Src/stm32h7xx_ll_usb.c ****   * @param  USBx  Selected device
1014:Drivers/STM32H7xx_HAL_Driver/Src/stm32h7xx_ll_usb.c ****   * @param  ep pointer to endpoint structure
1015:Drivers/STM32H7xx_HAL_Driver/Src/stm32h7xx_ll_usb.c ****   * @retval HAL status
1016:Drivers/STM32H7xx_HAL_Driver/Src/stm32h7xx_ll_usb.c ****   */
1017:Drivers/STM32H7xx_HAL_Driver/Src/stm32h7xx_ll_usb.c **** HAL_StatusTypeDef USB_EPClearStall(USB_OTG_GlobalTypeDef *USBx, USB_OTG_EPTypeDef *ep)
1018:Drivers/STM32H7xx_HAL_Driver/Src/stm32h7xx_ll_usb.c **** {
1019:Drivers/STM32H7xx_HAL_Driver/Src/stm32h7xx_ll_usb.c ****   uint32_t USBx_BASE = (uint32_t)USBx;
1020:Drivers/STM32H7xx_HAL_Driver/Src/stm32h7xx_ll_usb.c ****   uint32_t epnum = (uint32_t)ep->num;
1021:Drivers/STM32H7xx_HAL_Driver/Src/stm32h7xx_ll_usb.c **** 
1022:Drivers/STM32H7xx_HAL_Driver/Src/stm32h7xx_ll_usb.c ****   if (ep->is_in == 1U)
1023:Drivers/STM32H7xx_HAL_Driver/Src/stm32h7xx_ll_usb.c ****   {
1024:Drivers/STM32H7xx_HAL_Driver/Src/stm32h7xx_ll_usb.c ****     USBx_INEP(epnum)->DIEPCTL &= ~USB_OTG_DIEPCTL_STALL;
1025:Drivers/STM32H7xx_HAL_Driver/Src/stm32h7xx_ll_usb.c ****     if ((ep->type == EP_TYPE_INTR) || (ep->type == EP_TYPE_BULK))
1026:Drivers/STM32H7xx_HAL_Driver/Src/stm32h7xx_ll_usb.c ****     {
1027:Drivers/STM32H7xx_HAL_Driver/Src/stm32h7xx_ll_usb.c ****       USBx_INEP(epnum)->DIEPCTL |= USB_OTG_DIEPCTL_SD0PID_SEVNFRM; /* DATA0 */
1028:Drivers/STM32H7xx_HAL_Driver/Src/stm32h7xx_ll_usb.c ****     }
1029:Drivers/STM32H7xx_HAL_Driver/Src/stm32h7xx_ll_usb.c ****   }
1030:Drivers/STM32H7xx_HAL_Driver/Src/stm32h7xx_ll_usb.c ****   else
1031:Drivers/STM32H7xx_HAL_Driver/Src/stm32h7xx_ll_usb.c ****   {
1032:Drivers/STM32H7xx_HAL_Driver/Src/stm32h7xx_ll_usb.c ****     USBx_OUTEP(epnum)->DOEPCTL &= ~USB_OTG_DOEPCTL_STALL;
1033:Drivers/STM32H7xx_HAL_Driver/Src/stm32h7xx_ll_usb.c ****     if ((ep->type == EP_TYPE_INTR) || (ep->type == EP_TYPE_BULK))
1034:Drivers/STM32H7xx_HAL_Driver/Src/stm32h7xx_ll_usb.c ****     {
1035:Drivers/STM32H7xx_HAL_Driver/Src/stm32h7xx_ll_usb.c ****       USBx_OUTEP(epnum)->DOEPCTL |= USB_OTG_DOEPCTL_SD0PID_SEVNFRM; /* DATA0 */
1036:Drivers/STM32H7xx_HAL_Driver/Src/stm32h7xx_ll_usb.c ****     }
1037:Drivers/STM32H7xx_HAL_Driver/Src/stm32h7xx_ll_usb.c ****   }
1038:Drivers/STM32H7xx_HAL_Driver/Src/stm32h7xx_ll_usb.c ****   return HAL_OK;
1039:Drivers/STM32H7xx_HAL_Driver/Src/stm32h7xx_ll_usb.c **** }
1040:Drivers/STM32H7xx_HAL_Driver/Src/stm32h7xx_ll_usb.c **** 
1041:Drivers/STM32H7xx_HAL_Driver/Src/stm32h7xx_ll_usb.c **** /**
1042:Drivers/STM32H7xx_HAL_Driver/Src/stm32h7xx_ll_usb.c ****   * @brief  USB_StopDevice : Stop the usb device mode
1043:Drivers/STM32H7xx_HAL_Driver/Src/stm32h7xx_ll_usb.c ****   * @param  USBx  Selected device
1044:Drivers/STM32H7xx_HAL_Driver/Src/stm32h7xx_ll_usb.c ****   * @retval HAL status
1045:Drivers/STM32H7xx_HAL_Driver/Src/stm32h7xx_ll_usb.c ****   */
1046:Drivers/STM32H7xx_HAL_Driver/Src/stm32h7xx_ll_usb.c **** HAL_StatusTypeDef USB_StopDevice(USB_OTG_GlobalTypeDef *USBx)
1047:Drivers/STM32H7xx_HAL_Driver/Src/stm32h7xx_ll_usb.c **** {
1048:Drivers/STM32H7xx_HAL_Driver/Src/stm32h7xx_ll_usb.c ****   HAL_StatusTypeDef ret;
1049:Drivers/STM32H7xx_HAL_Driver/Src/stm32h7xx_ll_usb.c ****   uint32_t USBx_BASE = (uint32_t)USBx;
1050:Drivers/STM32H7xx_HAL_Driver/Src/stm32h7xx_ll_usb.c ****   uint32_t i;
1051:Drivers/STM32H7xx_HAL_Driver/Src/stm32h7xx_ll_usb.c **** 
1052:Drivers/STM32H7xx_HAL_Driver/Src/stm32h7xx_ll_usb.c ****   /* Clear Pending interrupt */
1053:Drivers/STM32H7xx_HAL_Driver/Src/stm32h7xx_ll_usb.c ****   for (i = 0U; i < 15U; i++)
1054:Drivers/STM32H7xx_HAL_Driver/Src/stm32h7xx_ll_usb.c ****   {
1055:Drivers/STM32H7xx_HAL_Driver/Src/stm32h7xx_ll_usb.c ****     USBx_INEP(i)->DIEPINT = 0xFB7FU;
1056:Drivers/STM32H7xx_HAL_Driver/Src/stm32h7xx_ll_usb.c ****     USBx_OUTEP(i)->DOEPINT = 0xFB7FU;
1057:Drivers/STM32H7xx_HAL_Driver/Src/stm32h7xx_ll_usb.c ****   }
1058:Drivers/STM32H7xx_HAL_Driver/Src/stm32h7xx_ll_usb.c **** 
1059:Drivers/STM32H7xx_HAL_Driver/Src/stm32h7xx_ll_usb.c ****   /* Clear interrupt masks */
ARM GAS  /tmp/ccCJnE45.s 			page 20


1060:Drivers/STM32H7xx_HAL_Driver/Src/stm32h7xx_ll_usb.c ****   USBx_DEVICE->DIEPMSK  = 0U;
1061:Drivers/STM32H7xx_HAL_Driver/Src/stm32h7xx_ll_usb.c ****   USBx_DEVICE->DOEPMSK  = 0U;
1062:Drivers/STM32H7xx_HAL_Driver/Src/stm32h7xx_ll_usb.c ****   USBx_DEVICE->DAINTMSK = 0U;
1063:Drivers/STM32H7xx_HAL_Driver/Src/stm32h7xx_ll_usb.c **** 
1064:Drivers/STM32H7xx_HAL_Driver/Src/stm32h7xx_ll_usb.c ****   /* Flush the FIFO */
1065:Drivers/STM32H7xx_HAL_Driver/Src/stm32h7xx_ll_usb.c ****   ret = USB_FlushRxFifo(USBx);
1066:Drivers/STM32H7xx_HAL_Driver/Src/stm32h7xx_ll_usb.c ****   if (ret != HAL_OK)
1067:Drivers/STM32H7xx_HAL_Driver/Src/stm32h7xx_ll_usb.c ****   {
1068:Drivers/STM32H7xx_HAL_Driver/Src/stm32h7xx_ll_usb.c ****     return ret;
1069:Drivers/STM32H7xx_HAL_Driver/Src/stm32h7xx_ll_usb.c ****   }
1070:Drivers/STM32H7xx_HAL_Driver/Src/stm32h7xx_ll_usb.c **** 
1071:Drivers/STM32H7xx_HAL_Driver/Src/stm32h7xx_ll_usb.c ****   ret = USB_FlushTxFifo(USBx,  0x10U);
1072:Drivers/STM32H7xx_HAL_Driver/Src/stm32h7xx_ll_usb.c ****   if (ret != HAL_OK)
1073:Drivers/STM32H7xx_HAL_Driver/Src/stm32h7xx_ll_usb.c ****   {
1074:Drivers/STM32H7xx_HAL_Driver/Src/stm32h7xx_ll_usb.c ****     return ret;
1075:Drivers/STM32H7xx_HAL_Driver/Src/stm32h7xx_ll_usb.c ****   }
1076:Drivers/STM32H7xx_HAL_Driver/Src/stm32h7xx_ll_usb.c **** 
1077:Drivers/STM32H7xx_HAL_Driver/Src/stm32h7xx_ll_usb.c ****   return ret;
1078:Drivers/STM32H7xx_HAL_Driver/Src/stm32h7xx_ll_usb.c **** }
1079:Drivers/STM32H7xx_HAL_Driver/Src/stm32h7xx_ll_usb.c **** 
1080:Drivers/STM32H7xx_HAL_Driver/Src/stm32h7xx_ll_usb.c **** /**
1081:Drivers/STM32H7xx_HAL_Driver/Src/stm32h7xx_ll_usb.c ****   * @brief  USB_SetDevAddress : Stop the usb device mode
1082:Drivers/STM32H7xx_HAL_Driver/Src/stm32h7xx_ll_usb.c ****   * @param  USBx  Selected device
1083:Drivers/STM32H7xx_HAL_Driver/Src/stm32h7xx_ll_usb.c ****   * @param  address  new device address to be assigned
1084:Drivers/STM32H7xx_HAL_Driver/Src/stm32h7xx_ll_usb.c ****   *          This parameter can be a value from 0 to 255
1085:Drivers/STM32H7xx_HAL_Driver/Src/stm32h7xx_ll_usb.c ****   * @retval HAL status
1086:Drivers/STM32H7xx_HAL_Driver/Src/stm32h7xx_ll_usb.c ****   */
1087:Drivers/STM32H7xx_HAL_Driver/Src/stm32h7xx_ll_usb.c **** HAL_StatusTypeDef  USB_SetDevAddress(USB_OTG_GlobalTypeDef *USBx, uint8_t address)
1088:Drivers/STM32H7xx_HAL_Driver/Src/stm32h7xx_ll_usb.c **** {
1089:Drivers/STM32H7xx_HAL_Driver/Src/stm32h7xx_ll_usb.c ****   uint32_t USBx_BASE = (uint32_t)USBx;
1090:Drivers/STM32H7xx_HAL_Driver/Src/stm32h7xx_ll_usb.c **** 
1091:Drivers/STM32H7xx_HAL_Driver/Src/stm32h7xx_ll_usb.c ****   USBx_DEVICE->DCFG &= ~(USB_OTG_DCFG_DAD);
1092:Drivers/STM32H7xx_HAL_Driver/Src/stm32h7xx_ll_usb.c ****   USBx_DEVICE->DCFG |= ((uint32_t)address << 4) & USB_OTG_DCFG_DAD;
1093:Drivers/STM32H7xx_HAL_Driver/Src/stm32h7xx_ll_usb.c **** 
1094:Drivers/STM32H7xx_HAL_Driver/Src/stm32h7xx_ll_usb.c ****   return HAL_OK;
1095:Drivers/STM32H7xx_HAL_Driver/Src/stm32h7xx_ll_usb.c **** }
1096:Drivers/STM32H7xx_HAL_Driver/Src/stm32h7xx_ll_usb.c **** 
1097:Drivers/STM32H7xx_HAL_Driver/Src/stm32h7xx_ll_usb.c **** /**
1098:Drivers/STM32H7xx_HAL_Driver/Src/stm32h7xx_ll_usb.c ****   * @brief  USB_DevConnect : Connect the USB device by enabling the pull-up/pull-down
1099:Drivers/STM32H7xx_HAL_Driver/Src/stm32h7xx_ll_usb.c ****   * @param  USBx  Selected device
1100:Drivers/STM32H7xx_HAL_Driver/Src/stm32h7xx_ll_usb.c ****   * @retval HAL status
1101:Drivers/STM32H7xx_HAL_Driver/Src/stm32h7xx_ll_usb.c ****   */
1102:Drivers/STM32H7xx_HAL_Driver/Src/stm32h7xx_ll_usb.c **** HAL_StatusTypeDef  USB_DevConnect(USB_OTG_GlobalTypeDef *USBx)
1103:Drivers/STM32H7xx_HAL_Driver/Src/stm32h7xx_ll_usb.c **** {
1104:Drivers/STM32H7xx_HAL_Driver/Src/stm32h7xx_ll_usb.c ****   uint32_t USBx_BASE = (uint32_t)USBx;
1105:Drivers/STM32H7xx_HAL_Driver/Src/stm32h7xx_ll_usb.c **** 
1106:Drivers/STM32H7xx_HAL_Driver/Src/stm32h7xx_ll_usb.c ****   USBx_DEVICE->DCTL &= ~USB_OTG_DCTL_SDIS;
1107:Drivers/STM32H7xx_HAL_Driver/Src/stm32h7xx_ll_usb.c ****   HAL_Delay(3U);
1108:Drivers/STM32H7xx_HAL_Driver/Src/stm32h7xx_ll_usb.c **** 
1109:Drivers/STM32H7xx_HAL_Driver/Src/stm32h7xx_ll_usb.c ****   return HAL_OK;
1110:Drivers/STM32H7xx_HAL_Driver/Src/stm32h7xx_ll_usb.c **** }
1111:Drivers/STM32H7xx_HAL_Driver/Src/stm32h7xx_ll_usb.c **** 
1112:Drivers/STM32H7xx_HAL_Driver/Src/stm32h7xx_ll_usb.c **** /**
1113:Drivers/STM32H7xx_HAL_Driver/Src/stm32h7xx_ll_usb.c ****   * @brief  USB_DevDisconnect : Disconnect the USB device by disabling the pull-up/pull-down
1114:Drivers/STM32H7xx_HAL_Driver/Src/stm32h7xx_ll_usb.c ****   * @param  USBx  Selected device
1115:Drivers/STM32H7xx_HAL_Driver/Src/stm32h7xx_ll_usb.c ****   * @retval HAL status
1116:Drivers/STM32H7xx_HAL_Driver/Src/stm32h7xx_ll_usb.c ****   */
ARM GAS  /tmp/ccCJnE45.s 			page 21


1117:Drivers/STM32H7xx_HAL_Driver/Src/stm32h7xx_ll_usb.c **** HAL_StatusTypeDef  USB_DevDisconnect(USB_OTG_GlobalTypeDef *USBx)
1118:Drivers/STM32H7xx_HAL_Driver/Src/stm32h7xx_ll_usb.c **** {
1119:Drivers/STM32H7xx_HAL_Driver/Src/stm32h7xx_ll_usb.c ****   uint32_t USBx_BASE = (uint32_t)USBx;
1120:Drivers/STM32H7xx_HAL_Driver/Src/stm32h7xx_ll_usb.c **** 
1121:Drivers/STM32H7xx_HAL_Driver/Src/stm32h7xx_ll_usb.c ****   USBx_DEVICE->DCTL |= USB_OTG_DCTL_SDIS;
1122:Drivers/STM32H7xx_HAL_Driver/Src/stm32h7xx_ll_usb.c ****   HAL_Delay(3U);
1123:Drivers/STM32H7xx_HAL_Driver/Src/stm32h7xx_ll_usb.c **** 
1124:Drivers/STM32H7xx_HAL_Driver/Src/stm32h7xx_ll_usb.c ****   return HAL_OK;
1125:Drivers/STM32H7xx_HAL_Driver/Src/stm32h7xx_ll_usb.c **** }
1126:Drivers/STM32H7xx_HAL_Driver/Src/stm32h7xx_ll_usb.c **** 
1127:Drivers/STM32H7xx_HAL_Driver/Src/stm32h7xx_ll_usb.c **** /**
1128:Drivers/STM32H7xx_HAL_Driver/Src/stm32h7xx_ll_usb.c ****   * @brief  USB_ReadInterrupts: return the global USB interrupt status
1129:Drivers/STM32H7xx_HAL_Driver/Src/stm32h7xx_ll_usb.c ****   * @param  USBx  Selected device
1130:Drivers/STM32H7xx_HAL_Driver/Src/stm32h7xx_ll_usb.c ****   * @retval HAL status
1131:Drivers/STM32H7xx_HAL_Driver/Src/stm32h7xx_ll_usb.c ****   */
1132:Drivers/STM32H7xx_HAL_Driver/Src/stm32h7xx_ll_usb.c **** uint32_t  USB_ReadInterrupts(USB_OTG_GlobalTypeDef *USBx)
1133:Drivers/STM32H7xx_HAL_Driver/Src/stm32h7xx_ll_usb.c **** {
1134:Drivers/STM32H7xx_HAL_Driver/Src/stm32h7xx_ll_usb.c ****   uint32_t tmpreg;
1135:Drivers/STM32H7xx_HAL_Driver/Src/stm32h7xx_ll_usb.c **** 
1136:Drivers/STM32H7xx_HAL_Driver/Src/stm32h7xx_ll_usb.c ****   tmpreg = USBx->GINTSTS;
1137:Drivers/STM32H7xx_HAL_Driver/Src/stm32h7xx_ll_usb.c ****   tmpreg &= USBx->GINTMSK;
1138:Drivers/STM32H7xx_HAL_Driver/Src/stm32h7xx_ll_usb.c **** 
1139:Drivers/STM32H7xx_HAL_Driver/Src/stm32h7xx_ll_usb.c ****   return tmpreg;
1140:Drivers/STM32H7xx_HAL_Driver/Src/stm32h7xx_ll_usb.c **** }
1141:Drivers/STM32H7xx_HAL_Driver/Src/stm32h7xx_ll_usb.c **** 
1142:Drivers/STM32H7xx_HAL_Driver/Src/stm32h7xx_ll_usb.c **** /**
1143:Drivers/STM32H7xx_HAL_Driver/Src/stm32h7xx_ll_usb.c ****   * @brief  USB_ReadDevAllOutEpInterrupt: return the USB device OUT endpoints interrupt status
1144:Drivers/STM32H7xx_HAL_Driver/Src/stm32h7xx_ll_usb.c ****   * @param  USBx  Selected device
1145:Drivers/STM32H7xx_HAL_Driver/Src/stm32h7xx_ll_usb.c ****   * @retval HAL status
1146:Drivers/STM32H7xx_HAL_Driver/Src/stm32h7xx_ll_usb.c ****   */
1147:Drivers/STM32H7xx_HAL_Driver/Src/stm32h7xx_ll_usb.c **** uint32_t USB_ReadDevAllOutEpInterrupt(USB_OTG_GlobalTypeDef *USBx)
1148:Drivers/STM32H7xx_HAL_Driver/Src/stm32h7xx_ll_usb.c **** {
1149:Drivers/STM32H7xx_HAL_Driver/Src/stm32h7xx_ll_usb.c ****   uint32_t USBx_BASE = (uint32_t)USBx;
1150:Drivers/STM32H7xx_HAL_Driver/Src/stm32h7xx_ll_usb.c ****   uint32_t tmpreg;
1151:Drivers/STM32H7xx_HAL_Driver/Src/stm32h7xx_ll_usb.c **** 
1152:Drivers/STM32H7xx_HAL_Driver/Src/stm32h7xx_ll_usb.c ****   tmpreg  = USBx_DEVICE->DAINT;
1153:Drivers/STM32H7xx_HAL_Driver/Src/stm32h7xx_ll_usb.c ****   tmpreg &= USBx_DEVICE->DAINTMSK;
1154:Drivers/STM32H7xx_HAL_Driver/Src/stm32h7xx_ll_usb.c **** 
1155:Drivers/STM32H7xx_HAL_Driver/Src/stm32h7xx_ll_usb.c ****   return ((tmpreg & 0xffff0000U) >> 16);
1156:Drivers/STM32H7xx_HAL_Driver/Src/stm32h7xx_ll_usb.c **** }
1157:Drivers/STM32H7xx_HAL_Driver/Src/stm32h7xx_ll_usb.c **** 
1158:Drivers/STM32H7xx_HAL_Driver/Src/stm32h7xx_ll_usb.c **** /**
1159:Drivers/STM32H7xx_HAL_Driver/Src/stm32h7xx_ll_usb.c ****   * @brief  USB_ReadDevAllInEpInterrupt: return the USB device IN endpoints interrupt status
1160:Drivers/STM32H7xx_HAL_Driver/Src/stm32h7xx_ll_usb.c ****   * @param  USBx  Selected device
1161:Drivers/STM32H7xx_HAL_Driver/Src/stm32h7xx_ll_usb.c ****   * @retval HAL status
1162:Drivers/STM32H7xx_HAL_Driver/Src/stm32h7xx_ll_usb.c ****   */
1163:Drivers/STM32H7xx_HAL_Driver/Src/stm32h7xx_ll_usb.c **** uint32_t USB_ReadDevAllInEpInterrupt(USB_OTG_GlobalTypeDef *USBx)
1164:Drivers/STM32H7xx_HAL_Driver/Src/stm32h7xx_ll_usb.c **** {
1165:Drivers/STM32H7xx_HAL_Driver/Src/stm32h7xx_ll_usb.c ****   uint32_t USBx_BASE = (uint32_t)USBx;
1166:Drivers/STM32H7xx_HAL_Driver/Src/stm32h7xx_ll_usb.c ****   uint32_t tmpreg;
1167:Drivers/STM32H7xx_HAL_Driver/Src/stm32h7xx_ll_usb.c **** 
1168:Drivers/STM32H7xx_HAL_Driver/Src/stm32h7xx_ll_usb.c ****   tmpreg  = USBx_DEVICE->DAINT;
1169:Drivers/STM32H7xx_HAL_Driver/Src/stm32h7xx_ll_usb.c ****   tmpreg &= USBx_DEVICE->DAINTMSK;
1170:Drivers/STM32H7xx_HAL_Driver/Src/stm32h7xx_ll_usb.c **** 
1171:Drivers/STM32H7xx_HAL_Driver/Src/stm32h7xx_ll_usb.c ****   return ((tmpreg & 0xFFFFU));
1172:Drivers/STM32H7xx_HAL_Driver/Src/stm32h7xx_ll_usb.c **** }
1173:Drivers/STM32H7xx_HAL_Driver/Src/stm32h7xx_ll_usb.c **** 
ARM GAS  /tmp/ccCJnE45.s 			page 22


1174:Drivers/STM32H7xx_HAL_Driver/Src/stm32h7xx_ll_usb.c **** /**
1175:Drivers/STM32H7xx_HAL_Driver/Src/stm32h7xx_ll_usb.c ****   * @brief  Returns Device OUT EP Interrupt register
1176:Drivers/STM32H7xx_HAL_Driver/Src/stm32h7xx_ll_usb.c ****   * @param  USBx  Selected device
1177:Drivers/STM32H7xx_HAL_Driver/Src/stm32h7xx_ll_usb.c ****   * @param  epnum  endpoint number
1178:Drivers/STM32H7xx_HAL_Driver/Src/stm32h7xx_ll_usb.c ****   *          This parameter can be a value from 0 to 15
1179:Drivers/STM32H7xx_HAL_Driver/Src/stm32h7xx_ll_usb.c ****   * @retval Device OUT EP Interrupt register
1180:Drivers/STM32H7xx_HAL_Driver/Src/stm32h7xx_ll_usb.c ****   */
1181:Drivers/STM32H7xx_HAL_Driver/Src/stm32h7xx_ll_usb.c **** uint32_t USB_ReadDevOutEPInterrupt(USB_OTG_GlobalTypeDef *USBx, uint8_t epnum)
1182:Drivers/STM32H7xx_HAL_Driver/Src/stm32h7xx_ll_usb.c **** {
1183:Drivers/STM32H7xx_HAL_Driver/Src/stm32h7xx_ll_usb.c ****   uint32_t USBx_BASE = (uint32_t)USBx;
1184:Drivers/STM32H7xx_HAL_Driver/Src/stm32h7xx_ll_usb.c ****   uint32_t tmpreg;
1185:Drivers/STM32H7xx_HAL_Driver/Src/stm32h7xx_ll_usb.c **** 
1186:Drivers/STM32H7xx_HAL_Driver/Src/stm32h7xx_ll_usb.c ****   tmpreg  = USBx_OUTEP((uint32_t)epnum)->DOEPINT;
1187:Drivers/STM32H7xx_HAL_Driver/Src/stm32h7xx_ll_usb.c ****   tmpreg &= USBx_DEVICE->DOEPMSK;
1188:Drivers/STM32H7xx_HAL_Driver/Src/stm32h7xx_ll_usb.c **** 
1189:Drivers/STM32H7xx_HAL_Driver/Src/stm32h7xx_ll_usb.c ****   return tmpreg;
1190:Drivers/STM32H7xx_HAL_Driver/Src/stm32h7xx_ll_usb.c **** }
1191:Drivers/STM32H7xx_HAL_Driver/Src/stm32h7xx_ll_usb.c **** 
1192:Drivers/STM32H7xx_HAL_Driver/Src/stm32h7xx_ll_usb.c **** /**
1193:Drivers/STM32H7xx_HAL_Driver/Src/stm32h7xx_ll_usb.c ****   * @brief  Returns Device IN EP Interrupt register
1194:Drivers/STM32H7xx_HAL_Driver/Src/stm32h7xx_ll_usb.c ****   * @param  USBx  Selected device
1195:Drivers/STM32H7xx_HAL_Driver/Src/stm32h7xx_ll_usb.c ****   * @param  epnum  endpoint number
1196:Drivers/STM32H7xx_HAL_Driver/Src/stm32h7xx_ll_usb.c ****   *          This parameter can be a value from 0 to 15
1197:Drivers/STM32H7xx_HAL_Driver/Src/stm32h7xx_ll_usb.c ****   * @retval Device IN EP Interrupt register
1198:Drivers/STM32H7xx_HAL_Driver/Src/stm32h7xx_ll_usb.c ****   */
1199:Drivers/STM32H7xx_HAL_Driver/Src/stm32h7xx_ll_usb.c **** uint32_t USB_ReadDevInEPInterrupt(USB_OTG_GlobalTypeDef *USBx, uint8_t epnum)
1200:Drivers/STM32H7xx_HAL_Driver/Src/stm32h7xx_ll_usb.c **** {
1201:Drivers/STM32H7xx_HAL_Driver/Src/stm32h7xx_ll_usb.c ****   uint32_t USBx_BASE = (uint32_t)USBx;
1202:Drivers/STM32H7xx_HAL_Driver/Src/stm32h7xx_ll_usb.c ****   uint32_t tmpreg, msk, emp;
1203:Drivers/STM32H7xx_HAL_Driver/Src/stm32h7xx_ll_usb.c **** 
1204:Drivers/STM32H7xx_HAL_Driver/Src/stm32h7xx_ll_usb.c ****   msk = USBx_DEVICE->DIEPMSK;
1205:Drivers/STM32H7xx_HAL_Driver/Src/stm32h7xx_ll_usb.c ****   emp = USBx_DEVICE->DIEPEMPMSK;
1206:Drivers/STM32H7xx_HAL_Driver/Src/stm32h7xx_ll_usb.c ****   msk |= ((emp >> (epnum & EP_ADDR_MSK)) & 0x1U) << 7;
1207:Drivers/STM32H7xx_HAL_Driver/Src/stm32h7xx_ll_usb.c ****   tmpreg = USBx_INEP((uint32_t)epnum)->DIEPINT & msk;
1208:Drivers/STM32H7xx_HAL_Driver/Src/stm32h7xx_ll_usb.c **** 
1209:Drivers/STM32H7xx_HAL_Driver/Src/stm32h7xx_ll_usb.c ****   return tmpreg;
1210:Drivers/STM32H7xx_HAL_Driver/Src/stm32h7xx_ll_usb.c **** }
1211:Drivers/STM32H7xx_HAL_Driver/Src/stm32h7xx_ll_usb.c **** 
1212:Drivers/STM32H7xx_HAL_Driver/Src/stm32h7xx_ll_usb.c **** /**
1213:Drivers/STM32H7xx_HAL_Driver/Src/stm32h7xx_ll_usb.c ****   * @brief  USB_ClearInterrupts: clear a USB interrupt
1214:Drivers/STM32H7xx_HAL_Driver/Src/stm32h7xx_ll_usb.c ****   * @param  USBx  Selected device
1215:Drivers/STM32H7xx_HAL_Driver/Src/stm32h7xx_ll_usb.c ****   * @param  interrupt  interrupt flag
1216:Drivers/STM32H7xx_HAL_Driver/Src/stm32h7xx_ll_usb.c ****   * @retval None
1217:Drivers/STM32H7xx_HAL_Driver/Src/stm32h7xx_ll_usb.c ****   */
1218:Drivers/STM32H7xx_HAL_Driver/Src/stm32h7xx_ll_usb.c **** void  USB_ClearInterrupts(USB_OTG_GlobalTypeDef *USBx, uint32_t interrupt)
1219:Drivers/STM32H7xx_HAL_Driver/Src/stm32h7xx_ll_usb.c **** {
1220:Drivers/STM32H7xx_HAL_Driver/Src/stm32h7xx_ll_usb.c ****   USBx->GINTSTS |= interrupt;
1221:Drivers/STM32H7xx_HAL_Driver/Src/stm32h7xx_ll_usb.c **** }
1222:Drivers/STM32H7xx_HAL_Driver/Src/stm32h7xx_ll_usb.c **** 
1223:Drivers/STM32H7xx_HAL_Driver/Src/stm32h7xx_ll_usb.c **** /**
1224:Drivers/STM32H7xx_HAL_Driver/Src/stm32h7xx_ll_usb.c ****   * @brief  Returns USB core mode
1225:Drivers/STM32H7xx_HAL_Driver/Src/stm32h7xx_ll_usb.c ****   * @param  USBx  Selected device
1226:Drivers/STM32H7xx_HAL_Driver/Src/stm32h7xx_ll_usb.c ****   * @retval return core mode : Host or Device
1227:Drivers/STM32H7xx_HAL_Driver/Src/stm32h7xx_ll_usb.c ****   *          This parameter can be one of these values:
1228:Drivers/STM32H7xx_HAL_Driver/Src/stm32h7xx_ll_usb.c ****   *           0 : Host
1229:Drivers/STM32H7xx_HAL_Driver/Src/stm32h7xx_ll_usb.c ****   *           1 : Device
1230:Drivers/STM32H7xx_HAL_Driver/Src/stm32h7xx_ll_usb.c ****   */
ARM GAS  /tmp/ccCJnE45.s 			page 23


1231:Drivers/STM32H7xx_HAL_Driver/Src/stm32h7xx_ll_usb.c **** uint32_t USB_GetMode(USB_OTG_GlobalTypeDef *USBx)
1232:Drivers/STM32H7xx_HAL_Driver/Src/stm32h7xx_ll_usb.c **** {
1233:Drivers/STM32H7xx_HAL_Driver/Src/stm32h7xx_ll_usb.c ****   return ((USBx->GINTSTS) & 0x1U);
1234:Drivers/STM32H7xx_HAL_Driver/Src/stm32h7xx_ll_usb.c **** }
1235:Drivers/STM32H7xx_HAL_Driver/Src/stm32h7xx_ll_usb.c **** 
1236:Drivers/STM32H7xx_HAL_Driver/Src/stm32h7xx_ll_usb.c **** /**
1237:Drivers/STM32H7xx_HAL_Driver/Src/stm32h7xx_ll_usb.c ****   * @brief  Activate EP0 for Setup transactions
1238:Drivers/STM32H7xx_HAL_Driver/Src/stm32h7xx_ll_usb.c ****   * @param  USBx  Selected device
1239:Drivers/STM32H7xx_HAL_Driver/Src/stm32h7xx_ll_usb.c ****   * @retval HAL status
1240:Drivers/STM32H7xx_HAL_Driver/Src/stm32h7xx_ll_usb.c ****   */
1241:Drivers/STM32H7xx_HAL_Driver/Src/stm32h7xx_ll_usb.c **** HAL_StatusTypeDef  USB_ActivateSetup(USB_OTG_GlobalTypeDef *USBx)
1242:Drivers/STM32H7xx_HAL_Driver/Src/stm32h7xx_ll_usb.c **** {
1243:Drivers/STM32H7xx_HAL_Driver/Src/stm32h7xx_ll_usb.c ****   uint32_t USBx_BASE = (uint32_t)USBx;
1244:Drivers/STM32H7xx_HAL_Driver/Src/stm32h7xx_ll_usb.c **** 
1245:Drivers/STM32H7xx_HAL_Driver/Src/stm32h7xx_ll_usb.c ****   /* Set the MPS of the IN EP0 to 64 bytes */
1246:Drivers/STM32H7xx_HAL_Driver/Src/stm32h7xx_ll_usb.c ****   USBx_INEP(0U)->DIEPCTL &= ~USB_OTG_DIEPCTL_MPSIZ;
1247:Drivers/STM32H7xx_HAL_Driver/Src/stm32h7xx_ll_usb.c **** 
1248:Drivers/STM32H7xx_HAL_Driver/Src/stm32h7xx_ll_usb.c ****   USBx_DEVICE->DCTL |= USB_OTG_DCTL_CGINAK;
1249:Drivers/STM32H7xx_HAL_Driver/Src/stm32h7xx_ll_usb.c **** 
1250:Drivers/STM32H7xx_HAL_Driver/Src/stm32h7xx_ll_usb.c ****   return HAL_OK;
1251:Drivers/STM32H7xx_HAL_Driver/Src/stm32h7xx_ll_usb.c **** }
1252:Drivers/STM32H7xx_HAL_Driver/Src/stm32h7xx_ll_usb.c **** 
1253:Drivers/STM32H7xx_HAL_Driver/Src/stm32h7xx_ll_usb.c **** /**
1254:Drivers/STM32H7xx_HAL_Driver/Src/stm32h7xx_ll_usb.c ****   * @brief  Prepare the EP0 to start the first control setup
1255:Drivers/STM32H7xx_HAL_Driver/Src/stm32h7xx_ll_usb.c ****   * @param  USBx  Selected device
1256:Drivers/STM32H7xx_HAL_Driver/Src/stm32h7xx_ll_usb.c ****   * @param  dma USB dma enabled or disabled
1257:Drivers/STM32H7xx_HAL_Driver/Src/stm32h7xx_ll_usb.c ****   *          This parameter can be one of these values:
1258:Drivers/STM32H7xx_HAL_Driver/Src/stm32h7xx_ll_usb.c ****   *           0 : DMA feature not used
1259:Drivers/STM32H7xx_HAL_Driver/Src/stm32h7xx_ll_usb.c ****   *           1 : DMA feature used
1260:Drivers/STM32H7xx_HAL_Driver/Src/stm32h7xx_ll_usb.c ****   * @param  psetup  pointer to setup packet
1261:Drivers/STM32H7xx_HAL_Driver/Src/stm32h7xx_ll_usb.c ****   * @retval HAL status
1262:Drivers/STM32H7xx_HAL_Driver/Src/stm32h7xx_ll_usb.c ****   */
1263:Drivers/STM32H7xx_HAL_Driver/Src/stm32h7xx_ll_usb.c **** HAL_StatusTypeDef USB_EP0_OutStart(USB_OTG_GlobalTypeDef *USBx, uint8_t dma, uint8_t *psetup)
1264:Drivers/STM32H7xx_HAL_Driver/Src/stm32h7xx_ll_usb.c **** {
1265:Drivers/STM32H7xx_HAL_Driver/Src/stm32h7xx_ll_usb.c ****   uint32_t USBx_BASE = (uint32_t)USBx;
1266:Drivers/STM32H7xx_HAL_Driver/Src/stm32h7xx_ll_usb.c ****   uint32_t gSNPSiD = *(__IO uint32_t *)(&USBx->CID + 0x1U);
1267:Drivers/STM32H7xx_HAL_Driver/Src/stm32h7xx_ll_usb.c **** 
1268:Drivers/STM32H7xx_HAL_Driver/Src/stm32h7xx_ll_usb.c ****   if (gSNPSiD > USB_OTG_CORE_ID_300A)
1269:Drivers/STM32H7xx_HAL_Driver/Src/stm32h7xx_ll_usb.c ****   {
1270:Drivers/STM32H7xx_HAL_Driver/Src/stm32h7xx_ll_usb.c ****     if ((USBx_OUTEP(0U)->DOEPCTL & USB_OTG_DOEPCTL_EPENA) == USB_OTG_DOEPCTL_EPENA)
1271:Drivers/STM32H7xx_HAL_Driver/Src/stm32h7xx_ll_usb.c ****     {
1272:Drivers/STM32H7xx_HAL_Driver/Src/stm32h7xx_ll_usb.c ****       return HAL_OK;
1273:Drivers/STM32H7xx_HAL_Driver/Src/stm32h7xx_ll_usb.c ****     }
1274:Drivers/STM32H7xx_HAL_Driver/Src/stm32h7xx_ll_usb.c ****   }
1275:Drivers/STM32H7xx_HAL_Driver/Src/stm32h7xx_ll_usb.c **** 
1276:Drivers/STM32H7xx_HAL_Driver/Src/stm32h7xx_ll_usb.c ****   USBx_OUTEP(0U)->DOEPTSIZ = 0U;
1277:Drivers/STM32H7xx_HAL_Driver/Src/stm32h7xx_ll_usb.c ****   USBx_OUTEP(0U)->DOEPTSIZ |= (USB_OTG_DOEPTSIZ_PKTCNT & (1U << 19));
1278:Drivers/STM32H7xx_HAL_Driver/Src/stm32h7xx_ll_usb.c ****   USBx_OUTEP(0U)->DOEPTSIZ |= (3U * 8U);
1279:Drivers/STM32H7xx_HAL_Driver/Src/stm32h7xx_ll_usb.c ****   USBx_OUTEP(0U)->DOEPTSIZ |=  USB_OTG_DOEPTSIZ_STUPCNT;
1280:Drivers/STM32H7xx_HAL_Driver/Src/stm32h7xx_ll_usb.c **** 
1281:Drivers/STM32H7xx_HAL_Driver/Src/stm32h7xx_ll_usb.c ****   if (dma == 1U)
1282:Drivers/STM32H7xx_HAL_Driver/Src/stm32h7xx_ll_usb.c ****   {
1283:Drivers/STM32H7xx_HAL_Driver/Src/stm32h7xx_ll_usb.c ****     USBx_OUTEP(0U)->DOEPDMA = (uint32_t)psetup;
1284:Drivers/STM32H7xx_HAL_Driver/Src/stm32h7xx_ll_usb.c ****     /* EP enable */
1285:Drivers/STM32H7xx_HAL_Driver/Src/stm32h7xx_ll_usb.c ****     USBx_OUTEP(0U)->DOEPCTL |= USB_OTG_DOEPCTL_EPENA | USB_OTG_DOEPCTL_USBAEP;
1286:Drivers/STM32H7xx_HAL_Driver/Src/stm32h7xx_ll_usb.c ****   }
1287:Drivers/STM32H7xx_HAL_Driver/Src/stm32h7xx_ll_usb.c **** 
ARM GAS  /tmp/ccCJnE45.s 			page 24


1288:Drivers/STM32H7xx_HAL_Driver/Src/stm32h7xx_ll_usb.c ****   return HAL_OK;
1289:Drivers/STM32H7xx_HAL_Driver/Src/stm32h7xx_ll_usb.c **** }
1290:Drivers/STM32H7xx_HAL_Driver/Src/stm32h7xx_ll_usb.c **** 
1291:Drivers/STM32H7xx_HAL_Driver/Src/stm32h7xx_ll_usb.c **** /**
1292:Drivers/STM32H7xx_HAL_Driver/Src/stm32h7xx_ll_usb.c ****   * @brief  Reset the USB Core (needed after USB clock settings change)
1293:Drivers/STM32H7xx_HAL_Driver/Src/stm32h7xx_ll_usb.c ****   * @param  USBx  Selected device
1294:Drivers/STM32H7xx_HAL_Driver/Src/stm32h7xx_ll_usb.c ****   * @retval HAL status
1295:Drivers/STM32H7xx_HAL_Driver/Src/stm32h7xx_ll_usb.c ****   */
1296:Drivers/STM32H7xx_HAL_Driver/Src/stm32h7xx_ll_usb.c **** static HAL_StatusTypeDef USB_CoreReset(USB_OTG_GlobalTypeDef *USBx)
1297:Drivers/STM32H7xx_HAL_Driver/Src/stm32h7xx_ll_usb.c **** {
  26              		.loc 1 1297 0
  27              		.cfi_startproc
  28              		@ args = 0, pretend = 0, frame = 0
  29              		@ frame_needed = 0, uses_anonymous_args = 0
  30              		@ link register save eliminated.
  31              	.LVL0:
1298:Drivers/STM32H7xx_HAL_Driver/Src/stm32h7xx_ll_usb.c ****   uint32_t count = 0U;
  32              		.loc 1 1298 0
  33 0000 0023     		movs	r3, #0
  34              	.LVL1:
  35              	.L3:
1299:Drivers/STM32H7xx_HAL_Driver/Src/stm32h7xx_ll_usb.c **** 
1300:Drivers/STM32H7xx_HAL_Driver/Src/stm32h7xx_ll_usb.c ****   /* Wait for AHB master IDLE state. */
1301:Drivers/STM32H7xx_HAL_Driver/Src/stm32h7xx_ll_usb.c ****   do
1302:Drivers/STM32H7xx_HAL_Driver/Src/stm32h7xx_ll_usb.c ****   {
1303:Drivers/STM32H7xx_HAL_Driver/Src/stm32h7xx_ll_usb.c ****     if (++count > 200000U)
  36              		.loc 1 1303 0
  37 0002 0133     		adds	r3, r3, #1
  38              	.LVL2:
  39 0004 0C4A     		ldr	r2, .L7
  40 0006 9342     		cmp	r3, r2
  41 0008 11D8     		bhi	.L5
1304:Drivers/STM32H7xx_HAL_Driver/Src/stm32h7xx_ll_usb.c ****     {
1305:Drivers/STM32H7xx_HAL_Driver/Src/stm32h7xx_ll_usb.c ****       return HAL_TIMEOUT;
1306:Drivers/STM32H7xx_HAL_Driver/Src/stm32h7xx_ll_usb.c ****     }
1307:Drivers/STM32H7xx_HAL_Driver/Src/stm32h7xx_ll_usb.c ****   }
1308:Drivers/STM32H7xx_HAL_Driver/Src/stm32h7xx_ll_usb.c ****   while ((USBx->GRSTCTL & USB_OTG_GRSTCTL_AHBIDL) == 0U);
  42              		.loc 1 1308 0
  43 000a 0269     		ldr	r2, [r0, #16]
  44 000c 002A     		cmp	r2, #0
  45 000e F8DA     		bge	.L3
  46              	.LVL3:
1309:Drivers/STM32H7xx_HAL_Driver/Src/stm32h7xx_ll_usb.c **** 
1310:Drivers/STM32H7xx_HAL_Driver/Src/stm32h7xx_ll_usb.c ****   /* Core Soft Reset */
1311:Drivers/STM32H7xx_HAL_Driver/Src/stm32h7xx_ll_usb.c ****   count = 0U;
1312:Drivers/STM32H7xx_HAL_Driver/Src/stm32h7xx_ll_usb.c ****   USBx->GRSTCTL |= USB_OTG_GRSTCTL_CSRST;
  47              		.loc 1 1312 0
  48 0010 0369     		ldr	r3, [r0, #16]
  49 0012 43F00103 		orr	r3, r3, #1
  50 0016 0361     		str	r3, [r0, #16]
1311:Drivers/STM32H7xx_HAL_Driver/Src/stm32h7xx_ll_usb.c ****   USBx->GRSTCTL |= USB_OTG_GRSTCTL_CSRST;
  51              		.loc 1 1311 0
  52 0018 0023     		movs	r3, #0
  53              	.LVL4:
  54              	.L4:
1313:Drivers/STM32H7xx_HAL_Driver/Src/stm32h7xx_ll_usb.c **** 
1314:Drivers/STM32H7xx_HAL_Driver/Src/stm32h7xx_ll_usb.c ****   do
ARM GAS  /tmp/ccCJnE45.s 			page 25


1315:Drivers/STM32H7xx_HAL_Driver/Src/stm32h7xx_ll_usb.c ****   {
1316:Drivers/STM32H7xx_HAL_Driver/Src/stm32h7xx_ll_usb.c ****     if (++count > 200000U)
  55              		.loc 1 1316 0
  56 001a 0133     		adds	r3, r3, #1
  57              	.LVL5:
  58 001c 064A     		ldr	r2, .L7
  59 001e 9342     		cmp	r3, r2
  60 0020 07D8     		bhi	.L6
1317:Drivers/STM32H7xx_HAL_Driver/Src/stm32h7xx_ll_usb.c ****     {
1318:Drivers/STM32H7xx_HAL_Driver/Src/stm32h7xx_ll_usb.c ****       return HAL_TIMEOUT;
1319:Drivers/STM32H7xx_HAL_Driver/Src/stm32h7xx_ll_usb.c ****     }
1320:Drivers/STM32H7xx_HAL_Driver/Src/stm32h7xx_ll_usb.c ****   }
1321:Drivers/STM32H7xx_HAL_Driver/Src/stm32h7xx_ll_usb.c ****   while ((USBx->GRSTCTL & USB_OTG_GRSTCTL_CSRST) == USB_OTG_GRSTCTL_CSRST);
  61              		.loc 1 1321 0
  62 0022 0269     		ldr	r2, [r0, #16]
  63 0024 12F0010F 		tst	r2, #1
  64 0028 F7D1     		bne	.L4
1322:Drivers/STM32H7xx_HAL_Driver/Src/stm32h7xx_ll_usb.c **** 
1323:Drivers/STM32H7xx_HAL_Driver/Src/stm32h7xx_ll_usb.c ****   return HAL_OK;
  65              		.loc 1 1323 0
  66 002a 0020     		movs	r0, #0
  67              	.LVL6:
  68 002c 7047     		bx	lr
  69              	.LVL7:
  70              	.L5:
1305:Drivers/STM32H7xx_HAL_Driver/Src/stm32h7xx_ll_usb.c ****     }
  71              		.loc 1 1305 0
  72 002e 0320     		movs	r0, #3
  73              	.LVL8:
  74 0030 7047     		bx	lr
  75              	.LVL9:
  76              	.L6:
1318:Drivers/STM32H7xx_HAL_Driver/Src/stm32h7xx_ll_usb.c ****     }
  77              		.loc 1 1318 0
  78 0032 0320     		movs	r0, #3
  79              	.LVL10:
1324:Drivers/STM32H7xx_HAL_Driver/Src/stm32h7xx_ll_usb.c **** }
  80              		.loc 1 1324 0
  81 0034 7047     		bx	lr
  82              	.L8:
  83 0036 00BF     		.align	2
  84              	.L7:
  85 0038 400D0300 		.word	200000
  86              		.cfi_endproc
  87              	.LFE376:
  89              		.section	.text.USB_CoreInit,"ax",%progbits
  90              		.align	1
  91              		.global	USB_CoreInit
  92              		.syntax unified
  93              		.thumb
  94              		.thumb_func
  95              		.fpu fpv5-d16
  97              	USB_CoreInit:
  98              	.LFB343:
  83:Drivers/STM32H7xx_HAL_Driver/Src/stm32h7xx_ll_usb.c ****   HAL_StatusTypeDef ret;
  99              		.loc 1 83 0
 100              		.cfi_startproc
ARM GAS  /tmp/ccCJnE45.s 			page 26


 101              		@ args = 56, pretend = 16, frame = 0
 102              		@ frame_needed = 0, uses_anonymous_args = 0
 103              	.LVL11:
 104 0000 84B0     		sub	sp, sp, #16
 105              	.LCFI0:
 106              		.cfi_def_cfa_offset 16
 107 0002 10B5     		push	{r4, lr}
 108              	.LCFI1:
 109              		.cfi_def_cfa_offset 24
 110              		.cfi_offset 4, -24
 111              		.cfi_offset 14, -20
 112 0004 0446     		mov	r4, r0
 113 0006 03A8     		add	r0, sp, #12
 114              	.LVL12:
 115 0008 80E80E00 		stm	r0, {r1, r2, r3}
  86:Drivers/STM32H7xx_HAL_Driver/Src/stm32h7xx_ll_usb.c ****   {
 116              		.loc 1 86 0
 117 000c 089B     		ldr	r3, [sp, #32]
 118 000e 012B     		cmp	r3, #1
 119 0010 1DD1     		bne	.L10
  88:Drivers/STM32H7xx_HAL_Driver/Src/stm32h7xx_ll_usb.c **** 
 120              		.loc 1 88 0
 121 0012 A36B     		ldr	r3, [r4, #56]
 122 0014 23F48033 		bic	r3, r3, #65536
 123 0018 A363     		str	r3, [r4, #56]
  91:Drivers/STM32H7xx_HAL_Driver/Src/stm32h7xx_ll_usb.c **** 
 124              		.loc 1 91 0
 125 001a E268     		ldr	r2, [r4, #12]
 126 001c 1A4B     		ldr	r3, .L18
 127 001e 1340     		ands	r3, r3, r2
 128 0020 E360     		str	r3, [r4, #12]
  94:Drivers/STM32H7xx_HAL_Driver/Src/stm32h7xx_ll_usb.c ****     if (cfg.use_external_vbus == 1U)
 129              		.loc 1 94 0
 130 0022 E368     		ldr	r3, [r4, #12]
 131 0024 23F44013 		bic	r3, r3, #3145728
 132 0028 E360     		str	r3, [r4, #12]
  95:Drivers/STM32H7xx_HAL_Driver/Src/stm32h7xx_ll_usb.c ****     {
 133              		.loc 1 95 0
 134 002a 0F9B     		ldr	r3, [sp, #60]
 135 002c 012B     		cmp	r3, #1
 136 002e 09D0     		beq	.L16
 137              	.L11:
 100:Drivers/STM32H7xx_HAL_Driver/Src/stm32h7xx_ll_usb.c ****   }
 138              		.loc 1 100 0
 139 0030 2046     		mov	r0, r4
 140 0032 FFF7FEFF 		bl	USB_CoreReset
 141              	.LVL13:
 142              	.L12:
 122:Drivers/STM32H7xx_HAL_Driver/Src/stm32h7xx_ll_usb.c ****   {
 143              		.loc 1 122 0
 144 0036 069B     		ldr	r3, [sp, #24]
 145 0038 012B     		cmp	r3, #1
 146 003a 1BD0     		beq	.L17
 147              	.L14:
 129:Drivers/STM32H7xx_HAL_Driver/Src/stm32h7xx_ll_usb.c **** 
 148              		.loc 1 129 0
 149 003c BDE81040 		pop	{r4, lr}
ARM GAS  /tmp/ccCJnE45.s 			page 27


 150              	.LCFI2:
 151              		.cfi_remember_state
 152              		.cfi_restore 14
 153              		.cfi_restore 4
 154              		.cfi_def_cfa_offset 16
 155              	.LVL14:
 156 0040 04B0     		add	sp, sp, #16
 157              	.LCFI3:
 158              		.cfi_def_cfa_offset 0
 159 0042 7047     		bx	lr
 160              	.LVL15:
 161              	.L16:
 162              	.LCFI4:
 163              		.cfi_restore_state
  97:Drivers/STM32H7xx_HAL_Driver/Src/stm32h7xx_ll_usb.c ****     }
 164              		.loc 1 97 0
 165 0044 E368     		ldr	r3, [r4, #12]
 166 0046 43F48013 		orr	r3, r3, #1048576
 167 004a E360     		str	r3, [r4, #12]
 168 004c F0E7     		b	.L11
 169              	.L10:
 105:Drivers/STM32H7xx_HAL_Driver/Src/stm32h7xx_ll_usb.c **** 
 170              		.loc 1 105 0
 171 004e E368     		ldr	r3, [r4, #12]
 172 0050 43F04003 		orr	r3, r3, #64
 173 0054 E360     		str	r3, [r4, #12]
 108:Drivers/STM32H7xx_HAL_Driver/Src/stm32h7xx_ll_usb.c **** 
 174              		.loc 1 108 0
 175 0056 2046     		mov	r0, r4
 176 0058 FFF7FEFF 		bl	USB_CoreReset
 177              	.LVL16:
 110:Drivers/STM32H7xx_HAL_Driver/Src/stm32h7xx_ll_usb.c ****     {
 178              		.loc 1 110 0
 179 005c 0C9B     		ldr	r3, [sp, #48]
 180 005e 23B9     		cbnz	r3, .L13
 113:Drivers/STM32H7xx_HAL_Driver/Src/stm32h7xx_ll_usb.c ****     }
 181              		.loc 1 113 0
 182 0060 A36B     		ldr	r3, [r4, #56]
 183 0062 43F48033 		orr	r3, r3, #65536
 184 0066 A363     		str	r3, [r4, #56]
 185 0068 E5E7     		b	.L12
 186              	.L13:
 118:Drivers/STM32H7xx_HAL_Driver/Src/stm32h7xx_ll_usb.c ****     }
 187              		.loc 1 118 0
 188 006a A36B     		ldr	r3, [r4, #56]
 189 006c 23F48033 		bic	r3, r3, #65536
 190 0070 A363     		str	r3, [r4, #56]
 191 0072 E0E7     		b	.L12
 192              	.L17:
 124:Drivers/STM32H7xx_HAL_Driver/Src/stm32h7xx_ll_usb.c ****     USBx->GAHBCFG |= USB_OTG_GAHBCFG_DMAEN;
 193              		.loc 1 124 0
 194 0074 A368     		ldr	r3, [r4, #8]
 195 0076 43F00603 		orr	r3, r3, #6
 196 007a A360     		str	r3, [r4, #8]
 125:Drivers/STM32H7xx_HAL_Driver/Src/stm32h7xx_ll_usb.c ****   }
 197              		.loc 1 125 0
 198 007c A368     		ldr	r3, [r4, #8]
ARM GAS  /tmp/ccCJnE45.s 			page 28


 199 007e 43F02003 		orr	r3, r3, #32
 200 0082 A360     		str	r3, [r4, #8]
 201 0084 DAE7     		b	.L14
 202              	.L19:
 203 0086 00BF     		.align	2
 204              	.L18:
 205 0088 BFFFBDFF 		.word	-4325441
 206              		.cfi_endproc
 207              	.LFE343:
 209              		.section	.text.USB_SetTurnaroundTime,"ax",%progbits
 210              		.align	1
 211              		.global	USB_SetTurnaroundTime
 212              		.syntax unified
 213              		.thumb
 214              		.thumb_func
 215              		.fpu fpv5-d16
 217              	USB_SetTurnaroundTime:
 218              	.LFB344:
 140:Drivers/STM32H7xx_HAL_Driver/Src/stm32h7xx_ll_usb.c ****   uint32_t UsbTrd;
 219              		.loc 1 140 0
 220              		.cfi_startproc
 221              		@ args = 0, pretend = 0, frame = 0
 222              		@ frame_needed = 0, uses_anonymous_args = 0
 223              		@ link register save eliminated.
 224              	.LVL17:
 147:Drivers/STM32H7xx_HAL_Driver/Src/stm32h7xx_ll_usb.c ****   {
 225              		.loc 1 147 0
 226 0000 022A     		cmp	r2, #2
 227 0002 0AD0     		beq	.L32
 202:Drivers/STM32H7xx_HAL_Driver/Src/stm32h7xx_ll_usb.c ****   }
 228              		.loc 1 202 0
 229 0004 0921     		movs	r1, #9
 230              	.LVL18:
 231              	.L21:
 209:Drivers/STM32H7xx_HAL_Driver/Src/stm32h7xx_ll_usb.c ****   USBx->GUSBCFG |= (uint32_t)((UsbTrd << 10) & USB_OTG_GUSBCFG_TRDT);
 232              		.loc 1 209 0
 233 0006 C268     		ldr	r2, [r0, #12]
 234 0008 22F47052 		bic	r2, r2, #15360
 235 000c C260     		str	r2, [r0, #12]
 210:Drivers/STM32H7xx_HAL_Driver/Src/stm32h7xx_ll_usb.c **** 
 236              		.loc 1 210 0
 237 000e C368     		ldr	r3, [r0, #12]
 238 0010 43EA8123 		orr	r3, r3, r1, lsl #10
 239 0014 C360     		str	r3, [r0, #12]
 213:Drivers/STM32H7xx_HAL_Driver/Src/stm32h7xx_ll_usb.c **** 
 240              		.loc 1 213 0
 241 0016 0020     		movs	r0, #0
 242              	.LVL19:
 243 0018 7047     		bx	lr
 244              	.LVL20:
 245              	.L32:
 149:Drivers/STM32H7xx_HAL_Driver/Src/stm32h7xx_ll_usb.c ****     {
 246              		.loc 1 149 0
 247 001a 274B     		ldr	r3, .L34
 248 001c 0B44     		add	r3, r3, r1
 249 001e 274A     		ldr	r2, .L34+4
 250              	.LVL21:
ARM GAS  /tmp/ccCJnE45.s 			page 29


 251 0020 9342     		cmp	r3, r2
 252 0022 39D9     		bls	.L23
 154:Drivers/STM32H7xx_HAL_Driver/Src/stm32h7xx_ll_usb.c ****     {
 253              		.loc 1 154 0
 254 0024 264B     		ldr	r3, .L34+8
 255 0026 0B44     		add	r3, r3, r1
 256 0028 264A     		ldr	r2, .L34+12
 257 002a 9342     		cmp	r3, r2
 258 002c 36D9     		bls	.L24
 159:Drivers/STM32H7xx_HAL_Driver/Src/stm32h7xx_ll_usb.c ****     {
 259              		.loc 1 159 0
 260 002e 264B     		ldr	r3, .L34+16
 261 0030 0B44     		add	r3, r3, r1
 262 0032 264A     		ldr	r2, .L34+20
 263 0034 9342     		cmp	r3, r2
 264 0036 33D9     		bls	.L25
 164:Drivers/STM32H7xx_HAL_Driver/Src/stm32h7xx_ll_usb.c ****     {
 265              		.loc 1 164 0
 266 0038 254B     		ldr	r3, .L34+24
 267 003a 0B44     		add	r3, r3, r1
 268 003c 02F5C332 		add	r2, r2, #99840
 269 0040 A032     		adds	r2, r2, #160
 270 0042 9342     		cmp	r3, r2
 271 0044 2ED9     		bls	.L26
 169:Drivers/STM32H7xx_HAL_Driver/Src/stm32h7xx_ll_usb.c ****     {
 272              		.loc 1 169 0
 273 0046 234B     		ldr	r3, .L34+28
 274 0048 0B44     		add	r3, r3, r1
 275 004a 234A     		ldr	r2, .L34+32
 276 004c 9342     		cmp	r3, r2
 277 004e 2BD9     		bls	.L27
 174:Drivers/STM32H7xx_HAL_Driver/Src/stm32h7xx_ll_usb.c ****     {
 278              		.loc 1 174 0
 279 0050 224B     		ldr	r3, .L34+36
 280 0052 0B44     		add	r3, r3, r1
 281 0054 02F59222 		add	r2, r2, #299008
 282 0058 02F57872 		add	r2, r2, #992
 283 005c 9342     		cmp	r3, r2
 284 005e 25D9     		bls	.L28
 179:Drivers/STM32H7xx_HAL_Driver/Src/stm32h7xx_ll_usb.c ****     {
 285              		.loc 1 179 0
 286 0060 1F4B     		ldr	r3, .L34+40
 287 0062 0B44     		add	r3, r3, r1
 288 0064 02F5C322 		add	r2, r2, #399360
 289 0068 02F52072 		add	r2, r2, #640
 290 006c 9342     		cmp	r3, r2
 291 006e 1FD9     		bls	.L29
 184:Drivers/STM32H7xx_HAL_Driver/Src/stm32h7xx_ll_usb.c ****     {
 292              		.loc 1 184 0
 293 0070 1C4B     		ldr	r3, .L34+44
 294 0072 0B44     		add	r3, r3, r1
 295 0074 02F5B712 		add	r2, r2, #1499136
 296 0078 02F55872 		add	r2, r2, #864
 297 007c 9342     		cmp	r3, r2
 298 007e 19D9     		bls	.L30
 189:Drivers/STM32H7xx_HAL_Driver/Src/stm32h7xx_ll_usb.c ****     {
 299              		.loc 1 189 0
ARM GAS  /tmp/ccCJnE45.s 			page 30


 300 0080 194B     		ldr	r3, .L34+48
 301 0082 0B44     		add	r3, r3, r1
 302 0084 02F51222 		add	r2, r2, #598016
 303 0088 02F5F862 		add	r2, r2, #1984
 304 008c 9342     		cmp	r3, r2
 305 008e 01D9     		bls	.L33
 197:Drivers/STM32H7xx_HAL_Driver/Src/stm32h7xx_ll_usb.c ****     }
 306              		.loc 1 197 0
 307 0090 0621     		movs	r1, #6
 308              	.LVL22:
 309 0092 B8E7     		b	.L21
 310              	.LVL23:
 311              	.L33:
 192:Drivers/STM32H7xx_HAL_Driver/Src/stm32h7xx_ll_usb.c ****     }
 312              		.loc 1 192 0
 313 0094 0721     		movs	r1, #7
 314              	.LVL24:
 315 0096 B6E7     		b	.L21
 316              	.LVL25:
 317              	.L23:
 152:Drivers/STM32H7xx_HAL_Driver/Src/stm32h7xx_ll_usb.c ****     }
 318              		.loc 1 152 0
 319 0098 0F21     		movs	r1, #15
 320              	.LVL26:
 321 009a B4E7     		b	.L21
 322              	.LVL27:
 323              	.L24:
 157:Drivers/STM32H7xx_HAL_Driver/Src/stm32h7xx_ll_usb.c ****     }
 324              		.loc 1 157 0
 325 009c 0E21     		movs	r1, #14
 326              	.LVL28:
 327 009e B2E7     		b	.L21
 328              	.LVL29:
 329              	.L25:
 162:Drivers/STM32H7xx_HAL_Driver/Src/stm32h7xx_ll_usb.c ****     }
 330              		.loc 1 162 0
 331 00a0 0D21     		movs	r1, #13
 332              	.LVL30:
 333 00a2 B0E7     		b	.L21
 334              	.LVL31:
 335              	.L26:
 167:Drivers/STM32H7xx_HAL_Driver/Src/stm32h7xx_ll_usb.c ****     }
 336              		.loc 1 167 0
 337 00a4 0C21     		movs	r1, #12
 338              	.LVL32:
 339 00a6 AEE7     		b	.L21
 340              	.LVL33:
 341              	.L27:
 172:Drivers/STM32H7xx_HAL_Driver/Src/stm32h7xx_ll_usb.c ****     }
 342              		.loc 1 172 0
 343 00a8 0B21     		movs	r1, #11
 344              	.LVL34:
 345 00aa ACE7     		b	.L21
 346              	.LVL35:
 347              	.L28:
 177:Drivers/STM32H7xx_HAL_Driver/Src/stm32h7xx_ll_usb.c ****     }
 348              		.loc 1 177 0
ARM GAS  /tmp/ccCJnE45.s 			page 31


 349 00ac 0A21     		movs	r1, #10
 350              	.LVL36:
 351 00ae AAE7     		b	.L21
 352              	.LVL37:
 353              	.L29:
 182:Drivers/STM32H7xx_HAL_Driver/Src/stm32h7xx_ll_usb.c ****     }
 354              		.loc 1 182 0
 355 00b0 0921     		movs	r1, #9
 356              	.LVL38:
 357 00b2 A8E7     		b	.L21
 358              	.LVL39:
 359              	.L30:
 187:Drivers/STM32H7xx_HAL_Driver/Src/stm32h7xx_ll_usb.c ****     }
 360              		.loc 1 187 0
 361 00b4 0821     		movs	r1, #8
 362              	.LVL40:
 363 00b6 A6E7     		b	.L21
 364              	.L35:
 365              		.align	2
 366              	.L34:
 367 00b8 405327FF 		.word	-14200000
 368 00bc FF340C00 		.word	799999
 369 00c0 401E1BFF 		.word	-15000000
 370 00c4 3F420F00 		.word	999999
 371 00c8 00DC0BFF 		.word	-16000000
 372 00cc 7F4F1200 		.word	1199999
 373 00d0 808CF9FE 		.word	-17200000
 374 00d4 60B6E5FE 		.word	-18500000
 375 00d8 5FE31600 		.word	1499999
 376 00dc 00D3CEFE 		.word	-20000000
 377 00e0 C05BB3FE 		.word	-21800000
 378 00e4 00CA91FE 		.word	-24000000
 379 00e8 E05459FE 		.word	-27700000
 380              		.cfi_endproc
 381              	.LFE344:
 383              		.section	.text.USB_EnableGlobalInt,"ax",%progbits
 384              		.align	1
 385              		.global	USB_EnableGlobalInt
 386              		.syntax unified
 387              		.thumb
 388              		.thumb_func
 389              		.fpu fpv5-d16
 391              	USB_EnableGlobalInt:
 392              	.LFB345:
 222:Drivers/STM32H7xx_HAL_Driver/Src/stm32h7xx_ll_usb.c ****   USBx->GAHBCFG |= USB_OTG_GAHBCFG_GINT;
 393              		.loc 1 222 0
 394              		.cfi_startproc
 395              		@ args = 0, pretend = 0, frame = 0
 396              		@ frame_needed = 0, uses_anonymous_args = 0
 397              		@ link register save eliminated.
 398              	.LVL41:
 223:Drivers/STM32H7xx_HAL_Driver/Src/stm32h7xx_ll_usb.c ****   return HAL_OK;
 399              		.loc 1 223 0
 400 0000 8368     		ldr	r3, [r0, #8]
 401 0002 43F00103 		orr	r3, r3, #1
 402 0006 8360     		str	r3, [r0, #8]
 225:Drivers/STM32H7xx_HAL_Driver/Src/stm32h7xx_ll_usb.c **** 
ARM GAS  /tmp/ccCJnE45.s 			page 32


 403              		.loc 1 225 0
 404 0008 0020     		movs	r0, #0
 405              	.LVL42:
 406 000a 7047     		bx	lr
 407              		.cfi_endproc
 408              	.LFE345:
 410              		.section	.text.USB_DisableGlobalInt,"ax",%progbits
 411              		.align	1
 412              		.global	USB_DisableGlobalInt
 413              		.syntax unified
 414              		.thumb
 415              		.thumb_func
 416              		.fpu fpv5-d16
 418              	USB_DisableGlobalInt:
 419              	.LFB346:
 234:Drivers/STM32H7xx_HAL_Driver/Src/stm32h7xx_ll_usb.c ****   USBx->GAHBCFG &= ~USB_OTG_GAHBCFG_GINT;
 420              		.loc 1 234 0
 421              		.cfi_startproc
 422              		@ args = 0, pretend = 0, frame = 0
 423              		@ frame_needed = 0, uses_anonymous_args = 0
 424              		@ link register save eliminated.
 425              	.LVL43:
 235:Drivers/STM32H7xx_HAL_Driver/Src/stm32h7xx_ll_usb.c ****   return HAL_OK;
 426              		.loc 1 235 0
 427 0000 8368     		ldr	r3, [r0, #8]
 428 0002 23F00103 		bic	r3, r3, #1
 429 0006 8360     		str	r3, [r0, #8]
 237:Drivers/STM32H7xx_HAL_Driver/Src/stm32h7xx_ll_usb.c **** 
 430              		.loc 1 237 0
 431 0008 0020     		movs	r0, #0
 432              	.LVL44:
 433 000a 7047     		bx	lr
 434              		.cfi_endproc
 435              	.LFE346:
 437              		.section	.text.USB_SetCurrentMode,"ax",%progbits
 438              		.align	1
 439              		.global	USB_SetCurrentMode
 440              		.syntax unified
 441              		.thumb
 442              		.thumb_func
 443              		.fpu fpv5-d16
 445              	USB_SetCurrentMode:
 446              	.LFB347:
 250:Drivers/STM32H7xx_HAL_Driver/Src/stm32h7xx_ll_usb.c ****   USBx->GUSBCFG &= ~(USB_OTG_GUSBCFG_FHMOD | USB_OTG_GUSBCFG_FDMOD);
 447              		.loc 1 250 0
 448              		.cfi_startproc
 449              		@ args = 0, pretend = 0, frame = 0
 450              		@ frame_needed = 0, uses_anonymous_args = 0
 451              	.LVL45:
 452 0000 08B5     		push	{r3, lr}
 453              	.LCFI5:
 454              		.cfi_def_cfa_offset 8
 455              		.cfi_offset 3, -8
 456              		.cfi_offset 14, -4
 251:Drivers/STM32H7xx_HAL_Driver/Src/stm32h7xx_ll_usb.c **** 
 457              		.loc 1 251 0
 458 0002 C368     		ldr	r3, [r0, #12]
ARM GAS  /tmp/ccCJnE45.s 			page 33


 459 0004 23F0C043 		bic	r3, r3, #1610612736
 460 0008 C360     		str	r3, [r0, #12]
 253:Drivers/STM32H7xx_HAL_Driver/Src/stm32h7xx_ll_usb.c ****   {
 461              		.loc 1 253 0
 462 000a 0129     		cmp	r1, #1
 463 000c 09D0     		beq	.L44
 257:Drivers/STM32H7xx_HAL_Driver/Src/stm32h7xx_ll_usb.c ****   {
 464              		.loc 1 257 0
 465 000e 69B9     		cbnz	r1, .L42
 259:Drivers/STM32H7xx_HAL_Driver/Src/stm32h7xx_ll_usb.c ****   }
 466              		.loc 1 259 0
 467 0010 C368     		ldr	r3, [r0, #12]
 468 0012 43F08043 		orr	r3, r3, #1073741824
 469 0016 C360     		str	r3, [r0, #12]
 470              	.L40:
 265:Drivers/STM32H7xx_HAL_Driver/Src/stm32h7xx_ll_usb.c **** 
 471              		.loc 1 265 0
 472 0018 3220     		movs	r0, #50
 473              	.LVL46:
 474 001a FFF7FEFF 		bl	HAL_Delay
 475              	.LVL47:
 267:Drivers/STM32H7xx_HAL_Driver/Src/stm32h7xx_ll_usb.c **** }
 476              		.loc 1 267 0
 477 001e 0020     		movs	r0, #0
 478              	.L41:
 268:Drivers/STM32H7xx_HAL_Driver/Src/stm32h7xx_ll_usb.c **** 
 479              		.loc 1 268 0
 480 0020 08BD     		pop	{r3, pc}
 481              	.LVL48:
 482              	.L44:
 255:Drivers/STM32H7xx_HAL_Driver/Src/stm32h7xx_ll_usb.c ****   }
 483              		.loc 1 255 0
 484 0022 C368     		ldr	r3, [r0, #12]
 485 0024 43F00053 		orr	r3, r3, #536870912
 486 0028 C360     		str	r3, [r0, #12]
 487 002a F5E7     		b	.L40
 488              	.L42:
 263:Drivers/STM32H7xx_HAL_Driver/Src/stm32h7xx_ll_usb.c ****   }
 489              		.loc 1 263 0
 490 002c 0120     		movs	r0, #1
 491              	.LVL49:
 492 002e F7E7     		b	.L41
 493              		.cfi_endproc
 494              	.LFE347:
 496              		.section	.text.USB_FlushTxFifo,"ax",%progbits
 497              		.align	1
 498              		.global	USB_FlushTxFifo
 499              		.syntax unified
 500              		.thumb
 501              		.thumb_func
 502              		.fpu fpv5-d16
 504              	USB_FlushTxFifo:
 505              	.LFB349:
 434:Drivers/STM32H7xx_HAL_Driver/Src/stm32h7xx_ll_usb.c ****   uint32_t count = 0U;
 506              		.loc 1 434 0
 507              		.cfi_startproc
 508              		@ args = 0, pretend = 0, frame = 0
ARM GAS  /tmp/ccCJnE45.s 			page 34


 509              		@ frame_needed = 0, uses_anonymous_args = 0
 510              		@ link register save eliminated.
 511              	.LVL50:
 437:Drivers/STM32H7xx_HAL_Driver/Src/stm32h7xx_ll_usb.c **** 
 512              		.loc 1 437 0
 513 0000 8901     		lsls	r1, r1, #6
 514              	.LVL51:
 515 0002 41F02001 		orr	r1, r1, #32
 516 0006 0161     		str	r1, [r0, #16]
 435:Drivers/STM32H7xx_HAL_Driver/Src/stm32h7xx_ll_usb.c **** 
 517              		.loc 1 435 0
 518 0008 0023     		movs	r3, #0
 519              	.LVL52:
 520              	.L47:
 441:Drivers/STM32H7xx_HAL_Driver/Src/stm32h7xx_ll_usb.c ****     {
 521              		.loc 1 441 0
 522 000a 0133     		adds	r3, r3, #1
 523              	.LVL53:
 524 000c 054A     		ldr	r2, .L49
 525 000e 9342     		cmp	r3, r2
 526 0010 05D8     		bhi	.L48
 446:Drivers/STM32H7xx_HAL_Driver/Src/stm32h7xx_ll_usb.c **** 
 527              		.loc 1 446 0
 528 0012 0269     		ldr	r2, [r0, #16]
 529 0014 12F0200F 		tst	r2, #32
 530 0018 F7D1     		bne	.L47
 448:Drivers/STM32H7xx_HAL_Driver/Src/stm32h7xx_ll_usb.c **** }
 531              		.loc 1 448 0
 532 001a 0020     		movs	r0, #0
 533              	.LVL54:
 534 001c 7047     		bx	lr
 535              	.LVL55:
 536              	.L48:
 443:Drivers/STM32H7xx_HAL_Driver/Src/stm32h7xx_ll_usb.c ****     }
 537              		.loc 1 443 0
 538 001e 0320     		movs	r0, #3
 539              	.LVL56:
 449:Drivers/STM32H7xx_HAL_Driver/Src/stm32h7xx_ll_usb.c **** 
 540              		.loc 1 449 0
 541 0020 7047     		bx	lr
 542              	.L50:
 543 0022 00BF     		.align	2
 544              	.L49:
 545 0024 400D0300 		.word	200000
 546              		.cfi_endproc
 547              	.LFE349:
 549              		.section	.text.USB_FlushRxFifo,"ax",%progbits
 550              		.align	1
 551              		.global	USB_FlushRxFifo
 552              		.syntax unified
 553              		.thumb
 554              		.thumb_func
 555              		.fpu fpv5-d16
 557              	USB_FlushRxFifo:
 558              	.LFB350:
 457:Drivers/STM32H7xx_HAL_Driver/Src/stm32h7xx_ll_usb.c ****   uint32_t count = 0;
 559              		.loc 1 457 0
ARM GAS  /tmp/ccCJnE45.s 			page 35


 560              		.cfi_startproc
 561              		@ args = 0, pretend = 0, frame = 0
 562              		@ frame_needed = 0, uses_anonymous_args = 0
 563              		@ link register save eliminated.
 564              	.LVL57:
 460:Drivers/STM32H7xx_HAL_Driver/Src/stm32h7xx_ll_usb.c **** 
 565              		.loc 1 460 0
 566 0000 1023     		movs	r3, #16
 567 0002 0361     		str	r3, [r0, #16]
 458:Drivers/STM32H7xx_HAL_Driver/Src/stm32h7xx_ll_usb.c **** 
 568              		.loc 1 458 0
 569 0004 0023     		movs	r3, #0
 570              	.LVL58:
 571              	.L53:
 464:Drivers/STM32H7xx_HAL_Driver/Src/stm32h7xx_ll_usb.c ****     {
 572              		.loc 1 464 0
 573 0006 0133     		adds	r3, r3, #1
 574              	.LVL59:
 575 0008 054A     		ldr	r2, .L55
 576 000a 9342     		cmp	r3, r2
 577 000c 05D8     		bhi	.L54
 469:Drivers/STM32H7xx_HAL_Driver/Src/stm32h7xx_ll_usb.c **** 
 578              		.loc 1 469 0
 579 000e 0269     		ldr	r2, [r0, #16]
 580 0010 12F0100F 		tst	r2, #16
 581 0014 F7D1     		bne	.L53
 471:Drivers/STM32H7xx_HAL_Driver/Src/stm32h7xx_ll_usb.c **** }
 582              		.loc 1 471 0
 583 0016 0020     		movs	r0, #0
 584              	.LVL60:
 585 0018 7047     		bx	lr
 586              	.LVL61:
 587              	.L54:
 466:Drivers/STM32H7xx_HAL_Driver/Src/stm32h7xx_ll_usb.c ****     }
 588              		.loc 1 466 0
 589 001a 0320     		movs	r0, #3
 590              	.LVL62:
 472:Drivers/STM32H7xx_HAL_Driver/Src/stm32h7xx_ll_usb.c **** 
 591              		.loc 1 472 0
 592 001c 7047     		bx	lr
 593              	.L56:
 594 001e 00BF     		.align	2
 595              	.L55:
 596 0020 400D0300 		.word	200000
 597              		.cfi_endproc
 598              	.LFE350:
 600              		.section	.text.USB_SetDevSpeed,"ax",%progbits
 601              		.align	1
 602              		.global	USB_SetDevSpeed
 603              		.syntax unified
 604              		.thumb
 605              		.thumb_func
 606              		.fpu fpv5-d16
 608              	USB_SetDevSpeed:
 609              	.LFB351:
 486:Drivers/STM32H7xx_HAL_Driver/Src/stm32h7xx_ll_usb.c ****   uint32_t USBx_BASE = (uint32_t)USBx;
 610              		.loc 1 486 0
ARM GAS  /tmp/ccCJnE45.s 			page 36


 611              		.cfi_startproc
 612              		@ args = 0, pretend = 0, frame = 0
 613              		@ frame_needed = 0, uses_anonymous_args = 0
 614              		@ link register save eliminated.
 615              	.LVL63:
 489:Drivers/STM32H7xx_HAL_Driver/Src/stm32h7xx_ll_usb.c ****   return HAL_OK;
 616              		.loc 1 489 0
 617 0000 D0F80038 		ldr	r3, [r0, #2048]
 618 0004 1943     		orrs	r1, r1, r3
 619              	.LVL64:
 620 0006 C0F80018 		str	r1, [r0, #2048]
 491:Drivers/STM32H7xx_HAL_Driver/Src/stm32h7xx_ll_usb.c **** 
 621              		.loc 1 491 0
 622 000a 0020     		movs	r0, #0
 623              	.LVL65:
 624 000c 7047     		bx	lr
 625              		.cfi_endproc
 626              	.LFE351:
 628              		.section	.text.USB_DevInit,"ax",%progbits
 629              		.align	1
 630              		.global	USB_DevInit
 631              		.syntax unified
 632              		.thumb
 633              		.thumb_func
 634              		.fpu fpv5-d16
 636              	USB_DevInit:
 637              	.LFB348:
 279:Drivers/STM32H7xx_HAL_Driver/Src/stm32h7xx_ll_usb.c ****   HAL_StatusTypeDef ret = HAL_OK;
 638              		.loc 1 279 0
 639              		.cfi_startproc
 640              		@ args = 56, pretend = 16, frame = 0
 641              		@ frame_needed = 0, uses_anonymous_args = 0
 642              	.LVL66:
 643 0000 84B0     		sub	sp, sp, #16
 644              	.LCFI6:
 645              		.cfi_def_cfa_offset 16
 646 0002 2DE9F041 		push	{r4, r5, r6, r7, r8, lr}
 647              	.LCFI7:
 648              		.cfi_def_cfa_offset 40
 649              		.cfi_offset 4, -40
 650              		.cfi_offset 5, -36
 651              		.cfi_offset 6, -32
 652              		.cfi_offset 7, -28
 653              		.cfi_offset 8, -24
 654              		.cfi_offset 14, -20
 655 0006 0446     		mov	r4, r0
 656 0008 07A8     		add	r0, sp, #28
 657              	.LVL67:
 658 000a 80E80E00 		stm	r0, {r1, r2, r3}
 659              	.LVL68:
 281:Drivers/STM32H7xx_HAL_Driver/Src/stm32h7xx_ll_usb.c ****   uint32_t i;
 660              		.loc 1 281 0
 661 000e 2546     		mov	r5, r4
 662              	.LVL69:
 284:Drivers/STM32H7xx_HAL_Driver/Src/stm32h7xx_ll_usb.c ****   {
 663              		.loc 1 284 0
 664 0010 0023     		movs	r3, #0
ARM GAS  /tmp/ccCJnE45.s 			page 37


 665 0012 06E0     		b	.L59
 666              	.LVL70:
 667              	.L60:
 286:Drivers/STM32H7xx_HAL_Driver/Src/stm32h7xx_ll_usb.c ****   }
 668              		.loc 1 286 0 discriminator 3
 669 0014 03F14002 		add	r2, r3, #64
 670 0018 04EB8202 		add	r2, r4, r2, lsl #2
 671 001c 0021     		movs	r1, #0
 672 001e 5160     		str	r1, [r2, #4]
 284:Drivers/STM32H7xx_HAL_Driver/Src/stm32h7xx_ll_usb.c ****   {
 673              		.loc 1 284 0 discriminator 3
 674 0020 0133     		adds	r3, r3, #1
 675              	.LVL71:
 676              	.L59:
 284:Drivers/STM32H7xx_HAL_Driver/Src/stm32h7xx_ll_usb.c ****   {
 677              		.loc 1 284 0 is_stmt 0 discriminator 1
 678 0022 0E2B     		cmp	r3, #14
 679 0024 F6D9     		bls	.L60
 290:Drivers/STM32H7xx_HAL_Driver/Src/stm32h7xx_ll_usb.c ****   {
 680              		.loc 1 290 0 is_stmt 1
 681 0026 119B     		ldr	r3, [sp, #68]
 682              	.LVL72:
 683 0028 23BB     		cbnz	r3, .L61
 292:Drivers/STM32H7xx_HAL_Driver/Src/stm32h7xx_ll_usb.c **** 
 684              		.loc 1 292 0
 685 002a D4F80438 		ldr	r3, [r4, #2052]
 686 002e 43F00203 		orr	r3, r3, #2
 687 0032 C4F80438 		str	r3, [r4, #2052]
 295:Drivers/STM32H7xx_HAL_Driver/Src/stm32h7xx_ll_usb.c **** 
 688              		.loc 1 295 0
 689 0036 A36B     		ldr	r3, [r4, #56]
 690 0038 23F40013 		bic	r3, r3, #2097152
 691 003c A363     		str	r3, [r4, #56]
 298:Drivers/STM32H7xx_HAL_Driver/Src/stm32h7xx_ll_usb.c ****     USBx->GOTGCTL |= USB_OTG_GOTGCTL_BVALOVAL;
 692              		.loc 1 298 0
 693 003e 2368     		ldr	r3, [r4]
 694 0040 43F04003 		orr	r3, r3, #64
 695 0044 2360     		str	r3, [r4]
 299:Drivers/STM32H7xx_HAL_Driver/Src/stm32h7xx_ll_usb.c ****   }
 696              		.loc 1 299 0
 697 0046 2368     		ldr	r3, [r4]
 698 0048 43F08003 		orr	r3, r3, #128
 699 004c 2360     		str	r3, [r4]
 700              	.L62:
 308:Drivers/STM32H7xx_HAL_Driver/Src/stm32h7xx_ll_usb.c **** 
 701              		.loc 1 308 0
 702 004e 0023     		movs	r3, #0
 703 0050 C4F8003E 		str	r3, [r4, #3584]
 311:Drivers/STM32H7xx_HAL_Driver/Src/stm32h7xx_ll_usb.c **** 
 704              		.loc 1 311 0
 705 0054 04F50066 		add	r6, r4, #2048
 706 0058 D4F80038 		ldr	r3, [r4, #2048]
 707 005c C4F80038 		str	r3, [r4, #2048]
 313:Drivers/STM32H7xx_HAL_Driver/Src/stm32h7xx_ll_usb.c ****   {
 708              		.loc 1 313 0
 709 0060 0C9B     		ldr	r3, [sp, #48]
 710 0062 012B     		cmp	r3, #1
ARM GAS  /tmp/ccCJnE45.s 			page 38


 711 0064 10D1     		bne	.L63
 315:Drivers/STM32H7xx_HAL_Driver/Src/stm32h7xx_ll_usb.c ****     {
 712              		.loc 1 315 0
 713 0066 099B     		ldr	r3, [sp, #36]
 714 0068 4BB9     		cbnz	r3, .L64
 318:Drivers/STM32H7xx_HAL_Driver/Src/stm32h7xx_ll_usb.c ****     }
 715              		.loc 1 318 0
 716 006a 0021     		movs	r1, #0
 717 006c 2046     		mov	r0, r4
 718 006e FFF7FEFF 		bl	USB_SetDevSpeed
 719              	.LVL73:
 720 0072 0DE0     		b	.L65
 721              	.L61:
 304:Drivers/STM32H7xx_HAL_Driver/Src/stm32h7xx_ll_usb.c ****   }
 722              		.loc 1 304 0
 723 0074 A36B     		ldr	r3, [r4, #56]
 724 0076 43F40013 		orr	r3, r3, #2097152
 725 007a A363     		str	r3, [r4, #56]
 726 007c E7E7     		b	.L62
 727              	.L64:
 323:Drivers/STM32H7xx_HAL_Driver/Src/stm32h7xx_ll_usb.c ****     }
 728              		.loc 1 323 0
 729 007e 0121     		movs	r1, #1
 730 0080 2046     		mov	r0, r4
 731 0082 FFF7FEFF 		bl	USB_SetDevSpeed
 732              	.LVL74:
 733 0086 03E0     		b	.L65
 734              	.L63:
 329:Drivers/STM32H7xx_HAL_Driver/Src/stm32h7xx_ll_usb.c ****   }
 735              		.loc 1 329 0
 736 0088 0321     		movs	r1, #3
 737 008a 2046     		mov	r0, r4
 738 008c FFF7FEFF 		bl	USB_SetDevSpeed
 739              	.LVL75:
 740              	.L65:
 333:Drivers/STM32H7xx_HAL_Driver/Src/stm32h7xx_ll_usb.c ****   {
 741              		.loc 1 333 0
 742 0090 1021     		movs	r1, #16
 743 0092 2046     		mov	r0, r4
 744 0094 FFF7FEFF 		bl	USB_FlushTxFifo
 745              	.LVL76:
 746 0098 8046     		mov	r8, r0
 747 009a 08B1     		cbz	r0, .L66
 335:Drivers/STM32H7xx_HAL_Driver/Src/stm32h7xx_ll_usb.c ****   }
 748              		.loc 1 335 0
 749 009c 4FF00108 		mov	r8, #1
 750              	.L66:
 751              	.LVL77:
 338:Drivers/STM32H7xx_HAL_Driver/Src/stm32h7xx_ll_usb.c ****   {
 752              		.loc 1 338 0
 753 00a0 2046     		mov	r0, r4
 754 00a2 FFF7FEFF 		bl	USB_FlushRxFifo
 755              	.LVL78:
 756 00a6 08B1     		cbz	r0, .L67
 340:Drivers/STM32H7xx_HAL_Driver/Src/stm32h7xx_ll_usb.c ****   }
 757              		.loc 1 340 0
 758 00a8 4FF00108 		mov	r8, #1
ARM GAS  /tmp/ccCJnE45.s 			page 39


 759              	.LVL79:
 760              	.L67:
 344:Drivers/STM32H7xx_HAL_Driver/Src/stm32h7xx_ll_usb.c ****   USBx_DEVICE->DOEPMSK = 0U;
 761              		.loc 1 344 0
 762 00ac 0023     		movs	r3, #0
 763 00ae 3361     		str	r3, [r6, #16]
 345:Drivers/STM32H7xx_HAL_Driver/Src/stm32h7xx_ll_usb.c ****   USBx_DEVICE->DAINTMSK = 0U;
 764              		.loc 1 345 0
 765 00b0 7361     		str	r3, [r6, #20]
 346:Drivers/STM32H7xx_HAL_Driver/Src/stm32h7xx_ll_usb.c **** 
 766              		.loc 1 346 0
 767 00b2 F361     		str	r3, [r6, #28]
 768              	.LVL80:
 348:Drivers/STM32H7xx_HAL_Driver/Src/stm32h7xx_ll_usb.c ****   {
 769              		.loc 1 348 0
 770 00b4 0AE0     		b	.L68
 771              	.LVL81:
 772              	.L85:
 352:Drivers/STM32H7xx_HAL_Driver/Src/stm32h7xx_ll_usb.c ****       {
 773              		.loc 1 352 0
 774 00b6 C3B9     		cbnz	r3, .L70
 354:Drivers/STM32H7xx_HAL_Driver/Src/stm32h7xx_ll_usb.c ****       }
 775              		.loc 1 354 0
 776 00b8 4FF00060 		mov	r0, #134217728
 777 00bc C2F80009 		str	r0, [r2, #2304]
 778              	.L71:
 366:Drivers/STM32H7xx_HAL_Driver/Src/stm32h7xx_ll_usb.c ****     USBx_INEP(i)->DIEPINT  = 0xFB7FU;
 779              		.loc 1 366 0 discriminator 2
 780 00c0 0022     		movs	r2, #0
 781 00c2 0A61     		str	r2, [r1, #16]
 367:Drivers/STM32H7xx_HAL_Driver/Src/stm32h7xx_ll_usb.c ****   }
 782              		.loc 1 367 0 discriminator 2
 783 00c4 4FF67F32 		movw	r2, #64383
 784 00c8 8A60     		str	r2, [r1, #8]
 348:Drivers/STM32H7xx_HAL_Driver/Src/stm32h7xx_ll_usb.c ****   {
 785              		.loc 1 348 0 discriminator 2
 786 00ca 0133     		adds	r3, r3, #1
 787              	.LVL82:
 788              	.L68:
 348:Drivers/STM32H7xx_HAL_Driver/Src/stm32h7xx_ll_usb.c ****   {
 789              		.loc 1 348 0 is_stmt 0 discriminator 1
 790 00cc 0799     		ldr	r1, [sp, #28]
 791 00ce 9942     		cmp	r1, r3
 792 00d0 10D9     		bls	.L84
 350:Drivers/STM32H7xx_HAL_Driver/Src/stm32h7xx_ll_usb.c ****     {
 793              		.loc 1 350 0 is_stmt 1
 794 00d2 05EB4312 		add	r2, r5, r3, lsl #5
 795 00d6 02F51061 		add	r1, r2, #2304
 796 00da D2F80009 		ldr	r0, [r2, #2304]
 797 00de 0028     		cmp	r0, #0
 798 00e0 E9DB     		blt	.L85
 363:Drivers/STM32H7xx_HAL_Driver/Src/stm32h7xx_ll_usb.c ****     }
 799              		.loc 1 363 0
 800 00e2 0020     		movs	r0, #0
 801 00e4 C2F80009 		str	r0, [r2, #2304]
 802 00e8 EAE7     		b	.L71
 803              	.L70:
ARM GAS  /tmp/ccCJnE45.s 			page 40


 358:Drivers/STM32H7xx_HAL_Driver/Src/stm32h7xx_ll_usb.c ****       }
 804              		.loc 1 358 0
 805 00ea 4FF09040 		mov	r0, #1207959552
 806 00ee C2F80009 		str	r0, [r2, #2304]
 807 00f2 E5E7     		b	.L71
 808              	.L84:
 370:Drivers/STM32H7xx_HAL_Driver/Src/stm32h7xx_ll_usb.c ****   {
 809              		.loc 1 370 0
 810 00f4 0023     		movs	r3, #0
 811              	.LVL83:
 812 00f6 0AE0     		b	.L73
 813              	.LVL84:
 814              	.L88:
 374:Drivers/STM32H7xx_HAL_Driver/Src/stm32h7xx_ll_usb.c ****       {
 815              		.loc 1 374 0
 816 00f8 BBB1     		cbz	r3, .L86
 380:Drivers/STM32H7xx_HAL_Driver/Src/stm32h7xx_ll_usb.c ****       }
 817              		.loc 1 380 0
 818 00fa 4FF09047 		mov	r7, #1207959552
 819 00fe C2F8007B 		str	r7, [r2, #2816]
 820              	.L76:
 388:Drivers/STM32H7xx_HAL_Driver/Src/stm32h7xx_ll_usb.c ****     USBx_OUTEP(i)->DOEPINT  = 0xFB7FU;
 821              		.loc 1 388 0 discriminator 2
 822 0102 0022     		movs	r2, #0
 823 0104 0261     		str	r2, [r0, #16]
 389:Drivers/STM32H7xx_HAL_Driver/Src/stm32h7xx_ll_usb.c ****   }
 824              		.loc 1 389 0 discriminator 2
 825 0106 4FF67F32 		movw	r2, #64383
 826 010a 8260     		str	r2, [r0, #8]
 370:Drivers/STM32H7xx_HAL_Driver/Src/stm32h7xx_ll_usb.c ****   {
 827              		.loc 1 370 0 discriminator 2
 828 010c 0133     		adds	r3, r3, #1
 829              	.LVL85:
 830              	.L73:
 370:Drivers/STM32H7xx_HAL_Driver/Src/stm32h7xx_ll_usb.c ****   {
 831              		.loc 1 370 0 is_stmt 0 discriminator 1
 832 010e 9942     		cmp	r1, r3
 833 0110 10D9     		bls	.L87
 372:Drivers/STM32H7xx_HAL_Driver/Src/stm32h7xx_ll_usb.c ****     {
 834              		.loc 1 372 0 is_stmt 1
 835 0112 05EB4312 		add	r2, r5, r3, lsl #5
 836 0116 02F53060 		add	r0, r2, #2816
 837 011a D2F8007B 		ldr	r7, [r2, #2816]
 838 011e 002F     		cmp	r7, #0
 839 0120 EADB     		blt	.L88
 385:Drivers/STM32H7xx_HAL_Driver/Src/stm32h7xx_ll_usb.c ****     }
 840              		.loc 1 385 0
 841 0122 0027     		movs	r7, #0
 842 0124 C2F8007B 		str	r7, [r2, #2816]
 843 0128 EBE7     		b	.L76
 844              	.L86:
 376:Drivers/STM32H7xx_HAL_Driver/Src/stm32h7xx_ll_usb.c ****       }
 845              		.loc 1 376 0
 846 012a 4FF00067 		mov	r7, #134217728
 847 012e C2F8007B 		str	r7, [r2, #2816]
 848 0132 E6E7     		b	.L76
 849              	.L87:
ARM GAS  /tmp/ccCJnE45.s 			page 41


 392:Drivers/STM32H7xx_HAL_Driver/Src/stm32h7xx_ll_usb.c **** 
 850              		.loc 1 392 0
 851 0134 3369     		ldr	r3, [r6, #16]
 852              	.LVL86:
 853 0136 23F48073 		bic	r3, r3, #256
 854 013a 3361     		str	r3, [r6, #16]
 395:Drivers/STM32H7xx_HAL_Driver/Src/stm32h7xx_ll_usb.c **** 
 855              		.loc 1 395 0
 856 013c 0023     		movs	r3, #0
 857 013e A361     		str	r3, [r4, #24]
 398:Drivers/STM32H7xx_HAL_Driver/Src/stm32h7xx_ll_usb.c **** 
 858              		.loc 1 398 0
 859 0140 6FF08043 		mvn	r3, #1073741824
 860 0144 6361     		str	r3, [r4, #20]
 401:Drivers/STM32H7xx_HAL_Driver/Src/stm32h7xx_ll_usb.c ****   {
 861              		.loc 1 401 0
 862 0146 0A9B     		ldr	r3, [sp, #40]
 863 0148 1BB9     		cbnz	r3, .L78
 403:Drivers/STM32H7xx_HAL_Driver/Src/stm32h7xx_ll_usb.c ****   }
 864              		.loc 1 403 0
 865 014a A369     		ldr	r3, [r4, #24]
 866 014c 43F01003 		orr	r3, r3, #16
 867 0150 A361     		str	r3, [r4, #24]
 868              	.L78:
 407:Drivers/STM32H7xx_HAL_Driver/Src/stm32h7xx_ll_usb.c ****                    USB_OTG_GINTMSK_ENUMDNEM | USB_OTG_GINTMSK_IEPINT |
 869              		.loc 1 407 0
 870 0152 A269     		ldr	r2, [r4, #24]
 871 0154 0A4B     		ldr	r3, .L90
 872 0156 1343     		orrs	r3, r3, r2
 873 0158 A361     		str	r3, [r4, #24]
 412:Drivers/STM32H7xx_HAL_Driver/Src/stm32h7xx_ll_usb.c ****   {
 874              		.loc 1 412 0
 875 015a 0D9B     		ldr	r3, [sp, #52]
 876 015c 1BB1     		cbz	r3, .L79
 414:Drivers/STM32H7xx_HAL_Driver/Src/stm32h7xx_ll_usb.c ****   }
 877              		.loc 1 414 0
 878 015e A369     		ldr	r3, [r4, #24]
 879 0160 43F00803 		orr	r3, r3, #8
 880 0164 A361     		str	r3, [r4, #24]
 881              	.L79:
 417:Drivers/STM32H7xx_HAL_Driver/Src/stm32h7xx_ll_usb.c ****   {
 882              		.loc 1 417 0
 883 0166 119B     		ldr	r3, [sp, #68]
 884 0168 012B     		cmp	r3, #1
 885 016a 04D0     		beq	.L89
 886              	.L80:
 423:Drivers/STM32H7xx_HAL_Driver/Src/stm32h7xx_ll_usb.c **** 
 887              		.loc 1 423 0
 888 016c 4046     		mov	r0, r8
 889 016e BDE8F041 		pop	{r4, r5, r6, r7, r8, lr}
 890              	.LCFI8:
 891              		.cfi_remember_state
 892              		.cfi_restore 14
 893              		.cfi_restore 8
 894              		.cfi_restore 7
 895              		.cfi_restore 6
 896              		.cfi_restore 5
ARM GAS  /tmp/ccCJnE45.s 			page 42


 897              		.cfi_restore 4
 898              		.cfi_def_cfa_offset 16
 899              	.LVL87:
 900 0172 04B0     		add	sp, sp, #16
 901              	.LCFI9:
 902              		.cfi_def_cfa_offset 0
 903 0174 7047     		bx	lr
 904              	.LVL88:
 905              	.L89:
 906              	.LCFI10:
 907              		.cfi_restore_state
 419:Drivers/STM32H7xx_HAL_Driver/Src/stm32h7xx_ll_usb.c ****   }
 908              		.loc 1 419 0
 909 0176 A269     		ldr	r2, [r4, #24]
 910 0178 024B     		ldr	r3, .L90+4
 911 017a 1343     		orrs	r3, r3, r2
 912 017c A361     		str	r3, [r4, #24]
 913 017e F5E7     		b	.L80
 914              	.L91:
 915              		.align	2
 916              	.L90:
 917 0180 00383C80 		.word	-2143537152
 918 0184 04000040 		.word	1073741828
 919              		.cfi_endproc
 920              	.LFE348:
 922              		.section	.text.USB_GetDevSpeed,"ax",%progbits
 923              		.align	1
 924              		.global	USB_GetDevSpeed
 925              		.syntax unified
 926              		.thumb
 927              		.thumb_func
 928              		.fpu fpv5-d16
 930              	USB_GetDevSpeed:
 931              	.LFB352:
 502:Drivers/STM32H7xx_HAL_Driver/Src/stm32h7xx_ll_usb.c ****   uint32_t USBx_BASE = (uint32_t)USBx;
 932              		.loc 1 502 0
 933              		.cfi_startproc
 934              		@ args = 0, pretend = 0, frame = 0
 935              		@ frame_needed = 0, uses_anonymous_args = 0
 936              		@ link register save eliminated.
 937              	.LVL89:
 505:Drivers/STM32H7xx_HAL_Driver/Src/stm32h7xx_ll_usb.c **** 
 938              		.loc 1 505 0
 939 0000 D0F80838 		ldr	r3, [r0, #2056]
 940              	.LVL90:
 507:Drivers/STM32H7xx_HAL_Driver/Src/stm32h7xx_ll_usb.c ****   {
 941              		.loc 1 507 0
 942 0004 13F00603 		ands	r3, r3, #6
 943              	.LVL91:
 944 0008 05D0     		beq	.L94
 511:Drivers/STM32H7xx_HAL_Driver/Src/stm32h7xx_ll_usb.c ****            (DevEnumSpeed == DSTS_ENUMSPD_FS_PHY_48MHZ))
 945              		.loc 1 511 0
 946 000a 062B     		cmp	r3, #6
 947 000c 18BF     		it	ne
 948 000e 022B     		cmpne	r3, #2
 949 0010 03D1     		bne	.L95
 514:Drivers/STM32H7xx_HAL_Driver/Src/stm32h7xx_ll_usb.c ****   }
ARM GAS  /tmp/ccCJnE45.s 			page 43


 950              		.loc 1 514 0
 951 0012 0220     		movs	r0, #2
 952              	.LVL92:
 953 0014 7047     		bx	lr
 954              	.LVL93:
 955              	.L94:
 509:Drivers/STM32H7xx_HAL_Driver/Src/stm32h7xx_ll_usb.c ****   }
 956              		.loc 1 509 0
 957 0016 0020     		movs	r0, #0
 958              	.LVL94:
 959 0018 7047     		bx	lr
 960              	.LVL95:
 961              	.L95:
 518:Drivers/STM32H7xx_HAL_Driver/Src/stm32h7xx_ll_usb.c ****   }
 962              		.loc 1 518 0
 963 001a 0F20     		movs	r0, #15
 964              	.LVL96:
 522:Drivers/STM32H7xx_HAL_Driver/Src/stm32h7xx_ll_usb.c **** 
 965              		.loc 1 522 0
 966 001c 7047     		bx	lr
 967              		.cfi_endproc
 968              	.LFE352:
 970              		.section	.text.USB_ActivateEndpoint,"ax",%progbits
 971              		.align	1
 972              		.global	USB_ActivateEndpoint
 973              		.syntax unified
 974              		.thumb
 975              		.thumb_func
 976              		.fpu fpv5-d16
 978              	USB_ActivateEndpoint:
 979              	.LFB353:
 531:Drivers/STM32H7xx_HAL_Driver/Src/stm32h7xx_ll_usb.c ****   uint32_t USBx_BASE = (uint32_t)USBx;
 980              		.loc 1 531 0
 981              		.cfi_startproc
 982              		@ args = 0, pretend = 0, frame = 0
 983              		@ frame_needed = 0, uses_anonymous_args = 0
 984              		@ link register save eliminated.
 985              	.LVL97:
 986 0000 70B4     		push	{r4, r5, r6}
 987              	.LCFI11:
 988              		.cfi_def_cfa_offset 12
 989              		.cfi_offset 4, -12
 990              		.cfi_offset 5, -8
 991              		.cfi_offset 6, -4
 992              	.LVL98:
 533:Drivers/STM32H7xx_HAL_Driver/Src/stm32h7xx_ll_usb.c **** 
 993              		.loc 1 533 0
 994 0002 0B78     		ldrb	r3, [r1]	@ zero_extendqisi2
 995              	.LVL99:
 535:Drivers/STM32H7xx_HAL_Driver/Src/stm32h7xx_ll_usb.c ****   {
 996              		.loc 1 535 0
 997 0004 4A78     		ldrb	r2, [r1, #1]	@ zero_extendqisi2
 998 0006 012A     		cmp	r2, #1
 999 0008 20D0     		beq	.L100
 549:Drivers/STM32H7xx_HAL_Driver/Src/stm32h7xx_ll_usb.c **** 
 1000              		.loc 1 549 0
 1001 000a D0F81C28 		ldr	r2, [r0, #2076]
ARM GAS  /tmp/ccCJnE45.s 			page 44


 1002 000e 03F00F06 		and	r6, r3, #15
 1003 0012 0124     		movs	r4, #1
 1004 0014 B440     		lsls	r4, r4, r6
 1005 0016 42EA0442 		orr	r2, r2, r4, lsl #16
 1006 001a C0F81C28 		str	r2, [r0, #2076]
 551:Drivers/STM32H7xx_HAL_Driver/Src/stm32h7xx_ll_usb.c ****     {
 1007              		.loc 1 551 0
 1008 001e 00EB4310 		add	r0, r0, r3, lsl #5
 1009              	.LVL100:
 1010 0022 D0F8003B 		ldr	r3, [r0, #2816]
 1011              	.LVL101:
 1012 0026 13F4004F 		tst	r3, #32768
 1013 002a 0CD1     		bne	.L98
 553:Drivers/STM32H7xx_HAL_Driver/Src/stm32h7xx_ll_usb.c ****                                     ((uint32_t)ep->type << 18) |
 1014              		.loc 1 553 0
 1015 002c D0F8002B 		ldr	r2, [r0, #2816]
 1016 0030 8B68     		ldr	r3, [r1, #8]
 1017 0032 C3F30A03 		ubfx	r3, r3, #0, #11
 554:Drivers/STM32H7xx_HAL_Driver/Src/stm32h7xx_ll_usb.c ****                                     USB_OTG_DIEPCTL_SD0PID_SEVNFRM |
 1018              		.loc 1 554 0
 1019 0036 C978     		ldrb	r1, [r1, #3]	@ zero_extendqisi2
 1020              	.LVL102:
 553:Drivers/STM32H7xx_HAL_Driver/Src/stm32h7xx_ll_usb.c ****                                     ((uint32_t)ep->type << 18) |
 1021              		.loc 1 553 0
 1022 0038 43EA8143 		orr	r3, r3, r1, lsl #18
 1023 003c 1343     		orrs	r3, r3, r2
 1024 003e 134A     		ldr	r2, .L101
 1025 0040 1A43     		orrs	r2, r2, r3
 1026 0042 C0F8002B 		str	r2, [r0, #2816]
 1027              	.L98:
 560:Drivers/STM32H7xx_HAL_Driver/Src/stm32h7xx_ll_usb.c **** 
 1028              		.loc 1 560 0
 1029 0046 0020     		movs	r0, #0
 1030 0048 70BC     		pop	{r4, r5, r6}
 1031              	.LCFI12:
 1032              		.cfi_remember_state
 1033              		.cfi_restore 6
 1034              		.cfi_restore 5
 1035              		.cfi_restore 4
 1036              		.cfi_def_cfa_offset 0
 1037 004a 7047     		bx	lr
 1038              	.LVL103:
 1039              	.L100:
 1040              	.LCFI13:
 1041              		.cfi_restore_state
 537:Drivers/STM32H7xx_HAL_Driver/Src/stm32h7xx_ll_usb.c **** 
 1042              		.loc 1 537 0
 1043 004c D0F81C48 		ldr	r4, [r0, #2076]
 1044 0050 03F00F06 		and	r6, r3, #15
 1045 0054 B240     		lsls	r2, r2, r6
 1046 0056 92B2     		uxth	r2, r2
 1047 0058 2243     		orrs	r2, r2, r4
 1048 005a C0F81C28 		str	r2, [r0, #2076]
 539:Drivers/STM32H7xx_HAL_Driver/Src/stm32h7xx_ll_usb.c ****     {
 1049              		.loc 1 539 0
 1050 005e 00EB4310 		add	r0, r0, r3, lsl #5
 1051              	.LVL104:
ARM GAS  /tmp/ccCJnE45.s 			page 45


 1052 0062 D0F80029 		ldr	r2, [r0, #2304]
 1053 0066 12F4004F 		tst	r2, #32768
 1054 006a ECD1     		bne	.L98
 541:Drivers/STM32H7xx_HAL_Driver/Src/stm32h7xx_ll_usb.c ****                                    ((uint32_t)ep->type << 18) | (epnum << 22) |
 1055              		.loc 1 541 0
 1056 006c D0F80049 		ldr	r4, [r0, #2304]
 1057 0070 8A68     		ldr	r2, [r1, #8]
 1058 0072 C2F30A02 		ubfx	r2, r2, #0, #11
 542:Drivers/STM32H7xx_HAL_Driver/Src/stm32h7xx_ll_usb.c ****                                    USB_OTG_DIEPCTL_SD0PID_SEVNFRM |
 1059              		.loc 1 542 0
 1060 0076 C978     		ldrb	r1, [r1, #3]	@ zero_extendqisi2
 1061              	.LVL105:
 541:Drivers/STM32H7xx_HAL_Driver/Src/stm32h7xx_ll_usb.c ****                                    ((uint32_t)ep->type << 18) | (epnum << 22) |
 1062              		.loc 1 541 0
 1063 0078 42EA8142 		orr	r2, r2, r1, lsl #18
 542:Drivers/STM32H7xx_HAL_Driver/Src/stm32h7xx_ll_usb.c ****                                    USB_OTG_DIEPCTL_SD0PID_SEVNFRM |
 1064              		.loc 1 542 0
 1065 007c 42EA8353 		orr	r3, r2, r3, lsl #22
 1066              	.LVL106:
 541:Drivers/STM32H7xx_HAL_Driver/Src/stm32h7xx_ll_usb.c ****                                    ((uint32_t)ep->type << 18) | (epnum << 22) |
 1067              		.loc 1 541 0
 1068 0080 2343     		orrs	r3, r3, r4
 1069 0082 024A     		ldr	r2, .L101
 1070 0084 1A43     		orrs	r2, r2, r3
 1071 0086 C0F80029 		str	r2, [r0, #2304]
 1072 008a DCE7     		b	.L98
 1073              	.L102:
 1074              		.align	2
 1075              	.L101:
 1076 008c 00800010 		.word	268468224
 1077              		.cfi_endproc
 1078              	.LFE353:
 1080              		.section	.text.USB_ActivateDedicatedEndpoint,"ax",%progbits
 1081              		.align	1
 1082              		.global	USB_ActivateDedicatedEndpoint
 1083              		.syntax unified
 1084              		.thumb
 1085              		.thumb_func
 1086              		.fpu fpv5-d16
 1088              	USB_ActivateDedicatedEndpoint:
 1089              	.LFB354:
 569:Drivers/STM32H7xx_HAL_Driver/Src/stm32h7xx_ll_usb.c ****   uint32_t USBx_BASE = (uint32_t)USBx;
 1090              		.loc 1 569 0
 1091              		.cfi_startproc
 1092              		@ args = 0, pretend = 0, frame = 0
 1093              		@ frame_needed = 0, uses_anonymous_args = 0
 1094              		@ link register save eliminated.
 1095              	.LVL107:
 1096 0000 70B4     		push	{r4, r5, r6}
 1097              	.LCFI14:
 1098              		.cfi_def_cfa_offset 12
 1099              		.cfi_offset 4, -12
 1100              		.cfi_offset 5, -8
 1101              		.cfi_offset 6, -4
 1102              	.LVL108:
 571:Drivers/STM32H7xx_HAL_Driver/Src/stm32h7xx_ll_usb.c **** 
 1103              		.loc 1 571 0
ARM GAS  /tmp/ccCJnE45.s 			page 46


 1104 0002 0A78     		ldrb	r2, [r1]	@ zero_extendqisi2
 1105              	.LVL109:
 574:Drivers/STM32H7xx_HAL_Driver/Src/stm32h7xx_ll_usb.c ****   {
 1106              		.loc 1 574 0
 1107 0004 4B78     		ldrb	r3, [r1, #1]	@ zero_extendqisi2
 1108 0006 012B     		cmp	r3, #1
 1109 0008 23D0     		beq	.L109
 588:Drivers/STM32H7xx_HAL_Driver/Src/stm32h7xx_ll_usb.c ****     {
 1110              		.loc 1 588 0
 1111 000a 00EB4214 		add	r4, r0, r2, lsl #5
 1112 000e D4F8003B 		ldr	r3, [r4, #2816]
 1113 0012 13F4004F 		tst	r3, #32768
 1114 0016 0ED1     		bne	.L107
 590:Drivers/STM32H7xx_HAL_Driver/Src/stm32h7xx_ll_usb.c ****                                     ((uint32_t)ep->type << 18) | (epnum << 22) |
 1115              		.loc 1 590 0
 1116 0018 D4F8005B 		ldr	r5, [r4, #2816]
 1117 001c 8B68     		ldr	r3, [r1, #8]
 1118 001e C3F30A03 		ubfx	r3, r3, #0, #11
 591:Drivers/STM32H7xx_HAL_Driver/Src/stm32h7xx_ll_usb.c ****                                     USB_OTG_DOEPCTL_USBAEP;
 1119              		.loc 1 591 0
 1120 0022 CE78     		ldrb	r6, [r1, #3]	@ zero_extendqisi2
 590:Drivers/STM32H7xx_HAL_Driver/Src/stm32h7xx_ll_usb.c ****                                     ((uint32_t)ep->type << 18) | (epnum << 22) |
 1121              		.loc 1 590 0
 1122 0024 43EA8643 		orr	r3, r3, r6, lsl #18
 591:Drivers/STM32H7xx_HAL_Driver/Src/stm32h7xx_ll_usb.c ****                                     USB_OTG_DOEPCTL_USBAEP;
 1123              		.loc 1 591 0
 1124 0028 43EA8253 		orr	r3, r3, r2, lsl #22
 590:Drivers/STM32H7xx_HAL_Driver/Src/stm32h7xx_ll_usb.c ****                                     ((uint32_t)ep->type << 18) | (epnum << 22) |
 1125              		.loc 1 590 0
 1126 002c 2B43     		orrs	r3, r3, r5
 1127 002e 43F40043 		orr	r3, r3, #32768
 1128 0032 C4F8003B 		str	r3, [r4, #2816]
 1129              	.L107:
 595:Drivers/STM32H7xx_HAL_Driver/Src/stm32h7xx_ll_usb.c ****   }
 1130              		.loc 1 595 0
 1131 0036 D0F83C38 		ldr	r3, [r0, #2108]
 1132 003a 0A78     		ldrb	r2, [r1]	@ zero_extendqisi2
 1133              	.LVL110:
 1134 003c 02F00F01 		and	r1, r2, #15
 1135              	.LVL111:
 1136 0040 0122     		movs	r2, #1
 1137 0042 8A40     		lsls	r2, r2, r1
 1138 0044 43EA0243 		orr	r3, r3, r2, lsl #16
 1139 0048 C0F83C38 		str	r3, [r0, #2108]
 1140              	.L106:
 599:Drivers/STM32H7xx_HAL_Driver/Src/stm32h7xx_ll_usb.c **** 
 1141              		.loc 1 599 0
 1142 004c 0020     		movs	r0, #0
 1143              	.LVL112:
 1144 004e 70BC     		pop	{r4, r5, r6}
 1145              	.LCFI15:
 1146              		.cfi_remember_state
 1147              		.cfi_restore 6
 1148              		.cfi_restore 5
 1149              		.cfi_restore 4
 1150              		.cfi_def_cfa_offset 0
 1151 0050 7047     		bx	lr
ARM GAS  /tmp/ccCJnE45.s 			page 47


 1152              	.LVL113:
 1153              	.L109:
 1154              	.LCFI16:
 1155              		.cfi_restore_state
 576:Drivers/STM32H7xx_HAL_Driver/Src/stm32h7xx_ll_usb.c ****     {
 1156              		.loc 1 576 0
 1157 0052 00EB4215 		add	r5, r0, r2, lsl #5
 1158 0056 D5F80039 		ldr	r3, [r5, #2304]
 1159 005a 13F4004F 		tst	r3, #32768
 1160 005e 0ED1     		bne	.L105
 578:Drivers/STM32H7xx_HAL_Driver/Src/stm32h7xx_ll_usb.c ****                                    ((uint32_t)ep->type << 18) | (epnum << 22) |
 1161              		.loc 1 578 0
 1162 0060 D5F80069 		ldr	r6, [r5, #2304]
 1163 0064 8C68     		ldr	r4, [r1, #8]
 1164 0066 C4F30A03 		ubfx	r3, r4, #0, #11
 579:Drivers/STM32H7xx_HAL_Driver/Src/stm32h7xx_ll_usb.c ****                                    USB_OTG_DIEPCTL_SD0PID_SEVNFRM |
 1165              		.loc 1 579 0
 1166 006a CC78     		ldrb	r4, [r1, #3]	@ zero_extendqisi2
 578:Drivers/STM32H7xx_HAL_Driver/Src/stm32h7xx_ll_usb.c ****                                    ((uint32_t)ep->type << 18) | (epnum << 22) |
 1167              		.loc 1 578 0
 1168 006c 43EA8443 		orr	r3, r3, r4, lsl #18
 579:Drivers/STM32H7xx_HAL_Driver/Src/stm32h7xx_ll_usb.c ****                                    USB_OTG_DIEPCTL_SD0PID_SEVNFRM |
 1169              		.loc 1 579 0
 1170 0070 43EA8253 		orr	r3, r3, r2, lsl #22
 578:Drivers/STM32H7xx_HAL_Driver/Src/stm32h7xx_ll_usb.c ****                                    ((uint32_t)ep->type << 18) | (epnum << 22) |
 1171              		.loc 1 578 0
 1172 0074 3343     		orrs	r3, r3, r6
 1173 0076 084C     		ldr	r4, .L110
 1174 0078 1C43     		orrs	r4, r4, r3
 1175 007a C5F80049 		str	r4, [r5, #2304]
 1176              	.L105:
 584:Drivers/STM32H7xx_HAL_Driver/Src/stm32h7xx_ll_usb.c ****   }
 1177              		.loc 1 584 0
 1178 007e D0F83C28 		ldr	r2, [r0, #2108]
 1179              	.LVL114:
 1180 0082 0B78     		ldrb	r3, [r1]	@ zero_extendqisi2
 1181 0084 03F00F01 		and	r1, r3, #15
 1182              	.LVL115:
 1183 0088 0123     		movs	r3, #1
 1184 008a 8B40     		lsls	r3, r3, r1
 1185 008c 9BB2     		uxth	r3, r3
 1186 008e 1343     		orrs	r3, r3, r2
 1187 0090 C0F83C38 		str	r3, [r0, #2108]
 1188 0094 DAE7     		b	.L106
 1189              	.L111:
 1190 0096 00BF     		.align	2
 1191              	.L110:
 1192 0098 00800010 		.word	268468224
 1193              		.cfi_endproc
 1194              	.LFE354:
 1196              		.section	.text.USB_DeactivateEndpoint,"ax",%progbits
 1197              		.align	1
 1198              		.global	USB_DeactivateEndpoint
 1199              		.syntax unified
 1200              		.thumb
 1201              		.thumb_func
 1202              		.fpu fpv5-d16
ARM GAS  /tmp/ccCJnE45.s 			page 48


 1204              	USB_DeactivateEndpoint:
 1205              	.LFB355:
 608:Drivers/STM32H7xx_HAL_Driver/Src/stm32h7xx_ll_usb.c ****   uint32_t USBx_BASE = (uint32_t)USBx;
 1206              		.loc 1 608 0
 1207              		.cfi_startproc
 1208              		@ args = 0, pretend = 0, frame = 0
 1209              		@ frame_needed = 0, uses_anonymous_args = 0
 1210              		@ link register save eliminated.
 1211              	.LVL116:
 1212 0000 30B4     		push	{r4, r5}
 1213              	.LCFI17:
 1214              		.cfi_def_cfa_offset 8
 1215              		.cfi_offset 4, -8
 1216              		.cfi_offset 5, -4
 1217              	.LVL117:
 610:Drivers/STM32H7xx_HAL_Driver/Src/stm32h7xx_ll_usb.c **** 
 1218              		.loc 1 610 0
 1219 0002 0B78     		ldrb	r3, [r1]	@ zero_extendqisi2
 1220              	.LVL118:
 613:Drivers/STM32H7xx_HAL_Driver/Src/stm32h7xx_ll_usb.c ****   {
 1221              		.loc 1 613 0
 1222 0004 4A78     		ldrb	r2, [r1, #1]	@ zero_extendqisi2
 1223 0006 012A     		cmp	r2, #1
 1224 0008 24D0     		beq	.L118
 631:Drivers/STM32H7xx_HAL_Driver/Src/stm32h7xx_ll_usb.c ****     {
 1225              		.loc 1 631 0
 1226 000a 00EB4313 		add	r3, r0, r3, lsl #5
 1227              	.LVL119:
 1228 000e D3F8002B 		ldr	r2, [r3, #2816]
 1229 0012 002A     		cmp	r2, #0
 1230 0014 50DB     		blt	.L119
 1231              	.LVL120:
 1232              	.L116:
 637:Drivers/STM32H7xx_HAL_Driver/Src/stm32h7xx_ll_usb.c ****     USBx_DEVICE->DAINTMSK &= ~(USB_OTG_DAINTMSK_OEPM & ((uint32_t)(1UL << (ep->num & EP_ADDR_MSK)) 
 1233              		.loc 1 637 0
 1234 0016 D0F83C58 		ldr	r5, [r0, #2108]
 1235 001a 0A78     		ldrb	r2, [r1]	@ zero_extendqisi2
 1236 001c 02F00F02 		and	r2, r2, #15
 1237 0020 0124     		movs	r4, #1
 1238 0022 04FA02F2 		lsl	r2, r4, r2
 1239 0026 25EA0242 		bic	r2, r5, r2, lsl #16
 1240 002a C0F83C28 		str	r2, [r0, #2108]
 638:Drivers/STM32H7xx_HAL_Driver/Src/stm32h7xx_ll_usb.c ****     USBx_OUTEP(epnum)->DOEPCTL &= ~(USB_OTG_DOEPCTL_USBAEP |
 1241              		.loc 1 638 0
 1242 002e D0F81C28 		ldr	r2, [r0, #2076]
 1243 0032 0978     		ldrb	r1, [r1]	@ zero_extendqisi2
 1244              	.LVL121:
 1245 0034 01F00F01 		and	r1, r1, #15
 1246 0038 8C40     		lsls	r4, r4, r1
 1247 003a 22EA0444 		bic	r4, r2, r4, lsl #16
 1248 003e C0F81C48 		str	r4, [r0, #2076]
 639:Drivers/STM32H7xx_HAL_Driver/Src/stm32h7xx_ll_usb.c ****                                     USB_OTG_DOEPCTL_MPSIZ |
 1249              		.loc 1 639 0
 1250 0042 D3F8001B 		ldr	r1, [r3, #2816]
 1251 0046 234A     		ldr	r2, .L121
 1252 0048 0A40     		ands	r2, r2, r1
 1253 004a C3F8002B 		str	r2, [r3, #2816]
ARM GAS  /tmp/ccCJnE45.s 			page 49


 1254              	.L115:
 646:Drivers/STM32H7xx_HAL_Driver/Src/stm32h7xx_ll_usb.c **** 
 1255              		.loc 1 646 0
 1256 004e 0020     		movs	r0, #0
 1257              	.LVL122:
 1258 0050 30BC     		pop	{r4, r5}
 1259              	.LCFI18:
 1260              		.cfi_remember_state
 1261              		.cfi_restore 5
 1262              		.cfi_restore 4
 1263              		.cfi_def_cfa_offset 0
 1264 0052 7047     		bx	lr
 1265              	.LVL123:
 1266              	.L118:
 1267              	.LCFI19:
 1268              		.cfi_restore_state
 615:Drivers/STM32H7xx_HAL_Driver/Src/stm32h7xx_ll_usb.c ****     {
 1269              		.loc 1 615 0
 1270 0054 00EB4313 		add	r3, r0, r3, lsl #5
 1271              	.LVL124:
 1272 0058 D3F80029 		ldr	r2, [r3, #2304]
 1273 005c 002A     		cmp	r2, #0
 1274 005e 1EDB     		blt	.L120
 1275              	.LVL125:
 1276              	.L114:
 621:Drivers/STM32H7xx_HAL_Driver/Src/stm32h7xx_ll_usb.c ****     USBx_DEVICE->DAINTMSK &= ~(USB_OTG_DAINTMSK_IEPM & (uint32_t)(1UL << (ep->num & EP_ADDR_MSK)));
 1277              		.loc 1 621 0
 1278 0060 D0F83C58 		ldr	r5, [r0, #2108]
 1279 0064 0A78     		ldrb	r2, [r1]	@ zero_extendqisi2
 1280 0066 02F00F02 		and	r2, r2, #15
 1281 006a 0124     		movs	r4, #1
 1282 006c 04FA02F2 		lsl	r2, r4, r2
 1283 0070 92B2     		uxth	r2, r2
 1284 0072 25EA0202 		bic	r2, r5, r2
 1285 0076 C0F83C28 		str	r2, [r0, #2108]
 622:Drivers/STM32H7xx_HAL_Driver/Src/stm32h7xx_ll_usb.c ****     USBx_INEP(epnum)->DIEPCTL &= ~(USB_OTG_DIEPCTL_USBAEP |
 1286              		.loc 1 622 0
 1287 007a D0F81C28 		ldr	r2, [r0, #2076]
 1288 007e 0978     		ldrb	r1, [r1]	@ zero_extendqisi2
 1289              	.LVL126:
 1290 0080 01F00F01 		and	r1, r1, #15
 1291 0084 8C40     		lsls	r4, r4, r1
 1292 0086 A4B2     		uxth	r4, r4
 1293 0088 22EA0404 		bic	r4, r2, r4
 1294 008c C0F81C48 		str	r4, [r0, #2076]
 623:Drivers/STM32H7xx_HAL_Driver/Src/stm32h7xx_ll_usb.c ****                                    USB_OTG_DIEPCTL_MPSIZ |
 1295              		.loc 1 623 0
 1296 0090 D3F80019 		ldr	r1, [r3, #2304]
 1297 0094 104A     		ldr	r2, .L121+4
 1298 0096 0A40     		ands	r2, r2, r1
 1299 0098 C3F80029 		str	r2, [r3, #2304]
 1300 009c D7E7     		b	.L115
 1301              	.LVL127:
 1302              	.L120:
 617:Drivers/STM32H7xx_HAL_Driver/Src/stm32h7xx_ll_usb.c ****       USBx_INEP(epnum)->DIEPCTL |= USB_OTG_DIEPCTL_EPDIS;
 1303              		.loc 1 617 0
 1304 009e D3F80029 		ldr	r2, [r3, #2304]
ARM GAS  /tmp/ccCJnE45.s 			page 50


 1305 00a2 42F00062 		orr	r2, r2, #134217728
 1306 00a6 C3F80029 		str	r2, [r3, #2304]
 1307              	.LVL128:
 618:Drivers/STM32H7xx_HAL_Driver/Src/stm32h7xx_ll_usb.c ****     }
 1308              		.loc 1 618 0
 1309 00aa D3F80029 		ldr	r2, [r3, #2304]
 1310 00ae 42F08042 		orr	r2, r2, #1073741824
 1311 00b2 C3F80029 		str	r2, [r3, #2304]
 1312 00b6 D3E7     		b	.L114
 1313              	.LVL129:
 1314              	.L119:
 633:Drivers/STM32H7xx_HAL_Driver/Src/stm32h7xx_ll_usb.c ****       USBx_OUTEP(epnum)->DOEPCTL |= USB_OTG_DOEPCTL_EPDIS;
 1315              		.loc 1 633 0
 1316 00b8 D3F8002B 		ldr	r2, [r3, #2816]
 1317 00bc 42F00062 		orr	r2, r2, #134217728
 1318 00c0 C3F8002B 		str	r2, [r3, #2816]
 1319              	.LVL130:
 634:Drivers/STM32H7xx_HAL_Driver/Src/stm32h7xx_ll_usb.c ****     }
 1320              		.loc 1 634 0
 1321 00c4 D3F8002B 		ldr	r2, [r3, #2816]
 1322 00c8 42F08042 		orr	r2, r2, #1073741824
 1323 00cc C3F8002B 		str	r2, [r3, #2816]
 1324 00d0 A1E7     		b	.L116
 1325              	.L122:
 1326 00d2 00BF     		.align	2
 1327              	.L121:
 1328 00d4 0078F3EF 		.word	-269256704
 1329 00d8 007833EC 		.word	-332171264
 1330              		.cfi_endproc
 1331              	.LFE355:
 1333              		.section	.text.USB_DeactivateDedicatedEndpoint,"ax",%progbits
 1334              		.align	1
 1335              		.global	USB_DeactivateDedicatedEndpoint
 1336              		.syntax unified
 1337              		.thumb
 1338              		.thumb_func
 1339              		.fpu fpv5-d16
 1341              	USB_DeactivateDedicatedEndpoint:
 1342              	.LFB356:
 655:Drivers/STM32H7xx_HAL_Driver/Src/stm32h7xx_ll_usb.c ****   uint32_t USBx_BASE = (uint32_t)USBx;
 1343              		.loc 1 655 0
 1344              		.cfi_startproc
 1345              		@ args = 0, pretend = 0, frame = 0
 1346              		@ frame_needed = 0, uses_anonymous_args = 0
 1347              		@ link register save eliminated.
 1348              	.LVL131:
 657:Drivers/STM32H7xx_HAL_Driver/Src/stm32h7xx_ll_usb.c **** 
 1349              		.loc 1 657 0
 1350 0000 0B78     		ldrb	r3, [r1]	@ zero_extendqisi2
 1351              	.LVL132:
 660:Drivers/STM32H7xx_HAL_Driver/Src/stm32h7xx_ll_usb.c ****   {
 1352              		.loc 1 660 0
 1353 0002 4A78     		ldrb	r2, [r1, #1]	@ zero_extendqisi2
 1354 0004 012A     		cmp	r2, #1
 1355 0006 18D0     		beq	.L128
 673:Drivers/STM32H7xx_HAL_Driver/Src/stm32h7xx_ll_usb.c ****     {
 1356              		.loc 1 673 0
ARM GAS  /tmp/ccCJnE45.s 			page 51


 1357 0008 00EB4313 		add	r3, r0, r3, lsl #5
 1358              	.LVL133:
 1359 000c D3F8002B 		ldr	r2, [r3, #2816]
 1360 0010 002A     		cmp	r2, #0
 1361 0012 38DB     		blt	.L129
 1362              	.LVL134:
 1363              	.L127:
 679:Drivers/STM32H7xx_HAL_Driver/Src/stm32h7xx_ll_usb.c ****     USBx_DEVICE->DAINTMSK &= ~(USB_OTG_DAINTMSK_OEPM & ((uint32_t)(1UL << (ep->num & EP_ADDR_MSK)) 
 1364              		.loc 1 679 0
 1365 0014 D3F8002B 		ldr	r2, [r3, #2816]
 1366 0018 22F40042 		bic	r2, r2, #32768
 1367 001c C3F8002B 		str	r2, [r3, #2816]
 680:Drivers/STM32H7xx_HAL_Driver/Src/stm32h7xx_ll_usb.c ****   }
 1368              		.loc 1 680 0
 1369 0020 D0F81C38 		ldr	r3, [r0, #2076]
 1370 0024 0A78     		ldrb	r2, [r1]	@ zero_extendqisi2
 1371 0026 02F00F01 		and	r1, r2, #15
 1372              	.LVL135:
 1373 002a 0122     		movs	r2, #1
 1374 002c 8A40     		lsls	r2, r2, r1
 1375 002e 23EA0243 		bic	r3, r3, r2, lsl #16
 1376 0032 C0F81C38 		str	r3, [r0, #2076]
 1377              	.L126:
 684:Drivers/STM32H7xx_HAL_Driver/Src/stm32h7xx_ll_usb.c **** 
 1378              		.loc 1 684 0
 1379 0036 0020     		movs	r0, #0
 1380              	.LVL136:
 1381 0038 7047     		bx	lr
 1382              	.LVL137:
 1383              	.L128:
 662:Drivers/STM32H7xx_HAL_Driver/Src/stm32h7xx_ll_usb.c ****     {
 1384              		.loc 1 662 0
 1385 003a 00EB4313 		add	r3, r0, r3, lsl #5
 1386              	.LVL138:
 1387 003e D3F80029 		ldr	r2, [r3, #2304]
 1388 0042 002A     		cmp	r2, #0
 1389 0044 12DB     		blt	.L130
 1390              	.LVL139:
 1391              	.L125:
 668:Drivers/STM32H7xx_HAL_Driver/Src/stm32h7xx_ll_usb.c ****     USBx_DEVICE->DAINTMSK &= ~(USB_OTG_DAINTMSK_IEPM & (uint32_t)(1UL << (ep->num & EP_ADDR_MSK)));
 1392              		.loc 1 668 0
 1393 0046 D3F80029 		ldr	r2, [r3, #2304]
 1394 004a 22F40042 		bic	r2, r2, #32768
 1395 004e C3F80029 		str	r2, [r3, #2304]
 669:Drivers/STM32H7xx_HAL_Driver/Src/stm32h7xx_ll_usb.c ****   }
 1396              		.loc 1 669 0
 1397 0052 D0F81C28 		ldr	r2, [r0, #2076]
 1398 0056 0B78     		ldrb	r3, [r1]	@ zero_extendqisi2
 1399 0058 03F00F01 		and	r1, r3, #15
 1400              	.LVL140:
 1401 005c 0123     		movs	r3, #1
 1402 005e 8B40     		lsls	r3, r3, r1
 1403 0060 9BB2     		uxth	r3, r3
 1404 0062 22EA0303 		bic	r3, r2, r3
 1405 0066 C0F81C38 		str	r3, [r0, #2076]
 1406 006a E4E7     		b	.L126
 1407              	.LVL141:
ARM GAS  /tmp/ccCJnE45.s 			page 52


 1408              	.L130:
 664:Drivers/STM32H7xx_HAL_Driver/Src/stm32h7xx_ll_usb.c ****       USBx_INEP(epnum)->DIEPCTL  |= USB_OTG_DIEPCTL_EPDIS;
 1409              		.loc 1 664 0
 1410 006c D3F80029 		ldr	r2, [r3, #2304]
 1411 0070 42F00062 		orr	r2, r2, #134217728
 1412 0074 C3F80029 		str	r2, [r3, #2304]
 1413              	.LVL142:
 665:Drivers/STM32H7xx_HAL_Driver/Src/stm32h7xx_ll_usb.c ****     }
 1414              		.loc 1 665 0
 1415 0078 D3F80029 		ldr	r2, [r3, #2304]
 1416 007c 42F08042 		orr	r2, r2, #1073741824
 1417 0080 C3F80029 		str	r2, [r3, #2304]
 1418 0084 DFE7     		b	.L125
 1419              	.LVL143:
 1420              	.L129:
 675:Drivers/STM32H7xx_HAL_Driver/Src/stm32h7xx_ll_usb.c ****       USBx_OUTEP(epnum)->DOEPCTL  |= USB_OTG_DOEPCTL_EPDIS;
 1421              		.loc 1 675 0
 1422 0086 D3F8002B 		ldr	r2, [r3, #2816]
 1423 008a 42F00062 		orr	r2, r2, #134217728
 1424 008e C3F8002B 		str	r2, [r3, #2816]
 1425              	.LVL144:
 676:Drivers/STM32H7xx_HAL_Driver/Src/stm32h7xx_ll_usb.c ****     }
 1426              		.loc 1 676 0
 1427 0092 D3F8002B 		ldr	r2, [r3, #2816]
 1428 0096 42F08042 		orr	r2, r2, #1073741824
 1429 009a C3F8002B 		str	r2, [r3, #2816]
 1430 009e B9E7     		b	.L127
 1431              		.cfi_endproc
 1432              	.LFE356:
 1434              		.section	.text.USB_EP0StartXfer,"ax",%progbits
 1435              		.align	1
 1436              		.global	USB_EP0StartXfer
 1437              		.syntax unified
 1438              		.thumb
 1439              		.thumb_func
 1440              		.fpu fpv5-d16
 1442              	USB_EP0StartXfer:
 1443              	.LFB358:
 839:Drivers/STM32H7xx_HAL_Driver/Src/stm32h7xx_ll_usb.c ****   uint32_t USBx_BASE = (uint32_t)USBx;
 1444              		.loc 1 839 0
 1445              		.cfi_startproc
 1446              		@ args = 0, pretend = 0, frame = 0
 1447              		@ frame_needed = 0, uses_anonymous_args = 0
 1448              		@ link register save eliminated.
 1449              	.LVL145:
 1450 0000 70B4     		push	{r4, r5, r6}
 1451              	.LCFI20:
 1452              		.cfi_def_cfa_offset 12
 1453              		.cfi_offset 4, -12
 1454              		.cfi_offset 5, -8
 1455              		.cfi_offset 6, -4
 1456              	.LVL146:
 841:Drivers/STM32H7xx_HAL_Driver/Src/stm32h7xx_ll_usb.c **** 
 1457              		.loc 1 841 0
 1458 0002 0B78     		ldrb	r3, [r1]	@ zero_extendqisi2
 1459              	.LVL147:
 844:Drivers/STM32H7xx_HAL_Driver/Src/stm32h7xx_ll_usb.c ****   {
ARM GAS  /tmp/ccCJnE45.s 			page 53


 1460              		.loc 1 844 0
 1461 0004 4C78     		ldrb	r4, [r1, #1]	@ zero_extendqisi2
 1462 0006 012C     		cmp	r4, #1
 1463 0008 24D0     		beq	.L142
 899:Drivers/STM32H7xx_HAL_Driver/Src/stm32h7xx_ll_usb.c ****     USBx_OUTEP(epnum)->DOEPTSIZ &= ~(USB_OTG_DOEPTSIZ_PKTCNT);
 1464              		.loc 1 899 0
 1465 000a 00EB4310 		add	r0, r0, r3, lsl #5
 1466              	.LVL148:
 1467 000e 00F53063 		add	r3, r0, #2816
 1468              	.LVL149:
 1469 0012 1D69     		ldr	r5, [r3, #16]
 1470 0014 3E4C     		ldr	r4, .L145
 1471 0016 2C40     		ands	r4, r4, r5
 1472 0018 1C61     		str	r4, [r3, #16]
 1473              	.LVL150:
 900:Drivers/STM32H7xx_HAL_Driver/Src/stm32h7xx_ll_usb.c **** 
 1474              		.loc 1 900 0
 1475 001a 1D69     		ldr	r5, [r3, #16]
 1476 001c 3D4C     		ldr	r4, .L145+4
 1477 001e 2C40     		ands	r4, r4, r5
 1478 0020 1C61     		str	r4, [r3, #16]
 902:Drivers/STM32H7xx_HAL_Driver/Src/stm32h7xx_ll_usb.c ****     {
 1479              		.loc 1 902 0
 1480 0022 4C69     		ldr	r4, [r1, #20]
 1481 0024 0CB1     		cbz	r4, .L139
 904:Drivers/STM32H7xx_HAL_Driver/Src/stm32h7xx_ll_usb.c ****     }
 1482              		.loc 1 904 0
 1483 0026 8C68     		ldr	r4, [r1, #8]
 1484 0028 4C61     		str	r4, [r1, #20]
 1485              	.L139:
 907:Drivers/STM32H7xx_HAL_Driver/Src/stm32h7xx_ll_usb.c ****     USBx_OUTEP(epnum)->DOEPTSIZ |= (USB_OTG_DOEPTSIZ_XFRSIZ & (ep->maxpacket));
 1486              		.loc 1 907 0
 1487 002a 1C69     		ldr	r4, [r3, #16]
 1488 002c 44F40024 		orr	r4, r4, #524288
 1489 0030 1C61     		str	r4, [r3, #16]
 908:Drivers/STM32H7xx_HAL_Driver/Src/stm32h7xx_ll_usb.c **** 
 1490              		.loc 1 908 0
 1491 0032 1C69     		ldr	r4, [r3, #16]
 1492 0034 8D68     		ldr	r5, [r1, #8]
 1493 0036 C5F31205 		ubfx	r5, r5, #0, #19
 1494 003a 2C43     		orrs	r4, r4, r5
 1495 003c 1C61     		str	r4, [r3, #16]
 910:Drivers/STM32H7xx_HAL_Driver/Src/stm32h7xx_ll_usb.c ****     {
 1496              		.loc 1 910 0
 1497 003e 012A     		cmp	r2, #1
 1498 0040 61D0     		beq	.L143
 1499              	.LVL151:
 1500              	.L140:
 919:Drivers/STM32H7xx_HAL_Driver/Src/stm32h7xx_ll_usb.c ****   }
 1501              		.loc 1 919 0
 1502 0042 D0F8003B 		ldr	r3, [r0, #2816]
 1503 0046 43F00443 		orr	r3, r3, #-2080374784
 1504 004a C0F8003B 		str	r3, [r0, #2816]
 1505              	.LVL152:
 1506              	.L138:
 923:Drivers/STM32H7xx_HAL_Driver/Src/stm32h7xx_ll_usb.c **** 
 1507              		.loc 1 923 0
ARM GAS  /tmp/ccCJnE45.s 			page 54


 1508 004e 0020     		movs	r0, #0
 1509 0050 70BC     		pop	{r4, r5, r6}
 1510              	.LCFI21:
 1511              		.cfi_remember_state
 1512              		.cfi_restore 6
 1513              		.cfi_restore 5
 1514              		.cfi_restore 4
 1515              		.cfi_def_cfa_offset 0
 1516 0052 7047     		bx	lr
 1517              	.LVL153:
 1518              	.L142:
 1519              	.LCFI22:
 1520              		.cfi_restore_state
 847:Drivers/STM32H7xx_HAL_Driver/Src/stm32h7xx_ll_usb.c ****     {
 1521              		.loc 1 847 0
 1522 0054 4C69     		ldr	r4, [r1, #20]
 1523 0056 5CBB     		cbnz	r4, .L133
 849:Drivers/STM32H7xx_HAL_Driver/Src/stm32h7xx_ll_usb.c ****       USBx_INEP(epnum)->DIEPTSIZ |= (USB_OTG_DIEPTSIZ_PKTCNT & (1U << 19));
 1524              		.loc 1 849 0
 1525 0058 00EB4314 		add	r4, r0, r3, lsl #5
 1526 005c D4F81069 		ldr	r6, [r4, #2320]
 1527 0060 2C4D     		ldr	r5, .L145+4
 1528 0062 3540     		ands	r5, r5, r6
 1529 0064 C4F81059 		str	r5, [r4, #2320]
 850:Drivers/STM32H7xx_HAL_Driver/Src/stm32h7xx_ll_usb.c ****       USBx_INEP(epnum)->DIEPTSIZ &= ~(USB_OTG_DIEPTSIZ_XFRSIZ);
 1530              		.loc 1 850 0
 1531 0068 D4F81059 		ldr	r5, [r4, #2320]
 1532 006c 45F40025 		orr	r5, r5, #524288
 1533 0070 C4F81059 		str	r5, [r4, #2320]
 851:Drivers/STM32H7xx_HAL_Driver/Src/stm32h7xx_ll_usb.c ****     }
 1534              		.loc 1 851 0
 1535 0074 D4F81069 		ldr	r6, [r4, #2320]
 1536 0078 254D     		ldr	r5, .L145
 1537 007a 3540     		ands	r5, r5, r6
 1538 007c C4F81059 		str	r5, [r4, #2320]
 1539              	.L134:
 871:Drivers/STM32H7xx_HAL_Driver/Src/stm32h7xx_ll_usb.c ****     {
 1540              		.loc 1 871 0
 1541 0080 012A     		cmp	r2, #1
 1542 0082 31D0     		beq	.L144
 884:Drivers/STM32H7xx_HAL_Driver/Src/stm32h7xx_ll_usb.c **** 
 1543              		.loc 1 884 0
 1544 0084 00EB4313 		add	r3, r0, r3, lsl #5
 1545              	.LVL154:
 1546 0088 D3F80029 		ldr	r2, [r3, #2304]
 1547              	.LVL155:
 1548 008c 42F00442 		orr	r2, r2, #-2080374784
 1549 0090 C3F80029 		str	r2, [r3, #2304]
 887:Drivers/STM32H7xx_HAL_Driver/Src/stm32h7xx_ll_usb.c ****       {
 1550              		.loc 1 887 0
 1551 0094 4B69     		ldr	r3, [r1, #20]
 1552 0096 002B     		cmp	r3, #0
 1553 0098 D9D0     		beq	.L138
 889:Drivers/STM32H7xx_HAL_Driver/Src/stm32h7xx_ll_usb.c ****       }
 1554              		.loc 1 889 0
 1555 009a D0F83428 		ldr	r2, [r0, #2100]
 1556 009e 0978     		ldrb	r1, [r1]	@ zero_extendqisi2
ARM GAS  /tmp/ccCJnE45.s 			page 55


 1557              	.LVL156:
 1558 00a0 01F00F04 		and	r4, r1, #15
 1559 00a4 0121     		movs	r1, #1
 1560 00a6 A140     		lsls	r1, r1, r4
 1561 00a8 0A43     		orrs	r2, r2, r1
 1562 00aa C0F83428 		str	r2, [r0, #2100]
 1563 00ae CEE7     		b	.L138
 1564              	.LVL157:
 1565              	.L133:
 860:Drivers/STM32H7xx_HAL_Driver/Src/stm32h7xx_ll_usb.c ****       USBx_INEP(epnum)->DIEPTSIZ &= ~(USB_OTG_DIEPTSIZ_PKTCNT);
 1566              		.loc 1 860 0
 1567 00b0 00EB4314 		add	r4, r0, r3, lsl #5
 1568 00b4 04F51064 		add	r4, r4, #2304
 1569 00b8 2669     		ldr	r6, [r4, #16]
 1570 00ba 154D     		ldr	r5, .L145
 1571 00bc 3540     		ands	r5, r5, r6
 1572 00be 2561     		str	r5, [r4, #16]
 861:Drivers/STM32H7xx_HAL_Driver/Src/stm32h7xx_ll_usb.c **** 
 1573              		.loc 1 861 0
 1574 00c0 2669     		ldr	r6, [r4, #16]
 1575 00c2 144D     		ldr	r5, .L145+4
 1576 00c4 3540     		ands	r5, r5, r6
 1577 00c6 2561     		str	r5, [r4, #16]
 863:Drivers/STM32H7xx_HAL_Driver/Src/stm32h7xx_ll_usb.c ****       {
 1578              		.loc 1 863 0
 1579 00c8 4E69     		ldr	r6, [r1, #20]
 1580 00ca 8D68     		ldr	r5, [r1, #8]
 1581 00cc AE42     		cmp	r6, r5
 1582 00ce 00D9     		bls	.L135
 865:Drivers/STM32H7xx_HAL_Driver/Src/stm32h7xx_ll_usb.c ****       }
 1583              		.loc 1 865 0
 1584 00d0 4D61     		str	r5, [r1, #20]
 1585              	.L135:
 867:Drivers/STM32H7xx_HAL_Driver/Src/stm32h7xx_ll_usb.c ****       USBx_INEP(epnum)->DIEPTSIZ |= (USB_OTG_DIEPTSIZ_XFRSIZ & ep->xfer_len);
 1586              		.loc 1 867 0
 1587 00d2 2569     		ldr	r5, [r4, #16]
 1588 00d4 45F40025 		orr	r5, r5, #524288
 1589 00d8 2561     		str	r5, [r4, #16]
 868:Drivers/STM32H7xx_HAL_Driver/Src/stm32h7xx_ll_usb.c ****     }
 1590              		.loc 1 868 0
 1591 00da 2569     		ldr	r5, [r4, #16]
 1592 00dc 4E69     		ldr	r6, [r1, #20]
 1593 00de C6F31206 		ubfx	r6, r6, #0, #19
 1594 00e2 3543     		orrs	r5, r5, r6
 1595 00e4 2561     		str	r5, [r4, #16]
 1596 00e6 CBE7     		b	.L134
 1597              	.L144:
 873:Drivers/STM32H7xx_HAL_Driver/Src/stm32h7xx_ll_usb.c ****       {
 1598              		.loc 1 873 0
 1599 00e8 0A69     		ldr	r2, [r1, #16]
 1600              	.LVL158:
 1601 00ea 1AB1     		cbz	r2, .L137
 875:Drivers/STM32H7xx_HAL_Driver/Src/stm32h7xx_ll_usb.c ****       }
 1602              		.loc 1 875 0
 1603 00ec 00EB4311 		add	r1, r0, r3, lsl #5
 1604              	.LVL159:
 1605 00f0 C1F81429 		str	r2, [r1, #2324]
ARM GAS  /tmp/ccCJnE45.s 			page 56


 1606              	.L137:
 879:Drivers/STM32H7xx_HAL_Driver/Src/stm32h7xx_ll_usb.c ****     }
 1607              		.loc 1 879 0
 1608 00f4 00EB4310 		add	r0, r0, r3, lsl #5
 1609              	.LVL160:
 1610 00f8 D0F80029 		ldr	r2, [r0, #2304]
 1611 00fc 42F00442 		orr	r2, r2, #-2080374784
 1612 0100 C0F80029 		str	r2, [r0, #2304]
 1613 0104 A3E7     		b	.L138
 1614              	.LVL161:
 1615              	.L143:
 912:Drivers/STM32H7xx_HAL_Driver/Src/stm32h7xx_ll_usb.c ****       {
 1616              		.loc 1 912 0
 1617 0106 CA68     		ldr	r2, [r1, #12]
 1618              	.LVL162:
 1619 0108 002A     		cmp	r2, #0
 1620 010a 9AD0     		beq	.L140
 914:Drivers/STM32H7xx_HAL_Driver/Src/stm32h7xx_ll_usb.c ****       }
 1621              		.loc 1 914 0
 1622 010c 5A61     		str	r2, [r3, #20]
 1623 010e 98E7     		b	.L140
 1624              	.L146:
 1625              		.align	2
 1626              	.L145:
 1627 0110 0000F8FF 		.word	-524288
 1628 0114 FFFF07E0 		.word	-536346625
 1629              		.cfi_endproc
 1630              	.LFE358:
 1632              		.section	.text.USB_WritePacket,"ax",%progbits
 1633              		.align	1
 1634              		.global	USB_WritePacket
 1635              		.syntax unified
 1636              		.thumb
 1637              		.thumb_func
 1638              		.fpu fpv5-d16
 1640              	USB_WritePacket:
 1641              	.LFB359:
 939:Drivers/STM32H7xx_HAL_Driver/Src/stm32h7xx_ll_usb.c ****   uint32_t USBx_BASE = (uint32_t)USBx;
 1642              		.loc 1 939 0
 1643              		.cfi_startproc
 1644              		@ args = 4, pretend = 0, frame = 0
 1645              		@ frame_needed = 0, uses_anonymous_args = 0
 1646              		@ link register save eliminated.
 1647              	.LVL163:
 1648 0000 70B4     		push	{r4, r5, r6}
 1649              	.LCFI23:
 1650              		.cfi_def_cfa_offset 12
 1651              		.cfi_offset 4, -12
 1652              		.cfi_offset 5, -8
 1653              		.cfi_offset 6, -4
 1654 0002 9DF80C40 		ldrb	r4, [sp, #12]	@ zero_extendqisi2
 1655              	.LVL164:
 944:Drivers/STM32H7xx_HAL_Driver/Src/stm32h7xx_ll_usb.c ****   {
 1656              		.loc 1 944 0
 1657 0006 64B9     		cbnz	r4, .L148
 946:Drivers/STM32H7xx_HAL_Driver/Src/stm32h7xx_ll_usb.c ****     for (i = 0U; i < count32b; i++)
 1658              		.loc 1 946 0
ARM GAS  /tmp/ccCJnE45.s 			page 57


 1659 0008 0333     		adds	r3, r3, #3
 1660              	.LVL165:
 1661 000a 9D08     		lsrs	r5, r3, #2
 1662              	.LVL166:
 947:Drivers/STM32H7xx_HAL_Driver/Src/stm32h7xx_ll_usb.c ****     {
 1663              		.loc 1 947 0
 1664 000c 07E0     		b	.L149
 1665              	.LVL167:
 1666              	.L150:
 949:Drivers/STM32H7xx_HAL_Driver/Src/stm32h7xx_ll_usb.c ****       pSrc++;
 1667              		.loc 1 949 0 discriminator 3
 1668 000e 00EB0233 		add	r3, r0, r2, lsl #12
 1669 0012 03F58053 		add	r3, r3, #4096
 1670 0016 51F8046B 		ldr	r6, [r1], #4	@ unaligned
 1671              	.LVL168:
 1672 001a 1E60     		str	r6, [r3]
 1673              	.LVL169:
 947:Drivers/STM32H7xx_HAL_Driver/Src/stm32h7xx_ll_usb.c ****     {
 1674              		.loc 1 947 0 discriminator 3
 1675 001c 0134     		adds	r4, r4, #1
 1676              	.LVL170:
 1677              	.L149:
 947:Drivers/STM32H7xx_HAL_Driver/Src/stm32h7xx_ll_usb.c ****     {
 1678              		.loc 1 947 0 is_stmt 0 discriminator 1
 1679 001e AC42     		cmp	r4, r5
 1680 0020 F5D3     		bcc	.L150
 1681              	.LVL171:
 1682              	.L148:
 955:Drivers/STM32H7xx_HAL_Driver/Src/stm32h7xx_ll_usb.c **** 
 1683              		.loc 1 955 0 is_stmt 1
 1684 0022 0020     		movs	r0, #0
 1685              	.LVL172:
 1686 0024 70BC     		pop	{r4, r5, r6}
 1687              	.LCFI24:
 1688              		.cfi_restore 6
 1689              		.cfi_restore 5
 1690              		.cfi_restore 4
 1691              		.cfi_def_cfa_offset 0
 1692              	.LVL173:
 1693 0026 7047     		bx	lr
 1694              		.cfi_endproc
 1695              	.LFE359:
 1697              		.section	.text.USB_EPStartXfer,"ax",%progbits
 1698              		.align	1
 1699              		.global	USB_EPStartXfer
 1700              		.syntax unified
 1701              		.thumb
 1702              		.thumb_func
 1703              		.fpu fpv5-d16
 1705              	USB_EPStartXfer:
 1706              	.LFB357:
 697:Drivers/STM32H7xx_HAL_Driver/Src/stm32h7xx_ll_usb.c ****   uint32_t USBx_BASE = (uint32_t)USBx;
 1707              		.loc 1 697 0
 1708              		.cfi_startproc
 1709              		@ args = 0, pretend = 0, frame = 0
 1710              		@ frame_needed = 0, uses_anonymous_args = 0
 1711              	.LVL174:
ARM GAS  /tmp/ccCJnE45.s 			page 58


 1712 0000 F0B5     		push	{r4, r5, r6, r7, lr}
 1713              	.LCFI25:
 1714              		.cfi_def_cfa_offset 20
 1715              		.cfi_offset 4, -20
 1716              		.cfi_offset 5, -16
 1717              		.cfi_offset 6, -12
 1718              		.cfi_offset 7, -8
 1719              		.cfi_offset 14, -4
 1720 0002 83B0     		sub	sp, sp, #12
 1721              	.LCFI26:
 1722              		.cfi_def_cfa_offset 32
 1723              	.LVL175:
 699:Drivers/STM32H7xx_HAL_Driver/Src/stm32h7xx_ll_usb.c ****   uint16_t pktcnt;
 1724              		.loc 1 699 0
 1725 0004 0B78     		ldrb	r3, [r1]	@ zero_extendqisi2
 1726              	.LVL176:
 703:Drivers/STM32H7xx_HAL_Driver/Src/stm32h7xx_ll_usb.c ****   {
 1727              		.loc 1 703 0
 1728 0006 4C78     		ldrb	r4, [r1, #1]	@ zero_extendqisi2
 1729 0008 012C     		cmp	r4, #1
 1730 000a 29D0     		beq	.L170
 787:Drivers/STM32H7xx_HAL_Driver/Src/stm32h7xx_ll_usb.c ****     USBx_OUTEP(epnum)->DOEPTSIZ &= ~(USB_OTG_DOEPTSIZ_PKTCNT);
 1731              		.loc 1 787 0
 1732 000c 00EB4313 		add	r3, r0, r3, lsl #5
 1733              	.LVL177:
 1734 0010 03F53064 		add	r4, r3, #2816
 1735 0014 2669     		ldr	r6, [r4, #16]
 1736 0016 7D4D     		ldr	r5, .L175
 1737 0018 3540     		ands	r5, r5, r6
 1738 001a 2561     		str	r5, [r4, #16]
 1739              	.LVL178:
 788:Drivers/STM32H7xx_HAL_Driver/Src/stm32h7xx_ll_usb.c **** 
 1740              		.loc 1 788 0
 1741 001c 2669     		ldr	r6, [r4, #16]
 1742 001e 7C4D     		ldr	r5, .L175+4
 1743 0020 3540     		ands	r5, r5, r6
 1744 0022 2561     		str	r5, [r4, #16]
 790:Drivers/STM32H7xx_HAL_Driver/Src/stm32h7xx_ll_usb.c ****     {
 1745              		.loc 1 790 0
 1746 0024 4D69     		ldr	r5, [r1, #20]
 1747 0026 002D     		cmp	r5, #0
 1748 0028 40F0C180 		bne	.L164
 792:Drivers/STM32H7xx_HAL_Driver/Src/stm32h7xx_ll_usb.c ****       USBx_OUTEP(epnum)->DOEPTSIZ |= (USB_OTG_DOEPTSIZ_PKTCNT & (1U << 19));
 1749              		.loc 1 792 0
 1750 002c 2569     		ldr	r5, [r4, #16]
 1751 002e 8E68     		ldr	r6, [r1, #8]
 1752 0030 C6F31206 		ubfx	r6, r6, #0, #19
 1753 0034 3543     		orrs	r5, r5, r6
 1754 0036 2561     		str	r5, [r4, #16]
 793:Drivers/STM32H7xx_HAL_Driver/Src/stm32h7xx_ll_usb.c ****     }
 1755              		.loc 1 793 0
 1756 0038 2569     		ldr	r5, [r4, #16]
 1757 003a 45F40025 		orr	r5, r5, #524288
 1758 003e 2561     		str	r5, [r4, #16]
 1759              	.L165:
 802:Drivers/STM32H7xx_HAL_Driver/Src/stm32h7xx_ll_usb.c ****     {
 1760              		.loc 1 802 0
ARM GAS  /tmp/ccCJnE45.s 			page 59


 1761 0040 012A     		cmp	r2, #1
 1762 0042 00F0C980 		beq	.L171
 1763              	.LVL179:
 1764              	.L166:
 810:Drivers/STM32H7xx_HAL_Driver/Src/stm32h7xx_ll_usb.c ****     {
 1765              		.loc 1 810 0
 1766 0046 CA78     		ldrb	r2, [r1, #3]	@ zero_extendqisi2
 1767 0048 012A     		cmp	r2, #1
 1768 004a 00F0CB80 		beq	.L172
 1769              	.L167:
 822:Drivers/STM32H7xx_HAL_Driver/Src/stm32h7xx_ll_usb.c ****   }
 1770              		.loc 1 822 0
 1771 004e D3F8002B 		ldr	r2, [r3, #2816]
 1772 0052 42F00442 		orr	r2, r2, #-2080374784
 1773 0056 C3F8002B 		str	r2, [r3, #2816]
 1774              	.LVL180:
 1775              	.L160:
 826:Drivers/STM32H7xx_HAL_Driver/Src/stm32h7xx_ll_usb.c **** 
 1776              		.loc 1 826 0
 1777 005a 0020     		movs	r0, #0
 1778 005c 03B0     		add	sp, sp, #12
 1779              	.LCFI27:
 1780              		.cfi_remember_state
 1781              		.cfi_def_cfa_offset 20
 1782              		@ sp needed
 1783 005e F0BD     		pop	{r4, r5, r6, r7, pc}
 1784              	.LVL181:
 1785              	.L170:
 1786              	.LCFI28:
 1787              		.cfi_restore_state
 706:Drivers/STM32H7xx_HAL_Driver/Src/stm32h7xx_ll_usb.c ****     {
 1788              		.loc 1 706 0
 1789 0060 4C69     		ldr	r4, [r1, #20]
 1790 0062 74BB     		cbnz	r4, .L154
 708:Drivers/STM32H7xx_HAL_Driver/Src/stm32h7xx_ll_usb.c ****       USBx_INEP(epnum)->DIEPTSIZ |= (USB_OTG_DIEPTSIZ_PKTCNT & (1U << 19));
 1791              		.loc 1 708 0
 1792 0064 00EB4314 		add	r4, r0, r3, lsl #5
 1793 0068 D4F81069 		ldr	r6, [r4, #2320]
 1794 006c 684D     		ldr	r5, .L175+4
 1795 006e 3540     		ands	r5, r5, r6
 1796 0070 C4F81059 		str	r5, [r4, #2320]
 709:Drivers/STM32H7xx_HAL_Driver/Src/stm32h7xx_ll_usb.c ****       USBx_INEP(epnum)->DIEPTSIZ &= ~(USB_OTG_DIEPTSIZ_XFRSIZ);
 1797              		.loc 1 709 0
 1798 0074 D4F81059 		ldr	r5, [r4, #2320]
 1799 0078 45F40025 		orr	r5, r5, #524288
 1800 007c C4F81059 		str	r5, [r4, #2320]
 710:Drivers/STM32H7xx_HAL_Driver/Src/stm32h7xx_ll_usb.c ****     }
 1801              		.loc 1 710 0
 1802 0080 D4F81069 		ldr	r6, [r4, #2320]
 1803 0084 614D     		ldr	r5, .L175
 1804 0086 3540     		ands	r5, r5, r6
 1805 0088 C4F81059 		str	r5, [r4, #2320]
 1806              	.L155:
 731:Drivers/STM32H7xx_HAL_Driver/Src/stm32h7xx_ll_usb.c ****     {
 1807              		.loc 1 731 0
 1808 008c 012A     		cmp	r2, #1
 1809 008e 4AD0     		beq	.L173
ARM GAS  /tmp/ccCJnE45.s 			page 60


 756:Drivers/STM32H7xx_HAL_Driver/Src/stm32h7xx_ll_usb.c **** 
 1810              		.loc 1 756 0
 1811 0090 00EB4313 		add	r3, r0, r3, lsl #5
 1812              	.LVL182:
 1813 0094 D3F80049 		ldr	r4, [r3, #2304]
 1814 0098 44F00444 		orr	r4, r4, #-2080374784
 1815 009c C3F80049 		str	r4, [r3, #2304]
 758:Drivers/STM32H7xx_HAL_Driver/Src/stm32h7xx_ll_usb.c ****       {
 1816              		.loc 1 758 0
 1817 00a0 CC78     		ldrb	r4, [r1, #3]	@ zero_extendqisi2
 1818 00a2 012C     		cmp	r4, #1
 1819 00a4 68D0     		beq	.L161
 761:Drivers/STM32H7xx_HAL_Driver/Src/stm32h7xx_ll_usb.c ****         {
 1820              		.loc 1 761 0
 1821 00a6 4B69     		ldr	r3, [r1, #20]
 1822 00a8 002B     		cmp	r3, #0
 1823 00aa D6D0     		beq	.L160
 763:Drivers/STM32H7xx_HAL_Driver/Src/stm32h7xx_ll_usb.c ****         }
 1824              		.loc 1 763 0
 1825 00ac D0F83428 		ldr	r2, [r0, #2100]
 1826              	.LVL183:
 1827 00b0 0978     		ldrb	r1, [r1]	@ zero_extendqisi2
 1828              	.LVL184:
 1829 00b2 01F00F04 		and	r4, r1, #15
 1830 00b6 0121     		movs	r1, #1
 1831 00b8 A140     		lsls	r1, r1, r4
 1832 00ba 0A43     		orrs	r2, r2, r1
 1833 00bc C0F83428 		str	r2, [r0, #2100]
 1834 00c0 CBE7     		b	.L160
 1835              	.LVL185:
 1836              	.L154:
 719:Drivers/STM32H7xx_HAL_Driver/Src/stm32h7xx_ll_usb.c ****       USBx_INEP(epnum)->DIEPTSIZ &= ~(USB_OTG_DIEPTSIZ_PKTCNT);
 1837              		.loc 1 719 0
 1838 00c2 00EB4314 		add	r4, r0, r3, lsl #5
 1839 00c6 D4F81069 		ldr	r6, [r4, #2320]
 1840 00ca 504D     		ldr	r5, .L175
 1841 00cc 3540     		ands	r5, r5, r6
 1842 00ce C4F81059 		str	r5, [r4, #2320]
 720:Drivers/STM32H7xx_HAL_Driver/Src/stm32h7xx_ll_usb.c ****       USBx_INEP(epnum)->DIEPTSIZ |= (USB_OTG_DIEPTSIZ_PKTCNT & (((ep->xfer_len + ep->maxpacket - 1U
 1843              		.loc 1 720 0
 1844 00d2 D4F81069 		ldr	r6, [r4, #2320]
 1845 00d6 4E4D     		ldr	r5, .L175+4
 1846 00d8 3540     		ands	r5, r5, r6
 1847 00da C4F81059 		str	r5, [r4, #2320]
 721:Drivers/STM32H7xx_HAL_Driver/Src/stm32h7xx_ll_usb.c ****       USBx_INEP(epnum)->DIEPTSIZ |= (USB_OTG_DIEPTSIZ_XFRSIZ & ep->xfer_len);
 1848              		.loc 1 721 0
 1849 00de D4F81069 		ldr	r6, [r4, #2320]
 1850 00e2 4D69     		ldr	r5, [r1, #20]
 1851 00e4 8F68     		ldr	r7, [r1, #8]
 1852 00e6 3D44     		add	r5, r5, r7
 1853 00e8 013D     		subs	r5, r5, #1
 1854 00ea B5FBF7F5 		udiv	r5, r5, r7
 1855 00ee 494F     		ldr	r7, .L175+8
 1856 00f0 07EAC545 		and	r5, r7, r5, lsl #19
 1857 00f4 3543     		orrs	r5, r5, r6
 1858 00f6 C4F81059 		str	r5, [r4, #2320]
 722:Drivers/STM32H7xx_HAL_Driver/Src/stm32h7xx_ll_usb.c **** 
ARM GAS  /tmp/ccCJnE45.s 			page 61


 1859              		.loc 1 722 0
 1860 00fa D4F81059 		ldr	r5, [r4, #2320]
 1861 00fe 4E69     		ldr	r6, [r1, #20]
 1862 0100 C6F31206 		ubfx	r6, r6, #0, #19
 1863 0104 3543     		orrs	r5, r5, r6
 1864 0106 C4F81059 		str	r5, [r4, #2320]
 719:Drivers/STM32H7xx_HAL_Driver/Src/stm32h7xx_ll_usb.c ****       USBx_INEP(epnum)->DIEPTSIZ &= ~(USB_OTG_DIEPTSIZ_PKTCNT);
 1865              		.loc 1 719 0
 1866 010a 04F51064 		add	r4, r4, #2304
 724:Drivers/STM32H7xx_HAL_Driver/Src/stm32h7xx_ll_usb.c ****       {
 1867              		.loc 1 724 0
 1868 010e CD78     		ldrb	r5, [r1, #3]	@ zero_extendqisi2
 1869 0110 012D     		cmp	r5, #1
 1870 0112 BBD1     		bne	.L155
 726:Drivers/STM32H7xx_HAL_Driver/Src/stm32h7xx_ll_usb.c ****         USBx_INEP(epnum)->DIEPTSIZ |= (USB_OTG_DIEPTSIZ_MULCNT & (1U << 29));
 1871              		.loc 1 726 0
 1872 0114 2569     		ldr	r5, [r4, #16]
 1873 0116 25F0C045 		bic	r5, r5, #1610612736
 1874 011a 2561     		str	r5, [r4, #16]
 727:Drivers/STM32H7xx_HAL_Driver/Src/stm32h7xx_ll_usb.c ****       }
 1875              		.loc 1 727 0
 1876 011c 2569     		ldr	r5, [r4, #16]
 1877 011e 45F00055 		orr	r5, r5, #536870912
 1878 0122 2561     		str	r5, [r4, #16]
 1879 0124 B2E7     		b	.L155
 1880              	.L173:
 733:Drivers/STM32H7xx_HAL_Driver/Src/stm32h7xx_ll_usb.c ****       {
 1881              		.loc 1 733 0
 1882 0126 0A69     		ldr	r2, [r1, #16]
 1883              	.LVL186:
 1884 0128 1AB1     		cbz	r2, .L157
 735:Drivers/STM32H7xx_HAL_Driver/Src/stm32h7xx_ll_usb.c ****       }
 1885              		.loc 1 735 0
 1886 012a 00EB4314 		add	r4, r0, r3, lsl #5
 1887 012e C4F81429 		str	r2, [r4, #2324]
 1888              	.L157:
 738:Drivers/STM32H7xx_HAL_Driver/Src/stm32h7xx_ll_usb.c ****       {
 1889              		.loc 1 738 0
 1890 0132 CA78     		ldrb	r2, [r1, #3]	@ zero_extendqisi2
 1891 0134 012A     		cmp	r2, #1
 1892 0136 08D0     		beq	.L174
 1893              	.LVL187:
 1894              	.L158:
 751:Drivers/STM32H7xx_HAL_Driver/Src/stm32h7xx_ll_usb.c ****     }
 1895              		.loc 1 751 0
 1896 0138 00EB4313 		add	r3, r0, r3, lsl #5
 1897              	.LVL188:
 1898 013c D3F80029 		ldr	r2, [r3, #2304]
 1899 0140 42F00442 		orr	r2, r2, #-2080374784
 1900 0144 C3F80029 		str	r2, [r3, #2304]
 1901 0148 87E7     		b	.L160
 1902              	.LVL189:
 1903              	.L174:
 740:Drivers/STM32H7xx_HAL_Driver/Src/stm32h7xx_ll_usb.c ****         {
 1904              		.loc 1 740 0
 1905 014a D0F80828 		ldr	r2, [r0, #2056]
 1906 014e 12F4807F 		tst	r2, #256
ARM GAS  /tmp/ccCJnE45.s 			page 62


 1907 0152 08D1     		bne	.L159
 742:Drivers/STM32H7xx_HAL_Driver/Src/stm32h7xx_ll_usb.c ****         }
 1908              		.loc 1 742 0
 1909 0154 00EB4311 		add	r1, r0, r3, lsl #5
 1910              	.LVL190:
 1911 0158 D1F80029 		ldr	r2, [r1, #2304]
 1912 015c 42F00052 		orr	r2, r2, #536870912
 1913 0160 C1F80029 		str	r2, [r1, #2304]
 1914 0164 E8E7     		b	.L158
 1915              	.LVL191:
 1916              	.L159:
 746:Drivers/STM32H7xx_HAL_Driver/Src/stm32h7xx_ll_usb.c ****         }
 1917              		.loc 1 746 0
 1918 0166 00EB4311 		add	r1, r0, r3, lsl #5
 1919              	.LVL192:
 1920 016a D1F80029 		ldr	r2, [r1, #2304]
 1921 016e 42F08052 		orr	r2, r2, #268435456
 1922 0172 C1F80029 		str	r2, [r1, #2304]
 1923 0176 DFE7     		b	.L158
 1924              	.LVL193:
 1925              	.L161:
 768:Drivers/STM32H7xx_HAL_Driver/Src/stm32h7xx_ll_usb.c ****         {
 1926              		.loc 1 768 0
 1927 0178 D0F80848 		ldr	r4, [r0, #2056]
 1928 017c 14F4807F 		tst	r4, #256
 1929 0180 0ED1     		bne	.L162
 770:Drivers/STM32H7xx_HAL_Driver/Src/stm32h7xx_ll_usb.c ****         }
 1930              		.loc 1 770 0
 1931 0182 D3F80049 		ldr	r4, [r3, #2304]
 1932 0186 44F00054 		orr	r4, r4, #536870912
 1933 018a C3F80049 		str	r4, [r3, #2304]
 1934              	.L163:
 1935 018e 1446     		mov	r4, r2
 1936 0190 0B46     		mov	r3, r1
 777:Drivers/STM32H7xx_HAL_Driver/Src/stm32h7xx_ll_usb.c ****       }
 1937              		.loc 1 777 0
 1938 0192 C968     		ldr	r1, [r1, #12]
 1939              	.LVL194:
 1940 0194 1A78     		ldrb	r2, [r3]	@ zero_extendqisi2
 1941              	.LVL195:
 1942 0196 9B8A     		ldrh	r3, [r3, #20]
 1943              	.LVL196:
 1944 0198 0094     		str	r4, [sp]
 1945 019a FFF7FEFF 		bl	USB_WritePacket
 1946              	.LVL197:
 1947 019e 5CE7     		b	.L160
 1948              	.LVL198:
 1949              	.L162:
 774:Drivers/STM32H7xx_HAL_Driver/Src/stm32h7xx_ll_usb.c ****         }
 1950              		.loc 1 774 0
 1951 01a0 D3F80049 		ldr	r4, [r3, #2304]
 1952 01a4 44F08054 		orr	r4, r4, #268435456
 1953 01a8 C3F80049 		str	r4, [r3, #2304]
 1954 01ac EFE7     		b	.L163
 1955              	.L164:
 797:Drivers/STM32H7xx_HAL_Driver/Src/stm32h7xx_ll_usb.c ****       USBx_OUTEP(epnum)->DOEPTSIZ |= USB_OTG_DOEPTSIZ_PKTCNT & ((uint32_t)pktcnt << 19);
 1956              		.loc 1 797 0
ARM GAS  /tmp/ccCJnE45.s 			page 63


 1957 01ae 8E68     		ldr	r6, [r1, #8]
 1958 01b0 3544     		add	r5, r5, r6
 1959 01b2 013D     		subs	r5, r5, #1
 1960 01b4 B5FBF6F5 		udiv	r5, r5, r6
 1961              	.LVL199:
 798:Drivers/STM32H7xx_HAL_Driver/Src/stm32h7xx_ll_usb.c ****       USBx_OUTEP(epnum)->DOEPTSIZ |= USB_OTG_DOEPTSIZ_XFRSIZ & (ep->maxpacket * pktcnt);
 1962              		.loc 1 798 0
 1963 01b8 2669     		ldr	r6, [r4, #16]
 1964 01ba 164F     		ldr	r7, .L175+8
 1965 01bc 07EAC547 		and	r7, r7, r5, lsl #19
 1966 01c0 3E43     		orrs	r6, r6, r7
 1967 01c2 2661     		str	r6, [r4, #16]
 799:Drivers/STM32H7xx_HAL_Driver/Src/stm32h7xx_ll_usb.c ****     }
 1968              		.loc 1 799 0
 1969 01c4 2769     		ldr	r7, [r4, #16]
 1970 01c6 8E68     		ldr	r6, [r1, #8]
 1971 01c8 ADB2     		uxth	r5, r5
 1972 01ca 06FB05F5 		mul	r5, r6, r5
 1973              	.LVL200:
 1974 01ce C5F31205 		ubfx	r5, r5, #0, #19
 1975 01d2 3D43     		orrs	r5, r5, r7
 1976 01d4 2561     		str	r5, [r4, #16]
 1977 01d6 33E7     		b	.L165
 1978              	.L171:
 804:Drivers/STM32H7xx_HAL_Driver/Src/stm32h7xx_ll_usb.c ****       {
 1979              		.loc 1 804 0
 1980 01d8 CA68     		ldr	r2, [r1, #12]
 1981              	.LVL201:
 1982 01da 002A     		cmp	r2, #0
 1983 01dc 3FF433AF 		beq	.L166
 806:Drivers/STM32H7xx_HAL_Driver/Src/stm32h7xx_ll_usb.c ****       }
 1984              		.loc 1 806 0
 1985 01e0 6261     		str	r2, [r4, #20]
 1986 01e2 30E7     		b	.L166
 1987              	.L172:
 812:Drivers/STM32H7xx_HAL_Driver/Src/stm32h7xx_ll_usb.c ****       {
 1988              		.loc 1 812 0
 1989 01e4 D0F80828 		ldr	r2, [r0, #2056]
 1990 01e8 12F4807F 		tst	r2, #256
 1991 01ec 06D1     		bne	.L168
 814:Drivers/STM32H7xx_HAL_Driver/Src/stm32h7xx_ll_usb.c ****       }
 1992              		.loc 1 814 0
 1993 01ee D3F8002B 		ldr	r2, [r3, #2816]
 1994 01f2 42F00052 		orr	r2, r2, #536870912
 1995 01f6 C3F8002B 		str	r2, [r3, #2816]
 1996 01fa 28E7     		b	.L167
 1997              	.L168:
 818:Drivers/STM32H7xx_HAL_Driver/Src/stm32h7xx_ll_usb.c ****       }
 1998              		.loc 1 818 0
 1999 01fc D3F8002B 		ldr	r2, [r3, #2816]
 2000 0200 42F08052 		orr	r2, r2, #268435456
 2001 0204 C3F8002B 		str	r2, [r3, #2816]
 2002 0208 21E7     		b	.L167
 2003              	.L176:
 2004 020a 00BF     		.align	2
 2005              	.L175:
 2006 020c 0000F8FF 		.word	-524288
ARM GAS  /tmp/ccCJnE45.s 			page 64


 2007 0210 FFFF07E0 		.word	-536346625
 2008 0214 0000F81F 		.word	536346624
 2009              		.cfi_endproc
 2010              	.LFE357:
 2012              		.section	.text.USB_ReadPacket,"ax",%progbits
 2013              		.align	1
 2014              		.global	USB_ReadPacket
 2015              		.syntax unified
 2016              		.thumb
 2017              		.thumb_func
 2018              		.fpu fpv5-d16
 2020              	USB_ReadPacket:
 2021              	.LFB360:
 965:Drivers/STM32H7xx_HAL_Driver/Src/stm32h7xx_ll_usb.c ****   uint32_t USBx_BASE = (uint32_t)USBx;
 2022              		.loc 1 965 0
 2023              		.cfi_startproc
 2024              		@ args = 0, pretend = 0, frame = 0
 2025              		@ frame_needed = 0, uses_anonymous_args = 0
 2026              		@ link register save eliminated.
 2027              	.LVL202:
 969:Drivers/STM32H7xx_HAL_Driver/Src/stm32h7xx_ll_usb.c **** 
 2028              		.loc 1 969 0
 2029 0000 0332     		adds	r2, r2, #3
 2030              	.LVL203:
 2031 0002 9208     		lsrs	r2, r2, #2
 2032              	.LVL204:
 971:Drivers/STM32H7xx_HAL_Driver/Src/stm32h7xx_ll_usb.c ****   {
 2033              		.loc 1 971 0
 2034 0004 0023     		movs	r3, #0
 2035              	.LVL205:
 2036 0006 9342     		cmp	r3, r2
 2037 0008 0CD2     		bcs	.L184
 965:Drivers/STM32H7xx_HAL_Driver/Src/stm32h7xx_ll_usb.c ****   uint32_t USBx_BASE = (uint32_t)USBx;
 2038              		.loc 1 965 0
 2039 000a 10B4     		push	{r4}
 2040              	.LCFI29:
 2041              		.cfi_def_cfa_offset 4
 2042              		.cfi_offset 4, -4
 2043              	.LVL206:
 2044              	.L179:
 973:Drivers/STM32H7xx_HAL_Driver/Src/stm32h7xx_ll_usb.c ****     pDest++;
 2045              		.loc 1 973 0 discriminator 3
 2046 000c 00F58054 		add	r4, r0, #4096
 2047 0010 2468     		ldr	r4, [r4]
 2048 0012 41F8044B 		str	r4, [r1], #4	@ unaligned
 2049              	.LVL207:
 971:Drivers/STM32H7xx_HAL_Driver/Src/stm32h7xx_ll_usb.c ****   {
 2050              		.loc 1 971 0 discriminator 3
 2051 0016 0133     		adds	r3, r3, #1
 2052              	.LVL208:
 2053 0018 9342     		cmp	r3, r2
 2054 001a F7D3     		bcc	.L179
 978:Drivers/STM32H7xx_HAL_Driver/Src/stm32h7xx_ll_usb.c **** 
 2055              		.loc 1 978 0
 2056 001c 0846     		mov	r0, r1
 2057              	.LVL209:
 2058 001e 5DF8044B 		ldr	r4, [sp], #4
ARM GAS  /tmp/ccCJnE45.s 			page 65


 2059              	.LCFI30:
 2060              		.cfi_restore 4
 2061              		.cfi_def_cfa_offset 0
 2062 0022 7047     		bx	lr
 2063              	.LVL210:
 2064              	.L184:
 2065 0024 0846     		mov	r0, r1
 2066              	.LVL211:
 2067 0026 7047     		bx	lr
 2068              		.cfi_endproc
 2069              	.LFE360:
 2071              		.section	.text.USB_EPSetStall,"ax",%progbits
 2072              		.align	1
 2073              		.global	USB_EPSetStall
 2074              		.syntax unified
 2075              		.thumb
 2076              		.thumb_func
 2077              		.fpu fpv5-d16
 2079              	USB_EPSetStall:
 2080              	.LFB361:
 987:Drivers/STM32H7xx_HAL_Driver/Src/stm32h7xx_ll_usb.c ****   uint32_t USBx_BASE = (uint32_t)USBx;
 2081              		.loc 1 987 0
 2082              		.cfi_startproc
 2083              		@ args = 0, pretend = 0, frame = 0
 2084              		@ frame_needed = 0, uses_anonymous_args = 0
 2085              		@ link register save eliminated.
 2086              	.LVL212:
 989:Drivers/STM32H7xx_HAL_Driver/Src/stm32h7xx_ll_usb.c **** 
 2087              		.loc 1 989 0
 2088 0000 0B78     		ldrb	r3, [r1]	@ zero_extendqisi2
 2089              	.LVL213:
 991:Drivers/STM32H7xx_HAL_Driver/Src/stm32h7xx_ll_usb.c ****   {
 2090              		.loc 1 991 0
 2091 0002 4A78     		ldrb	r2, [r1, #1]	@ zero_extendqisi2
 2092 0004 012A     		cmp	r2, #1
 2093 0006 14D0     		beq	.L190
1001:Drivers/STM32H7xx_HAL_Driver/Src/stm32h7xx_ll_usb.c ****     {
 2094              		.loc 1 1001 0
 2095 0008 00EB4310 		add	r0, r0, r3, lsl #5
 2096              	.LVL214:
 2097 000c D0F8002B 		ldr	r2, [r0, #2816]
 2098 0010 002A     		cmp	r2, #0
 2099 0012 06DB     		blt	.L189
1001:Drivers/STM32H7xx_HAL_Driver/Src/stm32h7xx_ll_usb.c ****     {
 2100              		.loc 1 1001 0 is_stmt 0 discriminator 1
 2101 0014 2BB1     		cbz	r3, .L189
1003:Drivers/STM32H7xx_HAL_Driver/Src/stm32h7xx_ll_usb.c ****     }
 2102              		.loc 1 1003 0 is_stmt 1
 2103 0016 D0F8003B 		ldr	r3, [r0, #2816]
 2104              	.LVL215:
 2105 001a 23F08043 		bic	r3, r3, #1073741824
 2106 001e C0F8003B 		str	r3, [r0, #2816]
 2107              	.LVL216:
 2108              	.L189:
1005:Drivers/STM32H7xx_HAL_Driver/Src/stm32h7xx_ll_usb.c ****   }
 2109              		.loc 1 1005 0
 2110 0022 D0F8003B 		ldr	r3, [r0, #2816]
ARM GAS  /tmp/ccCJnE45.s 			page 66


 2111 0026 43F40013 		orr	r3, r3, #2097152
 2112 002a C0F8003B 		str	r3, [r0, #2816]
 2113              	.L188:
1009:Drivers/STM32H7xx_HAL_Driver/Src/stm32h7xx_ll_usb.c **** 
 2114              		.loc 1 1009 0
 2115 002e 0020     		movs	r0, #0
 2116 0030 7047     		bx	lr
 2117              	.LVL217:
 2118              	.L190:
 993:Drivers/STM32H7xx_HAL_Driver/Src/stm32h7xx_ll_usb.c ****     {
 2119              		.loc 1 993 0
 2120 0032 00EB4310 		add	r0, r0, r3, lsl #5
 2121              	.LVL218:
 2122 0036 D0F80029 		ldr	r2, [r0, #2304]
 2123 003a 002A     		cmp	r2, #0
 2124 003c 06DB     		blt	.L187
 993:Drivers/STM32H7xx_HAL_Driver/Src/stm32h7xx_ll_usb.c ****     {
 2125              		.loc 1 993 0 is_stmt 0 discriminator 1
 2126 003e 2BB1     		cbz	r3, .L187
 995:Drivers/STM32H7xx_HAL_Driver/Src/stm32h7xx_ll_usb.c ****     }
 2127              		.loc 1 995 0 is_stmt 1
 2128 0040 D0F80039 		ldr	r3, [r0, #2304]
 2129              	.LVL219:
 2130 0044 23F08043 		bic	r3, r3, #1073741824
 2131 0048 C0F80039 		str	r3, [r0, #2304]
 2132              	.LVL220:
 2133              	.L187:
 997:Drivers/STM32H7xx_HAL_Driver/Src/stm32h7xx_ll_usb.c ****   }
 2134              		.loc 1 997 0
 2135 004c D0F80039 		ldr	r3, [r0, #2304]
 2136 0050 43F40013 		orr	r3, r3, #2097152
 2137 0054 C0F80039 		str	r3, [r0, #2304]
 2138 0058 E9E7     		b	.L188
 2139              		.cfi_endproc
 2140              	.LFE361:
 2142              		.section	.text.USB_EPClearStall,"ax",%progbits
 2143              		.align	1
 2144              		.global	USB_EPClearStall
 2145              		.syntax unified
 2146              		.thumb
 2147              		.thumb_func
 2148              		.fpu fpv5-d16
 2150              	USB_EPClearStall:
 2151              	.LFB362:
1018:Drivers/STM32H7xx_HAL_Driver/Src/stm32h7xx_ll_usb.c ****   uint32_t USBx_BASE = (uint32_t)USBx;
 2152              		.loc 1 1018 0
 2153              		.cfi_startproc
 2154              		@ args = 0, pretend = 0, frame = 0
 2155              		@ frame_needed = 0, uses_anonymous_args = 0
 2156              		@ link register save eliminated.
 2157              	.LVL221:
1020:Drivers/STM32H7xx_HAL_Driver/Src/stm32h7xx_ll_usb.c **** 
 2158              		.loc 1 1020 0
 2159 0000 0B78     		ldrb	r3, [r1]	@ zero_extendqisi2
 2160              	.LVL222:
1022:Drivers/STM32H7xx_HAL_Driver/Src/stm32h7xx_ll_usb.c ****   {
 2161              		.loc 1 1022 0
ARM GAS  /tmp/ccCJnE45.s 			page 67


 2162 0002 4A78     		ldrb	r2, [r1, #1]	@ zero_extendqisi2
 2163 0004 012A     		cmp	r2, #1
 2164 0006 0ED0     		beq	.L194
1032:Drivers/STM32H7xx_HAL_Driver/Src/stm32h7xx_ll_usb.c ****     if ((ep->type == EP_TYPE_INTR) || (ep->type == EP_TYPE_BULK))
 2165              		.loc 1 1032 0
 2166 0008 00EB4310 		add	r0, r0, r3, lsl #5
 2167              	.LVL223:
 2168 000c D0F8003B 		ldr	r3, [r0, #2816]
 2169              	.LVL224:
 2170 0010 23F40013 		bic	r3, r3, #2097152
 2171 0014 C0F8003B 		str	r3, [r0, #2816]
 2172              	.LVL225:
1033:Drivers/STM32H7xx_HAL_Driver/Src/stm32h7xx_ll_usb.c ****     {
 2173              		.loc 1 1033 0
 2174 0018 CB78     		ldrb	r3, [r1, #3]	@ zero_extendqisi2
 2175 001a 023B     		subs	r3, r3, #2
 2176 001c DBB2     		uxtb	r3, r3
 2177 001e 012B     		cmp	r3, #1
 2178 0020 15D9     		bls	.L195
 2179              	.L193:
1039:Drivers/STM32H7xx_HAL_Driver/Src/stm32h7xx_ll_usb.c **** 
 2180              		.loc 1 1039 0
 2181 0022 0020     		movs	r0, #0
 2182 0024 7047     		bx	lr
 2183              	.LVL226:
 2184              	.L194:
1024:Drivers/STM32H7xx_HAL_Driver/Src/stm32h7xx_ll_usb.c ****     if ((ep->type == EP_TYPE_INTR) || (ep->type == EP_TYPE_BULK))
 2185              		.loc 1 1024 0
 2186 0026 00EB4310 		add	r0, r0, r3, lsl #5
 2187              	.LVL227:
 2188 002a D0F80039 		ldr	r3, [r0, #2304]
 2189              	.LVL228:
 2190 002e 23F40013 		bic	r3, r3, #2097152
 2191 0032 C0F80039 		str	r3, [r0, #2304]
 2192              	.LVL229:
1025:Drivers/STM32H7xx_HAL_Driver/Src/stm32h7xx_ll_usb.c ****     {
 2193              		.loc 1 1025 0
 2194 0036 CB78     		ldrb	r3, [r1, #3]	@ zero_extendqisi2
 2195 0038 023B     		subs	r3, r3, #2
 2196 003a DBB2     		uxtb	r3, r3
 2197 003c 012B     		cmp	r3, #1
 2198 003e F0D8     		bhi	.L193
1027:Drivers/STM32H7xx_HAL_Driver/Src/stm32h7xx_ll_usb.c ****     }
 2199              		.loc 1 1027 0
 2200 0040 D0F80039 		ldr	r3, [r0, #2304]
 2201 0044 43F08053 		orr	r3, r3, #268435456
 2202 0048 C0F80039 		str	r3, [r0, #2304]
 2203 004c E9E7     		b	.L193
 2204              	.L195:
1035:Drivers/STM32H7xx_HAL_Driver/Src/stm32h7xx_ll_usb.c ****     }
 2205              		.loc 1 1035 0
 2206 004e D0F8003B 		ldr	r3, [r0, #2816]
 2207 0052 43F08053 		orr	r3, r3, #268435456
 2208 0056 C0F8003B 		str	r3, [r0, #2816]
 2209 005a E2E7     		b	.L193
 2210              		.cfi_endproc
 2211              	.LFE362:
ARM GAS  /tmp/ccCJnE45.s 			page 68


 2213              		.section	.text.USB_StopDevice,"ax",%progbits
 2214              		.align	1
 2215              		.global	USB_StopDevice
 2216              		.syntax unified
 2217              		.thumb
 2218              		.thumb_func
 2219              		.fpu fpv5-d16
 2221              	USB_StopDevice:
 2222              	.LFB363:
1047:Drivers/STM32H7xx_HAL_Driver/Src/stm32h7xx_ll_usb.c ****   HAL_StatusTypeDef ret;
 2223              		.loc 1 1047 0
 2224              		.cfi_startproc
 2225              		@ args = 0, pretend = 0, frame = 0
 2226              		@ frame_needed = 0, uses_anonymous_args = 0
 2227              	.LVL230:
 2228 0000 38B5     		push	{r3, r4, r5, lr}
 2229              	.LCFI31:
 2230              		.cfi_def_cfa_offset 16
 2231              		.cfi_offset 3, -16
 2232              		.cfi_offset 4, -12
 2233              		.cfi_offset 5, -8
 2234              		.cfi_offset 14, -4
 2235 0002 0546     		mov	r5, r0
1049:Drivers/STM32H7xx_HAL_Driver/Src/stm32h7xx_ll_usb.c ****   uint32_t i;
 2236              		.loc 1 1049 0
 2237 0004 0446     		mov	r4, r0
 2238              	.LVL231:
1053:Drivers/STM32H7xx_HAL_Driver/Src/stm32h7xx_ll_usb.c ****   {
 2239              		.loc 1 1053 0
 2240 0006 0022     		movs	r2, #0
 2241 0008 08E0     		b	.L197
 2242              	.LVL232:
 2243              	.L198:
1055:Drivers/STM32H7xx_HAL_Driver/Src/stm32h7xx_ll_usb.c ****     USBx_OUTEP(i)->DOEPINT = 0xFB7FU;
 2244              		.loc 1 1055 0 discriminator 3
 2245 000a 04EB4213 		add	r3, r4, r2, lsl #5
 2246 000e 4FF67F31 		movw	r1, #64383
 2247 0012 C3F80819 		str	r1, [r3, #2312]
1056:Drivers/STM32H7xx_HAL_Driver/Src/stm32h7xx_ll_usb.c ****   }
 2248              		.loc 1 1056 0 discriminator 3
 2249 0016 C3F8081B 		str	r1, [r3, #2824]
1053:Drivers/STM32H7xx_HAL_Driver/Src/stm32h7xx_ll_usb.c ****   {
 2250              		.loc 1 1053 0 discriminator 3
 2251 001a 0132     		adds	r2, r2, #1
 2252              	.LVL233:
 2253              	.L197:
1053:Drivers/STM32H7xx_HAL_Driver/Src/stm32h7xx_ll_usb.c ****   {
 2254              		.loc 1 1053 0 is_stmt 0 discriminator 1
 2255 001c 0E2A     		cmp	r2, #14
 2256 001e F4D9     		bls	.L198
1060:Drivers/STM32H7xx_HAL_Driver/Src/stm32h7xx_ll_usb.c ****   USBx_DEVICE->DOEPMSK  = 0U;
 2257              		.loc 1 1060 0 is_stmt 1
 2258 0020 0022     		movs	r2, #0
 2259              	.LVL234:
 2260 0022 C5F81028 		str	r2, [r5, #2064]
1061:Drivers/STM32H7xx_HAL_Driver/Src/stm32h7xx_ll_usb.c ****   USBx_DEVICE->DAINTMSK = 0U;
 2261              		.loc 1 1061 0
ARM GAS  /tmp/ccCJnE45.s 			page 69


 2262 0026 C5F81428 		str	r2, [r5, #2068]
1062:Drivers/STM32H7xx_HAL_Driver/Src/stm32h7xx_ll_usb.c **** 
 2263              		.loc 1 1062 0
 2264 002a C5F81C28 		str	r2, [r5, #2076]
1065:Drivers/STM32H7xx_HAL_Driver/Src/stm32h7xx_ll_usb.c ****   if (ret != HAL_OK)
 2265              		.loc 1 1065 0
 2266 002e 2846     		mov	r0, r5
 2267              	.LVL235:
 2268 0030 FFF7FEFF 		bl	USB_FlushRxFifo
 2269              	.LVL236:
1066:Drivers/STM32H7xx_HAL_Driver/Src/stm32h7xx_ll_usb.c ****   {
 2270              		.loc 1 1066 0
 2271 0034 0346     		mov	r3, r0
 2272 0036 08B1     		cbz	r0, .L201
 2273              	.LVL237:
 2274              	.L199:
1078:Drivers/STM32H7xx_HAL_Driver/Src/stm32h7xx_ll_usb.c **** 
 2275              		.loc 1 1078 0
 2276 0038 1846     		mov	r0, r3
 2277 003a 38BD     		pop	{r3, r4, r5, pc}
 2278              	.LVL238:
 2279              	.L201:
1071:Drivers/STM32H7xx_HAL_Driver/Src/stm32h7xx_ll_usb.c ****   if (ret != HAL_OK)
 2280              		.loc 1 1071 0
 2281 003c 1021     		movs	r1, #16
 2282 003e 2846     		mov	r0, r5
 2283              	.LVL239:
 2284 0040 FFF7FEFF 		bl	USB_FlushTxFifo
 2285              	.LVL240:
 2286 0044 0346     		mov	r3, r0
 2287              	.LVL241:
 2288 0046 F7E7     		b	.L199
 2289              		.cfi_endproc
 2290              	.LFE363:
 2292              		.section	.text.USB_SetDevAddress,"ax",%progbits
 2293              		.align	1
 2294              		.global	USB_SetDevAddress
 2295              		.syntax unified
 2296              		.thumb
 2297              		.thumb_func
 2298              		.fpu fpv5-d16
 2300              	USB_SetDevAddress:
 2301              	.LFB364:
1088:Drivers/STM32H7xx_HAL_Driver/Src/stm32h7xx_ll_usb.c ****   uint32_t USBx_BASE = (uint32_t)USBx;
 2302              		.loc 1 1088 0
 2303              		.cfi_startproc
 2304              		@ args = 0, pretend = 0, frame = 0
 2305              		@ frame_needed = 0, uses_anonymous_args = 0
 2306              		@ link register save eliminated.
 2307              	.LVL242:
1091:Drivers/STM32H7xx_HAL_Driver/Src/stm32h7xx_ll_usb.c ****   USBx_DEVICE->DCFG |= ((uint32_t)address << 4) & USB_OTG_DCFG_DAD;
 2308              		.loc 1 1091 0
 2309 0000 D0F80038 		ldr	r3, [r0, #2048]
 2310 0004 23F4FE63 		bic	r3, r3, #2032
 2311 0008 C0F80038 		str	r3, [r0, #2048]
1092:Drivers/STM32H7xx_HAL_Driver/Src/stm32h7xx_ll_usb.c **** 
 2312              		.loc 1 1092 0
ARM GAS  /tmp/ccCJnE45.s 			page 70


 2313 000c D0F80038 		ldr	r3, [r0, #2048]
 2314 0010 0901     		lsls	r1, r1, #4
 2315              	.LVL243:
 2316 0012 01F4FE61 		and	r1, r1, #2032
 2317 0016 0B43     		orrs	r3, r3, r1
 2318 0018 C0F80038 		str	r3, [r0, #2048]
1095:Drivers/STM32H7xx_HAL_Driver/Src/stm32h7xx_ll_usb.c **** 
 2319              		.loc 1 1095 0
 2320 001c 0020     		movs	r0, #0
 2321              	.LVL244:
 2322 001e 7047     		bx	lr
 2323              		.cfi_endproc
 2324              	.LFE364:
 2326              		.section	.text.USB_DevConnect,"ax",%progbits
 2327              		.align	1
 2328              		.global	USB_DevConnect
 2329              		.syntax unified
 2330              		.thumb
 2331              		.thumb_func
 2332              		.fpu fpv5-d16
 2334              	USB_DevConnect:
 2335              	.LFB365:
1103:Drivers/STM32H7xx_HAL_Driver/Src/stm32h7xx_ll_usb.c ****   uint32_t USBx_BASE = (uint32_t)USBx;
 2336              		.loc 1 1103 0
 2337              		.cfi_startproc
 2338              		@ args = 0, pretend = 0, frame = 0
 2339              		@ frame_needed = 0, uses_anonymous_args = 0
 2340              	.LVL245:
 2341 0000 08B5     		push	{r3, lr}
 2342              	.LCFI32:
 2343              		.cfi_def_cfa_offset 8
 2344              		.cfi_offset 3, -8
 2345              		.cfi_offset 14, -4
 2346              	.LVL246:
1106:Drivers/STM32H7xx_HAL_Driver/Src/stm32h7xx_ll_usb.c ****   HAL_Delay(3U);
 2347              		.loc 1 1106 0
 2348 0002 D0F80438 		ldr	r3, [r0, #2052]
 2349 0006 23F00203 		bic	r3, r3, #2
 2350 000a C0F80438 		str	r3, [r0, #2052]
1107:Drivers/STM32H7xx_HAL_Driver/Src/stm32h7xx_ll_usb.c **** 
 2351              		.loc 1 1107 0
 2352 000e 0320     		movs	r0, #3
 2353              	.LVL247:
 2354 0010 FFF7FEFF 		bl	HAL_Delay
 2355              	.LVL248:
1110:Drivers/STM32H7xx_HAL_Driver/Src/stm32h7xx_ll_usb.c **** 
 2356              		.loc 1 1110 0
 2357 0014 0020     		movs	r0, #0
 2358 0016 08BD     		pop	{r3, pc}
 2359              		.cfi_endproc
 2360              	.LFE365:
 2362              		.section	.text.USB_DevDisconnect,"ax",%progbits
 2363              		.align	1
 2364              		.global	USB_DevDisconnect
 2365              		.syntax unified
 2366              		.thumb
 2367              		.thumb_func
ARM GAS  /tmp/ccCJnE45.s 			page 71


 2368              		.fpu fpv5-d16
 2370              	USB_DevDisconnect:
 2371              	.LFB366:
1118:Drivers/STM32H7xx_HAL_Driver/Src/stm32h7xx_ll_usb.c ****   uint32_t USBx_BASE = (uint32_t)USBx;
 2372              		.loc 1 1118 0
 2373              		.cfi_startproc
 2374              		@ args = 0, pretend = 0, frame = 0
 2375              		@ frame_needed = 0, uses_anonymous_args = 0
 2376              	.LVL249:
 2377 0000 08B5     		push	{r3, lr}
 2378              	.LCFI33:
 2379              		.cfi_def_cfa_offset 8
 2380              		.cfi_offset 3, -8
 2381              		.cfi_offset 14, -4
 2382              	.LVL250:
1121:Drivers/STM32H7xx_HAL_Driver/Src/stm32h7xx_ll_usb.c ****   HAL_Delay(3U);
 2383              		.loc 1 1121 0
 2384 0002 D0F80438 		ldr	r3, [r0, #2052]
 2385 0006 43F00203 		orr	r3, r3, #2
 2386 000a C0F80438 		str	r3, [r0, #2052]
1122:Drivers/STM32H7xx_HAL_Driver/Src/stm32h7xx_ll_usb.c **** 
 2387              		.loc 1 1122 0
 2388 000e 0320     		movs	r0, #3
 2389              	.LVL251:
 2390 0010 FFF7FEFF 		bl	HAL_Delay
 2391              	.LVL252:
1125:Drivers/STM32H7xx_HAL_Driver/Src/stm32h7xx_ll_usb.c **** 
 2392              		.loc 1 1125 0
 2393 0014 0020     		movs	r0, #0
 2394 0016 08BD     		pop	{r3, pc}
 2395              		.cfi_endproc
 2396              	.LFE366:
 2398              		.section	.text.USB_ReadInterrupts,"ax",%progbits
 2399              		.align	1
 2400              		.global	USB_ReadInterrupts
 2401              		.syntax unified
 2402              		.thumb
 2403              		.thumb_func
 2404              		.fpu fpv5-d16
 2406              	USB_ReadInterrupts:
 2407              	.LFB367:
1133:Drivers/STM32H7xx_HAL_Driver/Src/stm32h7xx_ll_usb.c ****   uint32_t tmpreg;
 2408              		.loc 1 1133 0
 2409              		.cfi_startproc
 2410              		@ args = 0, pretend = 0, frame = 0
 2411              		@ frame_needed = 0, uses_anonymous_args = 0
 2412              		@ link register save eliminated.
 2413              	.LVL253:
1136:Drivers/STM32H7xx_HAL_Driver/Src/stm32h7xx_ll_usb.c ****   tmpreg &= USBx->GINTMSK;
 2414              		.loc 1 1136 0
 2415 0000 4269     		ldr	r2, [r0, #20]
 2416              	.LVL254:
1137:Drivers/STM32H7xx_HAL_Driver/Src/stm32h7xx_ll_usb.c **** 
 2417              		.loc 1 1137 0
 2418 0002 8069     		ldr	r0, [r0, #24]
 2419              	.LVL255:
1140:Drivers/STM32H7xx_HAL_Driver/Src/stm32h7xx_ll_usb.c **** 
ARM GAS  /tmp/ccCJnE45.s 			page 72


 2420              		.loc 1 1140 0
 2421 0004 1040     		ands	r0, r0, r2
 2422              	.LVL256:
 2423 0006 7047     		bx	lr
 2424              		.cfi_endproc
 2425              	.LFE367:
 2427              		.section	.text.USB_ReadDevAllOutEpInterrupt,"ax",%progbits
 2428              		.align	1
 2429              		.global	USB_ReadDevAllOutEpInterrupt
 2430              		.syntax unified
 2431              		.thumb
 2432              		.thumb_func
 2433              		.fpu fpv5-d16
 2435              	USB_ReadDevAllOutEpInterrupt:
 2436              	.LFB368:
1148:Drivers/STM32H7xx_HAL_Driver/Src/stm32h7xx_ll_usb.c ****   uint32_t USBx_BASE = (uint32_t)USBx;
 2437              		.loc 1 1148 0
 2438              		.cfi_startproc
 2439              		@ args = 0, pretend = 0, frame = 0
 2440              		@ frame_needed = 0, uses_anonymous_args = 0
 2441              		@ link register save eliminated.
 2442              	.LVL257:
1152:Drivers/STM32H7xx_HAL_Driver/Src/stm32h7xx_ll_usb.c ****   tmpreg &= USBx_DEVICE->DAINTMSK;
 2443              		.loc 1 1152 0
 2444 0000 D0F81838 		ldr	r3, [r0, #2072]
 2445 0004 00F50060 		add	r0, r0, #2048
 2446              	.LVL258:
1153:Drivers/STM32H7xx_HAL_Driver/Src/stm32h7xx_ll_usb.c **** 
 2447              		.loc 1 1153 0
 2448 0008 C069     		ldr	r0, [r0, #28]
 2449              	.LVL259:
 2450 000a 1840     		ands	r0, r0, r3
 2451              	.LVL260:
1156:Drivers/STM32H7xx_HAL_Driver/Src/stm32h7xx_ll_usb.c **** 
 2452              		.loc 1 1156 0
 2453 000c 000C     		lsrs	r0, r0, #16
 2454              	.LVL261:
 2455 000e 7047     		bx	lr
 2456              		.cfi_endproc
 2457              	.LFE368:
 2459              		.section	.text.USB_ReadDevAllInEpInterrupt,"ax",%progbits
 2460              		.align	1
 2461              		.global	USB_ReadDevAllInEpInterrupt
 2462              		.syntax unified
 2463              		.thumb
 2464              		.thumb_func
 2465              		.fpu fpv5-d16
 2467              	USB_ReadDevAllInEpInterrupt:
 2468              	.LFB369:
1164:Drivers/STM32H7xx_HAL_Driver/Src/stm32h7xx_ll_usb.c ****   uint32_t USBx_BASE = (uint32_t)USBx;
 2469              		.loc 1 1164 0
 2470              		.cfi_startproc
 2471              		@ args = 0, pretend = 0, frame = 0
 2472              		@ frame_needed = 0, uses_anonymous_args = 0
 2473              		@ link register save eliminated.
 2474              	.LVL262:
1168:Drivers/STM32H7xx_HAL_Driver/Src/stm32h7xx_ll_usb.c ****   tmpreg &= USBx_DEVICE->DAINTMSK;
ARM GAS  /tmp/ccCJnE45.s 			page 73


 2475              		.loc 1 1168 0
 2476 0000 D0F81838 		ldr	r3, [r0, #2072]
 2477 0004 00F50060 		add	r0, r0, #2048
 2478              	.LVL263:
1169:Drivers/STM32H7xx_HAL_Driver/Src/stm32h7xx_ll_usb.c **** 
 2479              		.loc 1 1169 0
 2480 0008 C069     		ldr	r0, [r0, #28]
 2481              	.LVL264:
 2482 000a 1840     		ands	r0, r0, r3
 2483              	.LVL265:
1172:Drivers/STM32H7xx_HAL_Driver/Src/stm32h7xx_ll_usb.c **** 
 2484              		.loc 1 1172 0
 2485 000c 80B2     		uxth	r0, r0
 2486              	.LVL266:
 2487 000e 7047     		bx	lr
 2488              		.cfi_endproc
 2489              	.LFE369:
 2491              		.section	.text.USB_ReadDevOutEPInterrupt,"ax",%progbits
 2492              		.align	1
 2493              		.global	USB_ReadDevOutEPInterrupt
 2494              		.syntax unified
 2495              		.thumb
 2496              		.thumb_func
 2497              		.fpu fpv5-d16
 2499              	USB_ReadDevOutEPInterrupt:
 2500              	.LFB370:
1182:Drivers/STM32H7xx_HAL_Driver/Src/stm32h7xx_ll_usb.c ****   uint32_t USBx_BASE = (uint32_t)USBx;
 2501              		.loc 1 1182 0
 2502              		.cfi_startproc
 2503              		@ args = 0, pretend = 0, frame = 0
 2504              		@ frame_needed = 0, uses_anonymous_args = 0
 2505              		@ link register save eliminated.
 2506              	.LVL267:
1186:Drivers/STM32H7xx_HAL_Driver/Src/stm32h7xx_ll_usb.c ****   tmpreg &= USBx_DEVICE->DOEPMSK;
 2507              		.loc 1 1186 0
 2508 0000 00EB4111 		add	r1, r0, r1, lsl #5
 2509              	.LVL268:
 2510 0004 D1F8082B 		ldr	r2, [r1, #2824]
 2511              	.LVL269:
1187:Drivers/STM32H7xx_HAL_Driver/Src/stm32h7xx_ll_usb.c **** 
 2512              		.loc 1 1187 0
 2513 0008 00F50060 		add	r0, r0, #2048
 2514              	.LVL270:
 2515 000c 4069     		ldr	r0, [r0, #20]
 2516              	.LVL271:
1190:Drivers/STM32H7xx_HAL_Driver/Src/stm32h7xx_ll_usb.c **** 
 2517              		.loc 1 1190 0
 2518 000e 1040     		ands	r0, r0, r2
 2519              	.LVL272:
 2520 0010 7047     		bx	lr
 2521              		.cfi_endproc
 2522              	.LFE370:
 2524              		.section	.text.USB_ReadDevInEPInterrupt,"ax",%progbits
 2525              		.align	1
 2526              		.global	USB_ReadDevInEPInterrupt
 2527              		.syntax unified
 2528              		.thumb
ARM GAS  /tmp/ccCJnE45.s 			page 74


 2529              		.thumb_func
 2530              		.fpu fpv5-d16
 2532              	USB_ReadDevInEPInterrupt:
 2533              	.LFB371:
1200:Drivers/STM32H7xx_HAL_Driver/Src/stm32h7xx_ll_usb.c ****   uint32_t USBx_BASE = (uint32_t)USBx;
 2534              		.loc 1 1200 0
 2535              		.cfi_startproc
 2536              		@ args = 0, pretend = 0, frame = 0
 2537              		@ frame_needed = 0, uses_anonymous_args = 0
 2538              		@ link register save eliminated.
 2539              	.LVL273:
 2540 0000 10B4     		push	{r4}
 2541              	.LCFI34:
 2542              		.cfi_def_cfa_offset 4
 2543              		.cfi_offset 4, -4
 2544              	.LVL274:
1204:Drivers/STM32H7xx_HAL_Driver/Src/stm32h7xx_ll_usb.c ****   emp = USBx_DEVICE->DIEPEMPMSK;
 2545              		.loc 1 1204 0
 2546 0002 D0F81048 		ldr	r4, [r0, #2064]
 2547              	.LVL275:
1205:Drivers/STM32H7xx_HAL_Driver/Src/stm32h7xx_ll_usb.c ****   msk |= ((emp >> (epnum & EP_ADDR_MSK)) & 0x1U) << 7;
 2548              		.loc 1 1205 0
 2549 0006 D0F83438 		ldr	r3, [r0, #2100]
 2550              	.LVL276:
1206:Drivers/STM32H7xx_HAL_Driver/Src/stm32h7xx_ll_usb.c ****   tmpreg = USBx_INEP((uint32_t)epnum)->DIEPINT & msk;
 2551              		.loc 1 1206 0
 2552 000a 01F00F02 		and	r2, r1, #15
 2553 000e D340     		lsrs	r3, r3, r2
 2554              	.LVL277:
 2555 0010 DB01     		lsls	r3, r3, #7
 2556 0012 DBB2     		uxtb	r3, r3
 2557 0014 2343     		orrs	r3, r3, r4
 2558              	.LVL278:
1207:Drivers/STM32H7xx_HAL_Driver/Src/stm32h7xx_ll_usb.c **** 
 2559              		.loc 1 1207 0
 2560 0016 00EB4110 		add	r0, r0, r1, lsl #5
 2561              	.LVL279:
 2562 001a 00F51060 		add	r0, r0, #2304
 2563 001e 8068     		ldr	r0, [r0, #8]
 2564              	.LVL280:
1210:Drivers/STM32H7xx_HAL_Driver/Src/stm32h7xx_ll_usb.c **** 
 2565              		.loc 1 1210 0
 2566 0020 1840     		ands	r0, r0, r3
 2567              	.LVL281:
 2568 0022 5DF8044B 		ldr	r4, [sp], #4
 2569              	.LCFI35:
 2570              		.cfi_restore 4
 2571              		.cfi_def_cfa_offset 0
 2572 0026 7047     		bx	lr
 2573              		.cfi_endproc
 2574              	.LFE371:
 2576              		.section	.text.USB_ClearInterrupts,"ax",%progbits
 2577              		.align	1
 2578              		.global	USB_ClearInterrupts
 2579              		.syntax unified
 2580              		.thumb
 2581              		.thumb_func
ARM GAS  /tmp/ccCJnE45.s 			page 75


 2582              		.fpu fpv5-d16
 2584              	USB_ClearInterrupts:
 2585              	.LFB372:
1219:Drivers/STM32H7xx_HAL_Driver/Src/stm32h7xx_ll_usb.c ****   USBx->GINTSTS |= interrupt;
 2586              		.loc 1 1219 0
 2587              		.cfi_startproc
 2588              		@ args = 0, pretend = 0, frame = 0
 2589              		@ frame_needed = 0, uses_anonymous_args = 0
 2590              		@ link register save eliminated.
 2591              	.LVL282:
1220:Drivers/STM32H7xx_HAL_Driver/Src/stm32h7xx_ll_usb.c **** }
 2592              		.loc 1 1220 0
 2593 0000 4369     		ldr	r3, [r0, #20]
 2594 0002 1943     		orrs	r1, r1, r3
 2595              	.LVL283:
 2596 0004 4161     		str	r1, [r0, #20]
1221:Drivers/STM32H7xx_HAL_Driver/Src/stm32h7xx_ll_usb.c **** 
 2597              		.loc 1 1221 0
 2598 0006 7047     		bx	lr
 2599              		.cfi_endproc
 2600              	.LFE372:
 2602              		.section	.text.USB_GetMode,"ax",%progbits
 2603              		.align	1
 2604              		.global	USB_GetMode
 2605              		.syntax unified
 2606              		.thumb
 2607              		.thumb_func
 2608              		.fpu fpv5-d16
 2610              	USB_GetMode:
 2611              	.LFB373:
1232:Drivers/STM32H7xx_HAL_Driver/Src/stm32h7xx_ll_usb.c ****   return ((USBx->GINTSTS) & 0x1U);
 2612              		.loc 1 1232 0
 2613              		.cfi_startproc
 2614              		@ args = 0, pretend = 0, frame = 0
 2615              		@ frame_needed = 0, uses_anonymous_args = 0
 2616              		@ link register save eliminated.
 2617              	.LVL284:
1233:Drivers/STM32H7xx_HAL_Driver/Src/stm32h7xx_ll_usb.c **** }
 2618              		.loc 1 1233 0
 2619 0000 4069     		ldr	r0, [r0, #20]
 2620              	.LVL285:
1234:Drivers/STM32H7xx_HAL_Driver/Src/stm32h7xx_ll_usb.c **** 
 2621              		.loc 1 1234 0
 2622 0002 00F00100 		and	r0, r0, #1
 2623 0006 7047     		bx	lr
 2624              		.cfi_endproc
 2625              	.LFE373:
 2627              		.section	.text.USB_ActivateSetup,"ax",%progbits
 2628              		.align	1
 2629              		.global	USB_ActivateSetup
 2630              		.syntax unified
 2631              		.thumb
 2632              		.thumb_func
 2633              		.fpu fpv5-d16
 2635              	USB_ActivateSetup:
 2636              	.LFB374:
1242:Drivers/STM32H7xx_HAL_Driver/Src/stm32h7xx_ll_usb.c ****   uint32_t USBx_BASE = (uint32_t)USBx;
ARM GAS  /tmp/ccCJnE45.s 			page 76


 2637              		.loc 1 1242 0
 2638              		.cfi_startproc
 2639              		@ args = 0, pretend = 0, frame = 0
 2640              		@ frame_needed = 0, uses_anonymous_args = 0
 2641              		@ link register save eliminated.
 2642              	.LVL286:
1246:Drivers/STM32H7xx_HAL_Driver/Src/stm32h7xx_ll_usb.c **** 
 2643              		.loc 1 1246 0
 2644 0000 D0F80029 		ldr	r2, [r0, #2304]
 2645 0004 054B     		ldr	r3, .L216
 2646 0006 1340     		ands	r3, r3, r2
 2647 0008 C0F80039 		str	r3, [r0, #2304]
1248:Drivers/STM32H7xx_HAL_Driver/Src/stm32h7xx_ll_usb.c **** 
 2648              		.loc 1 1248 0
 2649 000c D0F80438 		ldr	r3, [r0, #2052]
 2650 0010 43F48073 		orr	r3, r3, #256
 2651 0014 C0F80438 		str	r3, [r0, #2052]
1251:Drivers/STM32H7xx_HAL_Driver/Src/stm32h7xx_ll_usb.c **** 
 2652              		.loc 1 1251 0
 2653 0018 0020     		movs	r0, #0
 2654              	.LVL287:
 2655 001a 7047     		bx	lr
 2656              	.L217:
 2657              		.align	2
 2658              	.L216:
 2659 001c 00F8FFFF 		.word	-2048
 2660              		.cfi_endproc
 2661              	.LFE374:
 2663              		.section	.text.USB_EP0_OutStart,"ax",%progbits
 2664              		.align	1
 2665              		.global	USB_EP0_OutStart
 2666              		.syntax unified
 2667              		.thumb
 2668              		.thumb_func
 2669              		.fpu fpv5-d16
 2671              	USB_EP0_OutStart:
 2672              	.LFB375:
1264:Drivers/STM32H7xx_HAL_Driver/Src/stm32h7xx_ll_usb.c ****   uint32_t USBx_BASE = (uint32_t)USBx;
 2673              		.loc 1 1264 0
 2674              		.cfi_startproc
 2675              		@ args = 0, pretend = 0, frame = 0
 2676              		@ frame_needed = 0, uses_anonymous_args = 0
 2677              		@ link register save eliminated.
 2678              	.LVL288:
 2679 0000 10B4     		push	{r4}
 2680              	.LCFI36:
 2681              		.cfi_def_cfa_offset 4
 2682              		.cfi_offset 4, -4
 2683              	.LVL289:
1266:Drivers/STM32H7xx_HAL_Driver/Src/stm32h7xx_ll_usb.c **** 
 2684              		.loc 1 1266 0
 2685 0002 046C     		ldr	r4, [r0, #64]
 2686              	.LVL290:
1268:Drivers/STM32H7xx_HAL_Driver/Src/stm32h7xx_ll_usb.c ****   {
 2687              		.loc 1 1268 0
 2688 0004 154B     		ldr	r3, .L223
 2689 0006 9C42     		cmp	r4, r3
ARM GAS  /tmp/ccCJnE45.s 			page 77


 2690 0008 03D9     		bls	.L219
1270:Drivers/STM32H7xx_HAL_Driver/Src/stm32h7xx_ll_usb.c ****     {
 2691              		.loc 1 1270 0
 2692 000a D0F8003B 		ldr	r3, [r0, #2816]
 2693 000e 002B     		cmp	r3, #0
 2694 0010 16DB     		blt	.L220
 2695              	.L219:
1276:Drivers/STM32H7xx_HAL_Driver/Src/stm32h7xx_ll_usb.c ****   USBx_OUTEP(0U)->DOEPTSIZ |= (USB_OTG_DOEPTSIZ_PKTCNT & (1U << 19));
 2696              		.loc 1 1276 0
 2697 0012 0024     		movs	r4, #0
 2698              	.LVL291:
 2699 0014 C0F8104B 		str	r4, [r0, #2832]
1277:Drivers/STM32H7xx_HAL_Driver/Src/stm32h7xx_ll_usb.c ****   USBx_OUTEP(0U)->DOEPTSIZ |= (3U * 8U);
 2700              		.loc 1 1277 0
 2701 0018 D0F8104B 		ldr	r4, [r0, #2832]
 2702 001c 44F40024 		orr	r4, r4, #524288
 2703 0020 C0F8104B 		str	r4, [r0, #2832]
1278:Drivers/STM32H7xx_HAL_Driver/Src/stm32h7xx_ll_usb.c ****   USBx_OUTEP(0U)->DOEPTSIZ |=  USB_OTG_DOEPTSIZ_STUPCNT;
 2704              		.loc 1 1278 0
 2705 0024 D0F8104B 		ldr	r4, [r0, #2832]
 2706 0028 44F01804 		orr	r4, r4, #24
 2707 002c C0F8104B 		str	r4, [r0, #2832]
1279:Drivers/STM32H7xx_HAL_Driver/Src/stm32h7xx_ll_usb.c **** 
 2708              		.loc 1 1279 0
 2709 0030 D0F8104B 		ldr	r4, [r0, #2832]
 2710 0034 44F0C044 		orr	r4, r4, #1610612736
 2711 0038 C0F8104B 		str	r4, [r0, #2832]
1281:Drivers/STM32H7xx_HAL_Driver/Src/stm32h7xx_ll_usb.c ****   {
 2712              		.loc 1 1281 0
 2713 003c 0129     		cmp	r1, #1
 2714 003e 03D0     		beq	.L222
 2715              	.L220:
1289:Drivers/STM32H7xx_HAL_Driver/Src/stm32h7xx_ll_usb.c **** 
 2716              		.loc 1 1289 0
 2717 0040 0020     		movs	r0, #0
 2718              	.LVL292:
 2719 0042 5DF8044B 		ldr	r4, [sp], #4
 2720              	.LCFI37:
 2721              		.cfi_remember_state
 2722              		.cfi_restore 4
 2723              		.cfi_def_cfa_offset 0
 2724 0046 7047     		bx	lr
 2725              	.LVL293:
 2726              	.L222:
 2727              	.LCFI38:
 2728              		.cfi_restore_state
1283:Drivers/STM32H7xx_HAL_Driver/Src/stm32h7xx_ll_usb.c ****     /* EP enable */
 2729              		.loc 1 1283 0
 2730 0048 C0F8142B 		str	r2, [r0, #2836]
1285:Drivers/STM32H7xx_HAL_Driver/Src/stm32h7xx_ll_usb.c ****   }
 2731              		.loc 1 1285 0
 2732 004c D0F8003B 		ldr	r3, [r0, #2816]
 2733 0050 43F08023 		orr	r3, r3, #-2147450880
 2734 0054 C0F8003B 		str	r3, [r0, #2816]
 2735 0058 F2E7     		b	.L220
 2736              	.L224:
 2737 005a 00BF     		.align	2
ARM GAS  /tmp/ccCJnE45.s 			page 78


 2738              	.L223:
 2739 005c 0A30544F 		.word	1330917386
 2740              		.cfi_endproc
 2741              	.LFE375:
 2743              		.section	.text.USB_InitFSLSPClkSel,"ax",%progbits
 2744              		.align	1
 2745              		.global	USB_InitFSLSPClkSel
 2746              		.syntax unified
 2747              		.thumb
 2748              		.thumb_func
 2749              		.fpu fpv5-d16
 2751              	USB_InitFSLSPClkSel:
 2752              	.LFB378:
1325:Drivers/STM32H7xx_HAL_Driver/Src/stm32h7xx_ll_usb.c **** 
1326:Drivers/STM32H7xx_HAL_Driver/Src/stm32h7xx_ll_usb.c **** /**
1327:Drivers/STM32H7xx_HAL_Driver/Src/stm32h7xx_ll_usb.c ****   * @brief  USB_HostInit : Initializes the USB OTG controller registers
1328:Drivers/STM32H7xx_HAL_Driver/Src/stm32h7xx_ll_usb.c ****   *         for Host mode
1329:Drivers/STM32H7xx_HAL_Driver/Src/stm32h7xx_ll_usb.c ****   * @param  USBx  Selected device
1330:Drivers/STM32H7xx_HAL_Driver/Src/stm32h7xx_ll_usb.c ****   * @param  cfg   pointer to a USB_OTG_CfgTypeDef structure that contains
1331:Drivers/STM32H7xx_HAL_Driver/Src/stm32h7xx_ll_usb.c ****   *         the configuration information for the specified USBx peripheral.
1332:Drivers/STM32H7xx_HAL_Driver/Src/stm32h7xx_ll_usb.c ****   * @retval HAL status
1333:Drivers/STM32H7xx_HAL_Driver/Src/stm32h7xx_ll_usb.c ****   */
1334:Drivers/STM32H7xx_HAL_Driver/Src/stm32h7xx_ll_usb.c **** HAL_StatusTypeDef USB_HostInit(USB_OTG_GlobalTypeDef *USBx, USB_OTG_CfgTypeDef cfg)
1335:Drivers/STM32H7xx_HAL_Driver/Src/stm32h7xx_ll_usb.c **** {
1336:Drivers/STM32H7xx_HAL_Driver/Src/stm32h7xx_ll_usb.c ****   uint32_t USBx_BASE = (uint32_t)USBx;
1337:Drivers/STM32H7xx_HAL_Driver/Src/stm32h7xx_ll_usb.c ****   uint32_t i;
1338:Drivers/STM32H7xx_HAL_Driver/Src/stm32h7xx_ll_usb.c **** 
1339:Drivers/STM32H7xx_HAL_Driver/Src/stm32h7xx_ll_usb.c ****   /* Restart the Phy Clock */
1340:Drivers/STM32H7xx_HAL_Driver/Src/stm32h7xx_ll_usb.c ****   USBx_PCGCCTL = 0U;
1341:Drivers/STM32H7xx_HAL_Driver/Src/stm32h7xx_ll_usb.c **** 
1342:Drivers/STM32H7xx_HAL_Driver/Src/stm32h7xx_ll_usb.c ****   /* Disable VBUS sensing */
1343:Drivers/STM32H7xx_HAL_Driver/Src/stm32h7xx_ll_usb.c ****   USBx->GCCFG &= ~(USB_OTG_GCCFG_VBDEN);
1344:Drivers/STM32H7xx_HAL_Driver/Src/stm32h7xx_ll_usb.c **** 
1345:Drivers/STM32H7xx_HAL_Driver/Src/stm32h7xx_ll_usb.c ****   /* Disable Battery chargin detector */
1346:Drivers/STM32H7xx_HAL_Driver/Src/stm32h7xx_ll_usb.c ****   USBx->GCCFG &= ~(USB_OTG_GCCFG_BCDEN);
1347:Drivers/STM32H7xx_HAL_Driver/Src/stm32h7xx_ll_usb.c **** 
1348:Drivers/STM32H7xx_HAL_Driver/Src/stm32h7xx_ll_usb.c **** 
1349:Drivers/STM32H7xx_HAL_Driver/Src/stm32h7xx_ll_usb.c ****   if ((USBx->CID & (0x1U << 8)) != 0U)
1350:Drivers/STM32H7xx_HAL_Driver/Src/stm32h7xx_ll_usb.c ****   {
1351:Drivers/STM32H7xx_HAL_Driver/Src/stm32h7xx_ll_usb.c ****     if (cfg.speed == USBH_FSLS_SPEED)
1352:Drivers/STM32H7xx_HAL_Driver/Src/stm32h7xx_ll_usb.c ****     {
1353:Drivers/STM32H7xx_HAL_Driver/Src/stm32h7xx_ll_usb.c ****       /* Force Device Enumeration to FS/LS mode only */
1354:Drivers/STM32H7xx_HAL_Driver/Src/stm32h7xx_ll_usb.c ****       USBx_HOST->HCFG |= USB_OTG_HCFG_FSLSS;
1355:Drivers/STM32H7xx_HAL_Driver/Src/stm32h7xx_ll_usb.c ****     }
1356:Drivers/STM32H7xx_HAL_Driver/Src/stm32h7xx_ll_usb.c ****     else
1357:Drivers/STM32H7xx_HAL_Driver/Src/stm32h7xx_ll_usb.c ****     {
1358:Drivers/STM32H7xx_HAL_Driver/Src/stm32h7xx_ll_usb.c ****       /* Set default Max speed support */
1359:Drivers/STM32H7xx_HAL_Driver/Src/stm32h7xx_ll_usb.c ****       USBx_HOST->HCFG &= ~(USB_OTG_HCFG_FSLSS);
1360:Drivers/STM32H7xx_HAL_Driver/Src/stm32h7xx_ll_usb.c ****     }
1361:Drivers/STM32H7xx_HAL_Driver/Src/stm32h7xx_ll_usb.c ****   }
1362:Drivers/STM32H7xx_HAL_Driver/Src/stm32h7xx_ll_usb.c ****   else
1363:Drivers/STM32H7xx_HAL_Driver/Src/stm32h7xx_ll_usb.c ****   {
1364:Drivers/STM32H7xx_HAL_Driver/Src/stm32h7xx_ll_usb.c ****     /* Set default Max speed support */
1365:Drivers/STM32H7xx_HAL_Driver/Src/stm32h7xx_ll_usb.c ****     USBx_HOST->HCFG &= ~(USB_OTG_HCFG_FSLSS);
1366:Drivers/STM32H7xx_HAL_Driver/Src/stm32h7xx_ll_usb.c ****   }
1367:Drivers/STM32H7xx_HAL_Driver/Src/stm32h7xx_ll_usb.c **** 
1368:Drivers/STM32H7xx_HAL_Driver/Src/stm32h7xx_ll_usb.c ****   /* Make sure the FIFOs are flushed. */
ARM GAS  /tmp/ccCJnE45.s 			page 79


1369:Drivers/STM32H7xx_HAL_Driver/Src/stm32h7xx_ll_usb.c ****   (void)USB_FlushTxFifo(USBx, 0x10U); /* all Tx FIFOs */
1370:Drivers/STM32H7xx_HAL_Driver/Src/stm32h7xx_ll_usb.c ****   (void)USB_FlushRxFifo(USBx);
1371:Drivers/STM32H7xx_HAL_Driver/Src/stm32h7xx_ll_usb.c **** 
1372:Drivers/STM32H7xx_HAL_Driver/Src/stm32h7xx_ll_usb.c ****   /* Clear all pending HC Interrupts */
1373:Drivers/STM32H7xx_HAL_Driver/Src/stm32h7xx_ll_usb.c ****   for (i = 0U; i < cfg.Host_channels; i++)
1374:Drivers/STM32H7xx_HAL_Driver/Src/stm32h7xx_ll_usb.c ****   {
1375:Drivers/STM32H7xx_HAL_Driver/Src/stm32h7xx_ll_usb.c ****     USBx_HC(i)->HCINT = 0xFFFFFFFFU;
1376:Drivers/STM32H7xx_HAL_Driver/Src/stm32h7xx_ll_usb.c ****     USBx_HC(i)->HCINTMSK = 0U;
1377:Drivers/STM32H7xx_HAL_Driver/Src/stm32h7xx_ll_usb.c ****   }
1378:Drivers/STM32H7xx_HAL_Driver/Src/stm32h7xx_ll_usb.c **** 
1379:Drivers/STM32H7xx_HAL_Driver/Src/stm32h7xx_ll_usb.c ****   /* Enable VBUS driving */
1380:Drivers/STM32H7xx_HAL_Driver/Src/stm32h7xx_ll_usb.c ****   (void)USB_DriveVbus(USBx, 1U);
1381:Drivers/STM32H7xx_HAL_Driver/Src/stm32h7xx_ll_usb.c **** 
1382:Drivers/STM32H7xx_HAL_Driver/Src/stm32h7xx_ll_usb.c ****   HAL_Delay(200U);
1383:Drivers/STM32H7xx_HAL_Driver/Src/stm32h7xx_ll_usb.c **** 
1384:Drivers/STM32H7xx_HAL_Driver/Src/stm32h7xx_ll_usb.c ****   /* Disable all interrupts. */
1385:Drivers/STM32H7xx_HAL_Driver/Src/stm32h7xx_ll_usb.c ****   USBx->GINTMSK = 0U;
1386:Drivers/STM32H7xx_HAL_Driver/Src/stm32h7xx_ll_usb.c **** 
1387:Drivers/STM32H7xx_HAL_Driver/Src/stm32h7xx_ll_usb.c ****   /* Clear any pending interrupts */
1388:Drivers/STM32H7xx_HAL_Driver/Src/stm32h7xx_ll_usb.c ****   USBx->GINTSTS = 0xFFFFFFFFU;
1389:Drivers/STM32H7xx_HAL_Driver/Src/stm32h7xx_ll_usb.c **** 
1390:Drivers/STM32H7xx_HAL_Driver/Src/stm32h7xx_ll_usb.c ****   if ((USBx->CID & (0x1U << 8)) != 0U)
1391:Drivers/STM32H7xx_HAL_Driver/Src/stm32h7xx_ll_usb.c ****   {
1392:Drivers/STM32H7xx_HAL_Driver/Src/stm32h7xx_ll_usb.c ****     /* set Rx FIFO size */
1393:Drivers/STM32H7xx_HAL_Driver/Src/stm32h7xx_ll_usb.c ****     USBx->GRXFSIZ  = 0x200U;
1394:Drivers/STM32H7xx_HAL_Driver/Src/stm32h7xx_ll_usb.c ****     USBx->DIEPTXF0_HNPTXFSIZ = (uint32_t)(((0x100U << 16) & USB_OTG_NPTXFD) | 0x200U);
1395:Drivers/STM32H7xx_HAL_Driver/Src/stm32h7xx_ll_usb.c ****     USBx->HPTXFSIZ = (uint32_t)(((0xE0U << 16) & USB_OTG_HPTXFSIZ_PTXFD) | 0x300U);
1396:Drivers/STM32H7xx_HAL_Driver/Src/stm32h7xx_ll_usb.c ****   }
1397:Drivers/STM32H7xx_HAL_Driver/Src/stm32h7xx_ll_usb.c ****   else
1398:Drivers/STM32H7xx_HAL_Driver/Src/stm32h7xx_ll_usb.c ****   {
1399:Drivers/STM32H7xx_HAL_Driver/Src/stm32h7xx_ll_usb.c ****     /* set Rx FIFO size */
1400:Drivers/STM32H7xx_HAL_Driver/Src/stm32h7xx_ll_usb.c ****     USBx->GRXFSIZ  = 0x80U;
1401:Drivers/STM32H7xx_HAL_Driver/Src/stm32h7xx_ll_usb.c ****     USBx->DIEPTXF0_HNPTXFSIZ = (uint32_t)(((0x60U << 16) & USB_OTG_NPTXFD) | 0x80U);
1402:Drivers/STM32H7xx_HAL_Driver/Src/stm32h7xx_ll_usb.c ****     USBx->HPTXFSIZ = (uint32_t)(((0x40U << 16)& USB_OTG_HPTXFSIZ_PTXFD) | 0xE0U);
1403:Drivers/STM32H7xx_HAL_Driver/Src/stm32h7xx_ll_usb.c ****   }
1404:Drivers/STM32H7xx_HAL_Driver/Src/stm32h7xx_ll_usb.c **** 
1405:Drivers/STM32H7xx_HAL_Driver/Src/stm32h7xx_ll_usb.c ****   /* Enable the common interrupts */
1406:Drivers/STM32H7xx_HAL_Driver/Src/stm32h7xx_ll_usb.c ****   if (cfg.dma_enable == 0U)
1407:Drivers/STM32H7xx_HAL_Driver/Src/stm32h7xx_ll_usb.c ****   {
1408:Drivers/STM32H7xx_HAL_Driver/Src/stm32h7xx_ll_usb.c ****     USBx->GINTMSK |= USB_OTG_GINTMSK_RXFLVLM;
1409:Drivers/STM32H7xx_HAL_Driver/Src/stm32h7xx_ll_usb.c ****   }
1410:Drivers/STM32H7xx_HAL_Driver/Src/stm32h7xx_ll_usb.c **** 
1411:Drivers/STM32H7xx_HAL_Driver/Src/stm32h7xx_ll_usb.c ****   /* Enable interrupts matching to the Host mode ONLY */
1412:Drivers/STM32H7xx_HAL_Driver/Src/stm32h7xx_ll_usb.c ****   USBx->GINTMSK |= (USB_OTG_GINTMSK_PRTIM            | USB_OTG_GINTMSK_HCIM | \
1413:Drivers/STM32H7xx_HAL_Driver/Src/stm32h7xx_ll_usb.c ****                     USB_OTG_GINTMSK_SOFM             | USB_OTG_GINTSTS_DISCINT | \
1414:Drivers/STM32H7xx_HAL_Driver/Src/stm32h7xx_ll_usb.c ****                     USB_OTG_GINTMSK_PXFRM_IISOOXFRM  | USB_OTG_GINTMSK_WUIM);
1415:Drivers/STM32H7xx_HAL_Driver/Src/stm32h7xx_ll_usb.c **** 
1416:Drivers/STM32H7xx_HAL_Driver/Src/stm32h7xx_ll_usb.c ****   return HAL_OK;
1417:Drivers/STM32H7xx_HAL_Driver/Src/stm32h7xx_ll_usb.c **** }
1418:Drivers/STM32H7xx_HAL_Driver/Src/stm32h7xx_ll_usb.c **** 
1419:Drivers/STM32H7xx_HAL_Driver/Src/stm32h7xx_ll_usb.c **** /**
1420:Drivers/STM32H7xx_HAL_Driver/Src/stm32h7xx_ll_usb.c ****   * @brief  USB_InitFSLSPClkSel : Initializes the FSLSPClkSel field of the
1421:Drivers/STM32H7xx_HAL_Driver/Src/stm32h7xx_ll_usb.c ****   *         HCFG register on the PHY type and set the right frame interval
1422:Drivers/STM32H7xx_HAL_Driver/Src/stm32h7xx_ll_usb.c ****   * @param  USBx  Selected device
1423:Drivers/STM32H7xx_HAL_Driver/Src/stm32h7xx_ll_usb.c ****   * @param  freq  clock frequency
1424:Drivers/STM32H7xx_HAL_Driver/Src/stm32h7xx_ll_usb.c ****   *          This parameter can be one of these values:
1425:Drivers/STM32H7xx_HAL_Driver/Src/stm32h7xx_ll_usb.c ****   *           HCFG_48_MHZ : Full Speed 48 MHz Clock
ARM GAS  /tmp/ccCJnE45.s 			page 80


1426:Drivers/STM32H7xx_HAL_Driver/Src/stm32h7xx_ll_usb.c ****   *           HCFG_6_MHZ : Low Speed 6 MHz Clock
1427:Drivers/STM32H7xx_HAL_Driver/Src/stm32h7xx_ll_usb.c ****   * @retval HAL status
1428:Drivers/STM32H7xx_HAL_Driver/Src/stm32h7xx_ll_usb.c ****   */
1429:Drivers/STM32H7xx_HAL_Driver/Src/stm32h7xx_ll_usb.c **** HAL_StatusTypeDef USB_InitFSLSPClkSel(USB_OTG_GlobalTypeDef *USBx, uint8_t freq)
1430:Drivers/STM32H7xx_HAL_Driver/Src/stm32h7xx_ll_usb.c **** {
 2753              		.loc 1 1430 0
 2754              		.cfi_startproc
 2755              		@ args = 0, pretend = 0, frame = 0
 2756              		@ frame_needed = 0, uses_anonymous_args = 0
 2757              		@ link register save eliminated.
 2758              	.LVL294:
 2759 0000 10B4     		push	{r4}
 2760              	.LCFI39:
 2761              		.cfi_def_cfa_offset 4
 2762              		.cfi_offset 4, -4
 2763              	.LVL295:
1431:Drivers/STM32H7xx_HAL_Driver/Src/stm32h7xx_ll_usb.c ****   uint32_t USBx_BASE = (uint32_t)USBx;
1432:Drivers/STM32H7xx_HAL_Driver/Src/stm32h7xx_ll_usb.c **** 
1433:Drivers/STM32H7xx_HAL_Driver/Src/stm32h7xx_ll_usb.c ****   USBx_HOST->HCFG &= ~(USB_OTG_HCFG_FSLSPCS);
 2764              		.loc 1 1433 0
 2765 0002 00F58064 		add	r4, r0, #1024
 2766 0006 D0F80034 		ldr	r3, [r0, #1024]
 2767 000a 23F00303 		bic	r3, r3, #3
 2768 000e C0F80034 		str	r3, [r0, #1024]
1434:Drivers/STM32H7xx_HAL_Driver/Src/stm32h7xx_ll_usb.c ****   USBx_HOST->HCFG |= (uint32_t)freq & USB_OTG_HCFG_FSLSPCS;
 2769              		.loc 1 1434 0
 2770 0012 D0F80034 		ldr	r3, [r0, #1024]
 2771 0016 01F00302 		and	r2, r1, #3
 2772 001a 1343     		orrs	r3, r3, r2
 2773 001c C0F80034 		str	r3, [r0, #1024]
1435:Drivers/STM32H7xx_HAL_Driver/Src/stm32h7xx_ll_usb.c **** 
1436:Drivers/STM32H7xx_HAL_Driver/Src/stm32h7xx_ll_usb.c ****   if (freq == HCFG_48_MHZ)
 2774              		.loc 1 1436 0
 2775 0020 0129     		cmp	r1, #1
 2776 0022 05D0     		beq	.L229
1437:Drivers/STM32H7xx_HAL_Driver/Src/stm32h7xx_ll_usb.c ****   {
1438:Drivers/STM32H7xx_HAL_Driver/Src/stm32h7xx_ll_usb.c ****     USBx_HOST->HFIR = 48000U;
1439:Drivers/STM32H7xx_HAL_Driver/Src/stm32h7xx_ll_usb.c ****   }
1440:Drivers/STM32H7xx_HAL_Driver/Src/stm32h7xx_ll_usb.c ****   else if (freq == HCFG_6_MHZ)
 2777              		.loc 1 1440 0
 2778 0024 0229     		cmp	r1, #2
 2779 0026 07D0     		beq	.L230
 2780              	.L227:
1441:Drivers/STM32H7xx_HAL_Driver/Src/stm32h7xx_ll_usb.c ****   {
1442:Drivers/STM32H7xx_HAL_Driver/Src/stm32h7xx_ll_usb.c ****     USBx_HOST->HFIR = 6000U;
1443:Drivers/STM32H7xx_HAL_Driver/Src/stm32h7xx_ll_usb.c ****   }
1444:Drivers/STM32H7xx_HAL_Driver/Src/stm32h7xx_ll_usb.c ****   else
1445:Drivers/STM32H7xx_HAL_Driver/Src/stm32h7xx_ll_usb.c ****   {
1446:Drivers/STM32H7xx_HAL_Driver/Src/stm32h7xx_ll_usb.c ****     /* ... */
1447:Drivers/STM32H7xx_HAL_Driver/Src/stm32h7xx_ll_usb.c ****   }
1448:Drivers/STM32H7xx_HAL_Driver/Src/stm32h7xx_ll_usb.c **** 
1449:Drivers/STM32H7xx_HAL_Driver/Src/stm32h7xx_ll_usb.c ****   return HAL_OK;
1450:Drivers/STM32H7xx_HAL_Driver/Src/stm32h7xx_ll_usb.c **** }
 2781              		.loc 1 1450 0
 2782 0028 0020     		movs	r0, #0
 2783              	.LVL296:
 2784 002a 5DF8044B 		ldr	r4, [sp], #4
ARM GAS  /tmp/ccCJnE45.s 			page 81


 2785              	.LCFI40:
 2786              		.cfi_remember_state
 2787              		.cfi_restore 4
 2788              		.cfi_def_cfa_offset 0
 2789              	.LVL297:
 2790 002e 7047     		bx	lr
 2791              	.LVL298:
 2792              	.L229:
 2793              	.LCFI41:
 2794              		.cfi_restore_state
1438:Drivers/STM32H7xx_HAL_Driver/Src/stm32h7xx_ll_usb.c ****   }
 2795              		.loc 1 1438 0
 2796 0030 4BF68033 		movw	r3, #48000
 2797 0034 6360     		str	r3, [r4, #4]
 2798 0036 F7E7     		b	.L227
 2799              	.L230:
1442:Drivers/STM32H7xx_HAL_Driver/Src/stm32h7xx_ll_usb.c ****   }
 2800              		.loc 1 1442 0
 2801 0038 41F27073 		movw	r3, #6000
 2802 003c 6360     		str	r3, [r4, #4]
 2803 003e F3E7     		b	.L227
 2804              		.cfi_endproc
 2805              	.LFE378:
 2807              		.section	.text.USB_ResetPort,"ax",%progbits
 2808              		.align	1
 2809              		.global	USB_ResetPort
 2810              		.syntax unified
 2811              		.thumb
 2812              		.thumb_func
 2813              		.fpu fpv5-d16
 2815              	USB_ResetPort:
 2816              	.LFB379:
1451:Drivers/STM32H7xx_HAL_Driver/Src/stm32h7xx_ll_usb.c **** 
1452:Drivers/STM32H7xx_HAL_Driver/Src/stm32h7xx_ll_usb.c **** /**
1453:Drivers/STM32H7xx_HAL_Driver/Src/stm32h7xx_ll_usb.c **** * @brief  USB_OTG_ResetPort : Reset Host Port
1454:Drivers/STM32H7xx_HAL_Driver/Src/stm32h7xx_ll_usb.c ****   * @param  USBx  Selected device
1455:Drivers/STM32H7xx_HAL_Driver/Src/stm32h7xx_ll_usb.c ****   * @retval HAL status
1456:Drivers/STM32H7xx_HAL_Driver/Src/stm32h7xx_ll_usb.c ****   * @note (1)The application must wait at least 10 ms
1457:Drivers/STM32H7xx_HAL_Driver/Src/stm32h7xx_ll_usb.c ****   *   before clearing the reset bit.
1458:Drivers/STM32H7xx_HAL_Driver/Src/stm32h7xx_ll_usb.c ****   */
1459:Drivers/STM32H7xx_HAL_Driver/Src/stm32h7xx_ll_usb.c **** HAL_StatusTypeDef USB_ResetPort(USB_OTG_GlobalTypeDef *USBx)
1460:Drivers/STM32H7xx_HAL_Driver/Src/stm32h7xx_ll_usb.c **** {
 2817              		.loc 1 1460 0
 2818              		.cfi_startproc
 2819              		@ args = 0, pretend = 0, frame = 8
 2820              		@ frame_needed = 0, uses_anonymous_args = 0
 2821              	.LVL299:
 2822 0000 30B5     		push	{r4, r5, lr}
 2823              	.LCFI42:
 2824              		.cfi_def_cfa_offset 12
 2825              		.cfi_offset 4, -12
 2826              		.cfi_offset 5, -8
 2827              		.cfi_offset 14, -4
 2828 0002 83B0     		sub	sp, sp, #12
 2829              	.LCFI43:
 2830              		.cfi_def_cfa_offset 24
 2831 0004 0446     		mov	r4, r0
ARM GAS  /tmp/ccCJnE45.s 			page 82


 2832              	.LVL300:
1461:Drivers/STM32H7xx_HAL_Driver/Src/stm32h7xx_ll_usb.c ****   uint32_t USBx_BASE = (uint32_t)USBx;
1462:Drivers/STM32H7xx_HAL_Driver/Src/stm32h7xx_ll_usb.c **** 
1463:Drivers/STM32H7xx_HAL_Driver/Src/stm32h7xx_ll_usb.c ****   __IO uint32_t hprt0 = 0U;
 2833              		.loc 1 1463 0
 2834 0006 0025     		movs	r5, #0
 2835 0008 0195     		str	r5, [sp, #4]
1464:Drivers/STM32H7xx_HAL_Driver/Src/stm32h7xx_ll_usb.c **** 
1465:Drivers/STM32H7xx_HAL_Driver/Src/stm32h7xx_ll_usb.c ****   hprt0 = USBx_HPRT0;
 2836              		.loc 1 1465 0
 2837 000a D0F84034 		ldr	r3, [r0, #1088]
 2838 000e 0193     		str	r3, [sp, #4]
1466:Drivers/STM32H7xx_HAL_Driver/Src/stm32h7xx_ll_usb.c **** 
1467:Drivers/STM32H7xx_HAL_Driver/Src/stm32h7xx_ll_usb.c ****   hprt0 &= ~(USB_OTG_HPRT_PENA | USB_OTG_HPRT_PCDET |
 2839              		.loc 1 1467 0
 2840 0010 019B     		ldr	r3, [sp, #4]
 2841 0012 23F02E03 		bic	r3, r3, #46
 2842 0016 0193     		str	r3, [sp, #4]
1468:Drivers/STM32H7xx_HAL_Driver/Src/stm32h7xx_ll_usb.c ****              USB_OTG_HPRT_PENCHNG | USB_OTG_HPRT_POCCHNG);
1469:Drivers/STM32H7xx_HAL_Driver/Src/stm32h7xx_ll_usb.c **** 
1470:Drivers/STM32H7xx_HAL_Driver/Src/stm32h7xx_ll_usb.c ****   USBx_HPRT0 = (USB_OTG_HPRT_PRST | hprt0);
 2843              		.loc 1 1470 0
 2844 0018 019B     		ldr	r3, [sp, #4]
 2845 001a 43F48073 		orr	r3, r3, #256
 2846 001e C0F84034 		str	r3, [r0, #1088]
1471:Drivers/STM32H7xx_HAL_Driver/Src/stm32h7xx_ll_usb.c ****   HAL_Delay(100U);                                 /* See Note #1 */
 2847              		.loc 1 1471 0
 2848 0022 6420     		movs	r0, #100
 2849              	.LVL301:
 2850 0024 FFF7FEFF 		bl	HAL_Delay
 2851              	.LVL302:
1472:Drivers/STM32H7xx_HAL_Driver/Src/stm32h7xx_ll_usb.c ****   USBx_HPRT0 = ((~USB_OTG_HPRT_PRST) & hprt0);
 2852              		.loc 1 1472 0
 2853 0028 019B     		ldr	r3, [sp, #4]
 2854 002a 23F48073 		bic	r3, r3, #256
 2855 002e C4F84034 		str	r3, [r4, #1088]
1473:Drivers/STM32H7xx_HAL_Driver/Src/stm32h7xx_ll_usb.c ****   HAL_Delay(10U);
 2856              		.loc 1 1473 0
 2857 0032 0A20     		movs	r0, #10
 2858 0034 FFF7FEFF 		bl	HAL_Delay
 2859              	.LVL303:
1474:Drivers/STM32H7xx_HAL_Driver/Src/stm32h7xx_ll_usb.c **** 
1475:Drivers/STM32H7xx_HAL_Driver/Src/stm32h7xx_ll_usb.c ****   return HAL_OK;
1476:Drivers/STM32H7xx_HAL_Driver/Src/stm32h7xx_ll_usb.c **** }
 2860              		.loc 1 1476 0
 2861 0038 2846     		mov	r0, r5
 2862 003a 03B0     		add	sp, sp, #12
 2863              	.LCFI44:
 2864              		.cfi_def_cfa_offset 12
 2865              		@ sp needed
 2866 003c 30BD     		pop	{r4, r5, pc}
 2867              		.cfi_endproc
 2868              	.LFE379:
 2870              		.section	.text.USB_DriveVbus,"ax",%progbits
 2871              		.align	1
 2872              		.global	USB_DriveVbus
 2873              		.syntax unified
ARM GAS  /tmp/ccCJnE45.s 			page 83


 2874              		.thumb
 2875              		.thumb_func
 2876              		.fpu fpv5-d16
 2878              	USB_DriveVbus:
 2879              	.LFB380:
1477:Drivers/STM32H7xx_HAL_Driver/Src/stm32h7xx_ll_usb.c **** 
1478:Drivers/STM32H7xx_HAL_Driver/Src/stm32h7xx_ll_usb.c **** /**
1479:Drivers/STM32H7xx_HAL_Driver/Src/stm32h7xx_ll_usb.c ****   * @brief  USB_DriveVbus : activate or de-activate vbus
1480:Drivers/STM32H7xx_HAL_Driver/Src/stm32h7xx_ll_usb.c ****   * @param  state  VBUS state
1481:Drivers/STM32H7xx_HAL_Driver/Src/stm32h7xx_ll_usb.c ****   *          This parameter can be one of these values:
1482:Drivers/STM32H7xx_HAL_Driver/Src/stm32h7xx_ll_usb.c ****   *           0 : VBUS Active
1483:Drivers/STM32H7xx_HAL_Driver/Src/stm32h7xx_ll_usb.c ****   *           1 : VBUS Inactive
1484:Drivers/STM32H7xx_HAL_Driver/Src/stm32h7xx_ll_usb.c ****   * @retval HAL status
1485:Drivers/STM32H7xx_HAL_Driver/Src/stm32h7xx_ll_usb.c **** */
1486:Drivers/STM32H7xx_HAL_Driver/Src/stm32h7xx_ll_usb.c **** HAL_StatusTypeDef USB_DriveVbus(USB_OTG_GlobalTypeDef *USBx, uint8_t state)
1487:Drivers/STM32H7xx_HAL_Driver/Src/stm32h7xx_ll_usb.c **** {
 2880              		.loc 1 1487 0
 2881              		.cfi_startproc
 2882              		@ args = 0, pretend = 0, frame = 8
 2883              		@ frame_needed = 0, uses_anonymous_args = 0
 2884              		@ link register save eliminated.
 2885              	.LVL304:
 2886 0000 82B0     		sub	sp, sp, #8
 2887              	.LCFI45:
 2888              		.cfi_def_cfa_offset 8
 2889              	.LVL305:
1488:Drivers/STM32H7xx_HAL_Driver/Src/stm32h7xx_ll_usb.c ****   uint32_t USBx_BASE = (uint32_t)USBx;
1489:Drivers/STM32H7xx_HAL_Driver/Src/stm32h7xx_ll_usb.c ****   __IO uint32_t hprt0 = 0U;
 2890              		.loc 1 1489 0
 2891 0002 0023     		movs	r3, #0
 2892 0004 0193     		str	r3, [sp, #4]
1490:Drivers/STM32H7xx_HAL_Driver/Src/stm32h7xx_ll_usb.c **** 
1491:Drivers/STM32H7xx_HAL_Driver/Src/stm32h7xx_ll_usb.c ****   hprt0 = USBx_HPRT0;
 2893              		.loc 1 1491 0
 2894 0006 D0F84034 		ldr	r3, [r0, #1088]
 2895 000a 0193     		str	r3, [sp, #4]
1492:Drivers/STM32H7xx_HAL_Driver/Src/stm32h7xx_ll_usb.c **** 
1493:Drivers/STM32H7xx_HAL_Driver/Src/stm32h7xx_ll_usb.c ****   hprt0 &= ~(USB_OTG_HPRT_PENA | USB_OTG_HPRT_PCDET |
 2896              		.loc 1 1493 0
 2897 000c 019B     		ldr	r3, [sp, #4]
 2898 000e 23F02E03 		bic	r3, r3, #46
 2899 0012 0193     		str	r3, [sp, #4]
1494:Drivers/STM32H7xx_HAL_Driver/Src/stm32h7xx_ll_usb.c ****              USB_OTG_HPRT_PENCHNG | USB_OTG_HPRT_POCCHNG);
1495:Drivers/STM32H7xx_HAL_Driver/Src/stm32h7xx_ll_usb.c **** 
1496:Drivers/STM32H7xx_HAL_Driver/Src/stm32h7xx_ll_usb.c ****   if (((hprt0 & USB_OTG_HPRT_PPWR) == 0U) && (state == 1U))
 2900              		.loc 1 1496 0
 2901 0014 019B     		ldr	r3, [sp, #4]
 2902 0016 13F4805F 		tst	r3, #4096
 2903 001a 01D1     		bne	.L234
 2904              		.loc 1 1496 0 is_stmt 0 discriminator 1
 2905 001c 0129     		cmp	r1, #1
 2906 001e 0CD0     		beq	.L237
 2907              	.L234:
1497:Drivers/STM32H7xx_HAL_Driver/Src/stm32h7xx_ll_usb.c ****   {
1498:Drivers/STM32H7xx_HAL_Driver/Src/stm32h7xx_ll_usb.c ****     USBx_HPRT0 = (USB_OTG_HPRT_PPWR | hprt0);
1499:Drivers/STM32H7xx_HAL_Driver/Src/stm32h7xx_ll_usb.c ****   }
1500:Drivers/STM32H7xx_HAL_Driver/Src/stm32h7xx_ll_usb.c ****   if (((hprt0 & USB_OTG_HPRT_PPWR) == USB_OTG_HPRT_PPWR) && (state == 0U))
ARM GAS  /tmp/ccCJnE45.s 			page 84


 2908              		.loc 1 1500 0 is_stmt 1
 2909 0020 019B     		ldr	r3, [sp, #4]
 2910 0022 13F4805F 		tst	r3, #4096
 2911 0026 05D0     		beq	.L235
 2912              		.loc 1 1500 0 is_stmt 0 discriminator 1
 2913 0028 21B9     		cbnz	r1, .L235
1501:Drivers/STM32H7xx_HAL_Driver/Src/stm32h7xx_ll_usb.c ****   {
1502:Drivers/STM32H7xx_HAL_Driver/Src/stm32h7xx_ll_usb.c ****     USBx_HPRT0 = ((~USB_OTG_HPRT_PPWR) & hprt0);
 2914              		.loc 1 1502 0 is_stmt 1
 2915 002a 019B     		ldr	r3, [sp, #4]
 2916 002c 23F48053 		bic	r3, r3, #4096
 2917 0030 C0F84034 		str	r3, [r0, #1088]
 2918              	.L235:
1503:Drivers/STM32H7xx_HAL_Driver/Src/stm32h7xx_ll_usb.c ****   }
1504:Drivers/STM32H7xx_HAL_Driver/Src/stm32h7xx_ll_usb.c ****   return HAL_OK;
1505:Drivers/STM32H7xx_HAL_Driver/Src/stm32h7xx_ll_usb.c **** }
 2919              		.loc 1 1505 0
 2920 0034 0020     		movs	r0, #0
 2921              	.LVL306:
 2922 0036 02B0     		add	sp, sp, #8
 2923              	.LCFI46:
 2924              		.cfi_remember_state
 2925              		.cfi_def_cfa_offset 0
 2926              		@ sp needed
 2927 0038 7047     		bx	lr
 2928              	.LVL307:
 2929              	.L237:
 2930              	.LCFI47:
 2931              		.cfi_restore_state
1498:Drivers/STM32H7xx_HAL_Driver/Src/stm32h7xx_ll_usb.c ****   }
 2932              		.loc 1 1498 0
 2933 003a 019B     		ldr	r3, [sp, #4]
 2934 003c 43F48053 		orr	r3, r3, #4096
 2935 0040 C0F84034 		str	r3, [r0, #1088]
 2936 0044 ECE7     		b	.L234
 2937              		.cfi_endproc
 2938              	.LFE380:
 2940              		.section	.text.USB_HostInit,"ax",%progbits
 2941              		.align	1
 2942              		.global	USB_HostInit
 2943              		.syntax unified
 2944              		.thumb
 2945              		.thumb_func
 2946              		.fpu fpv5-d16
 2948              	USB_HostInit:
 2949              	.LFB377:
1335:Drivers/STM32H7xx_HAL_Driver/Src/stm32h7xx_ll_usb.c ****   uint32_t USBx_BASE = (uint32_t)USBx;
 2950              		.loc 1 1335 0
 2951              		.cfi_startproc
 2952              		@ args = 56, pretend = 16, frame = 0
 2953              		@ frame_needed = 0, uses_anonymous_args = 0
 2954              	.LVL308:
 2955 0000 84B0     		sub	sp, sp, #16
 2956              	.LCFI48:
 2957              		.cfi_def_cfa_offset 16
 2958 0002 38B5     		push	{r3, r4, r5, lr}
 2959              	.LCFI49:
ARM GAS  /tmp/ccCJnE45.s 			page 85


 2960              		.cfi_def_cfa_offset 32
 2961              		.cfi_offset 3, -32
 2962              		.cfi_offset 4, -28
 2963              		.cfi_offset 5, -24
 2964              		.cfi_offset 14, -20
 2965 0004 0446     		mov	r4, r0
 2966 0006 05A8     		add	r0, sp, #20
 2967              	.LVL309:
 2968 0008 80E80E00 		stm	r0, {r1, r2, r3}
1336:Drivers/STM32H7xx_HAL_Driver/Src/stm32h7xx_ll_usb.c ****   uint32_t i;
 2969              		.loc 1 1336 0
 2970 000c 2546     		mov	r5, r4
 2971              	.LVL310:
1340:Drivers/STM32H7xx_HAL_Driver/Src/stm32h7xx_ll_usb.c **** 
 2972              		.loc 1 1340 0
 2973 000e 0023     		movs	r3, #0
 2974 0010 C4F8003E 		str	r3, [r4, #3584]
1343:Drivers/STM32H7xx_HAL_Driver/Src/stm32h7xx_ll_usb.c **** 
 2975              		.loc 1 1343 0
 2976 0014 A36B     		ldr	r3, [r4, #56]
 2977 0016 23F40013 		bic	r3, r3, #2097152
 2978 001a A363     		str	r3, [r4, #56]
1346:Drivers/STM32H7xx_HAL_Driver/Src/stm32h7xx_ll_usb.c **** 
 2979              		.loc 1 1346 0
 2980 001c A36B     		ldr	r3, [r4, #56]
 2981 001e 23F40033 		bic	r3, r3, #131072
 2982 0022 A363     		str	r3, [r4, #56]
1349:Drivers/STM32H7xx_HAL_Driver/Src/stm32h7xx_ll_usb.c ****   {
 2983              		.loc 1 1349 0
 2984 0024 E36B     		ldr	r3, [r4, #60]
 2985 0026 13F4807F 		tst	r3, #256
 2986 002a 10D0     		beq	.L239
1351:Drivers/STM32H7xx_HAL_Driver/Src/stm32h7xx_ll_usb.c ****     {
 2987              		.loc 1 1351 0
 2988 002c 079B     		ldr	r3, [sp, #28]
 2989 002e 012B     		cmp	r3, #1
 2990 0030 06D0     		beq	.L248
1359:Drivers/STM32H7xx_HAL_Driver/Src/stm32h7xx_ll_usb.c ****     }
 2991              		.loc 1 1359 0
 2992 0032 D4F80034 		ldr	r3, [r4, #1024]
 2993 0036 23F00403 		bic	r3, r3, #4
 2994 003a C4F80034 		str	r3, [r4, #1024]
 2995 003e 0CE0     		b	.L241
 2996              	.L248:
1354:Drivers/STM32H7xx_HAL_Driver/Src/stm32h7xx_ll_usb.c ****     }
 2997              		.loc 1 1354 0
 2998 0040 D4F80034 		ldr	r3, [r4, #1024]
 2999 0044 43F00403 		orr	r3, r3, #4
 3000 0048 C4F80034 		str	r3, [r4, #1024]
 3001 004c 05E0     		b	.L241
 3002              	.L239:
1365:Drivers/STM32H7xx_HAL_Driver/Src/stm32h7xx_ll_usb.c ****   }
 3003              		.loc 1 1365 0
 3004 004e D4F80034 		ldr	r3, [r4, #1024]
 3005 0052 23F00403 		bic	r3, r3, #4
 3006 0056 C4F80034 		str	r3, [r4, #1024]
 3007              	.L241:
ARM GAS  /tmp/ccCJnE45.s 			page 86


1369:Drivers/STM32H7xx_HAL_Driver/Src/stm32h7xx_ll_usb.c ****   (void)USB_FlushRxFifo(USBx);
 3008              		.loc 1 1369 0
 3009 005a 1021     		movs	r1, #16
 3010 005c 2046     		mov	r0, r4
 3011 005e FFF7FEFF 		bl	USB_FlushTxFifo
 3012              	.LVL311:
1370:Drivers/STM32H7xx_HAL_Driver/Src/stm32h7xx_ll_usb.c **** 
 3013              		.loc 1 1370 0
 3014 0062 2046     		mov	r0, r4
 3015 0064 FFF7FEFF 		bl	USB_FlushRxFifo
 3016              	.LVL312:
1373:Drivers/STM32H7xx_HAL_Driver/Src/stm32h7xx_ll_usb.c ****   {
 3017              		.loc 1 1373 0
 3018 0068 0022     		movs	r2, #0
 3019 006a 09E0     		b	.L242
 3020              	.LVL313:
 3021              	.L243:
1375:Drivers/STM32H7xx_HAL_Driver/Src/stm32h7xx_ll_usb.c ****     USBx_HC(i)->HCINTMSK = 0U;
 3022              		.loc 1 1375 0 discriminator 3
 3023 006c 05EB4213 		add	r3, r5, r2, lsl #5
 3024 0070 4FF0FF31 		mov	r1, #-1
 3025 0074 C3F80815 		str	r1, [r3, #1288]
1376:Drivers/STM32H7xx_HAL_Driver/Src/stm32h7xx_ll_usb.c ****   }
 3026              		.loc 1 1376 0 discriminator 3
 3027 0078 0021     		movs	r1, #0
 3028 007a C3F80C15 		str	r1, [r3, #1292]
1373:Drivers/STM32H7xx_HAL_Driver/Src/stm32h7xx_ll_usb.c ****   {
 3029              		.loc 1 1373 0 discriminator 3
 3030 007e 0132     		adds	r2, r2, #1
 3031              	.LVL314:
 3032              	.L242:
1373:Drivers/STM32H7xx_HAL_Driver/Src/stm32h7xx_ll_usb.c ****   {
 3033              		.loc 1 1373 0 is_stmt 0 discriminator 1
 3034 0080 069B     		ldr	r3, [sp, #24]
 3035 0082 9342     		cmp	r3, r2
 3036 0084 F2D8     		bhi	.L243
1380:Drivers/STM32H7xx_HAL_Driver/Src/stm32h7xx_ll_usb.c **** 
 3037              		.loc 1 1380 0 is_stmt 1
 3038 0086 0121     		movs	r1, #1
 3039 0088 2046     		mov	r0, r4
 3040 008a FFF7FEFF 		bl	USB_DriveVbus
 3041              	.LVL315:
1382:Drivers/STM32H7xx_HAL_Driver/Src/stm32h7xx_ll_usb.c **** 
 3042              		.loc 1 1382 0
 3043 008e C820     		movs	r0, #200
 3044 0090 FFF7FEFF 		bl	HAL_Delay
 3045              	.LVL316:
1385:Drivers/STM32H7xx_HAL_Driver/Src/stm32h7xx_ll_usb.c **** 
 3046              		.loc 1 1385 0
 3047 0094 0023     		movs	r3, #0
 3048 0096 A361     		str	r3, [r4, #24]
1388:Drivers/STM32H7xx_HAL_Driver/Src/stm32h7xx_ll_usb.c **** 
 3049              		.loc 1 1388 0
 3050 0098 4FF0FF33 		mov	r3, #-1
 3051 009c 6361     		str	r3, [r4, #20]
1390:Drivers/STM32H7xx_HAL_Driver/Src/stm32h7xx_ll_usb.c ****   {
 3052              		.loc 1 1390 0
ARM GAS  /tmp/ccCJnE45.s 			page 87


 3053 009e E36B     		ldr	r3, [r4, #60]
 3054 00a0 13F4807F 		tst	r3, #256
 3055 00a4 17D0     		beq	.L244
1393:Drivers/STM32H7xx_HAL_Driver/Src/stm32h7xx_ll_usb.c ****     USBx->DIEPTXF0_HNPTXFSIZ = (uint32_t)(((0x100U << 16) & USB_OTG_NPTXFD) | 0x200U);
 3056              		.loc 1 1393 0
 3057 00a6 4FF40073 		mov	r3, #512
 3058 00aa 6362     		str	r3, [r4, #36]
1394:Drivers/STM32H7xx_HAL_Driver/Src/stm32h7xx_ll_usb.c ****     USBx->HPTXFSIZ = (uint32_t)(((0xE0U << 16) & USB_OTG_HPTXFSIZ_PTXFD) | 0x300U);
 3059              		.loc 1 1394 0
 3060 00ac 03F18073 		add	r3, r3, #16777216
 3061 00b0 A362     		str	r3, [r4, #40]
1395:Drivers/STM32H7xx_HAL_Driver/Src/stm32h7xx_ll_usb.c ****   }
 3062              		.loc 1 1395 0
 3063 00b2 0D4B     		ldr	r3, .L249
 3064 00b4 C4F80031 		str	r3, [r4, #256]
 3065              	.L245:
1406:Drivers/STM32H7xx_HAL_Driver/Src/stm32h7xx_ll_usb.c ****   {
 3066              		.loc 1 1406 0
 3067 00b8 089B     		ldr	r3, [sp, #32]
 3068 00ba 1BB9     		cbnz	r3, .L246
1408:Drivers/STM32H7xx_HAL_Driver/Src/stm32h7xx_ll_usb.c ****   }
 3069              		.loc 1 1408 0
 3070 00bc A369     		ldr	r3, [r4, #24]
 3071 00be 43F01003 		orr	r3, r3, #16
 3072 00c2 A361     		str	r3, [r4, #24]
 3073              	.L246:
1412:Drivers/STM32H7xx_HAL_Driver/Src/stm32h7xx_ll_usb.c ****                     USB_OTG_GINTMSK_SOFM             | USB_OTG_GINTSTS_DISCINT | \
 3074              		.loc 1 1412 0
 3075 00c4 A269     		ldr	r2, [r4, #24]
 3076 00c6 094B     		ldr	r3, .L249+4
 3077 00c8 1343     		orrs	r3, r3, r2
 3078 00ca A361     		str	r3, [r4, #24]
1417:Drivers/STM32H7xx_HAL_Driver/Src/stm32h7xx_ll_usb.c **** 
 3079              		.loc 1 1417 0
 3080 00cc 0020     		movs	r0, #0
 3081 00ce BDE83840 		pop	{r3, r4, r5, lr}
 3082              	.LCFI50:
 3083              		.cfi_remember_state
 3084              		.cfi_restore 14
 3085              		.cfi_restore 5
 3086              		.cfi_restore 4
 3087              		.cfi_restore 3
 3088              		.cfi_def_cfa_offset 16
 3089              	.LVL317:
 3090 00d2 04B0     		add	sp, sp, #16
 3091              	.LCFI51:
 3092              		.cfi_def_cfa_offset 0
 3093 00d4 7047     		bx	lr
 3094              	.LVL318:
 3095              	.L244:
 3096              	.LCFI52:
 3097              		.cfi_restore_state
1400:Drivers/STM32H7xx_HAL_Driver/Src/stm32h7xx_ll_usb.c ****     USBx->DIEPTXF0_HNPTXFSIZ = (uint32_t)(((0x60U << 16) & USB_OTG_NPTXFD) | 0x80U);
 3098              		.loc 1 1400 0
 3099 00d6 8023     		movs	r3, #128
 3100 00d8 6362     		str	r3, [r4, #36]
1401:Drivers/STM32H7xx_HAL_Driver/Src/stm32h7xx_ll_usb.c ****     USBx->HPTXFSIZ = (uint32_t)(((0x40U << 16)& USB_OTG_HPTXFSIZ_PTXFD) | 0xE0U);
ARM GAS  /tmp/ccCJnE45.s 			page 88


 3101              		.loc 1 1401 0
 3102 00da 03F5C003 		add	r3, r3, #6291456
 3103 00de A362     		str	r3, [r4, #40]
1402:Drivers/STM32H7xx_HAL_Driver/Src/stm32h7xx_ll_usb.c ****   }
 3104              		.loc 1 1402 0
 3105 00e0 034B     		ldr	r3, .L249+8
 3106 00e2 C4F80031 		str	r3, [r4, #256]
 3107 00e6 E7E7     		b	.L245
 3108              	.L250:
 3109              		.align	2
 3110              	.L249:
 3111 00e8 0003E000 		.word	14680832
 3112 00ec 080020A3 		.word	-1558183928
 3113 00f0 E0004000 		.word	4194528
 3114              		.cfi_endproc
 3115              	.LFE377:
 3117              		.section	.text.USB_GetHostSpeed,"ax",%progbits
 3118              		.align	1
 3119              		.global	USB_GetHostSpeed
 3120              		.syntax unified
 3121              		.thumb
 3122              		.thumb_func
 3123              		.fpu fpv5-d16
 3125              	USB_GetHostSpeed:
 3126              	.LFB381:
1506:Drivers/STM32H7xx_HAL_Driver/Src/stm32h7xx_ll_usb.c **** 
1507:Drivers/STM32H7xx_HAL_Driver/Src/stm32h7xx_ll_usb.c **** /**
1508:Drivers/STM32H7xx_HAL_Driver/Src/stm32h7xx_ll_usb.c ****   * @brief  Return Host Core speed
1509:Drivers/STM32H7xx_HAL_Driver/Src/stm32h7xx_ll_usb.c ****   * @param  USBx  Selected device
1510:Drivers/STM32H7xx_HAL_Driver/Src/stm32h7xx_ll_usb.c ****   * @retval speed : Host speed
1511:Drivers/STM32H7xx_HAL_Driver/Src/stm32h7xx_ll_usb.c ****   *          This parameter can be one of these values:
1512:Drivers/STM32H7xx_HAL_Driver/Src/stm32h7xx_ll_usb.c ****   *            @arg HCD_SPEED_HIGH: High speed mode
1513:Drivers/STM32H7xx_HAL_Driver/Src/stm32h7xx_ll_usb.c ****   *            @arg HCD_SPEED_FULL: Full speed mode
1514:Drivers/STM32H7xx_HAL_Driver/Src/stm32h7xx_ll_usb.c ****   *            @arg HCD_SPEED_LOW: Low speed mode
1515:Drivers/STM32H7xx_HAL_Driver/Src/stm32h7xx_ll_usb.c ****   */
1516:Drivers/STM32H7xx_HAL_Driver/Src/stm32h7xx_ll_usb.c **** uint32_t USB_GetHostSpeed(USB_OTG_GlobalTypeDef *USBx)
1517:Drivers/STM32H7xx_HAL_Driver/Src/stm32h7xx_ll_usb.c **** {
 3127              		.loc 1 1517 0
 3128              		.cfi_startproc
 3129              		@ args = 0, pretend = 0, frame = 8
 3130              		@ frame_needed = 0, uses_anonymous_args = 0
 3131              		@ link register save eliminated.
 3132              	.LVL319:
 3133 0000 82B0     		sub	sp, sp, #8
 3134              	.LCFI53:
 3135              		.cfi_def_cfa_offset 8
 3136              	.LVL320:
1518:Drivers/STM32H7xx_HAL_Driver/Src/stm32h7xx_ll_usb.c ****   uint32_t USBx_BASE = (uint32_t)USBx;
1519:Drivers/STM32H7xx_HAL_Driver/Src/stm32h7xx_ll_usb.c ****   __IO uint32_t hprt0 = 0U;
 3137              		.loc 1 1519 0
 3138 0002 0023     		movs	r3, #0
 3139 0004 0193     		str	r3, [sp, #4]
1520:Drivers/STM32H7xx_HAL_Driver/Src/stm32h7xx_ll_usb.c **** 
1521:Drivers/STM32H7xx_HAL_Driver/Src/stm32h7xx_ll_usb.c ****   hprt0 = USBx_HPRT0;
 3140              		.loc 1 1521 0
 3141 0006 D0F84034 		ldr	r3, [r0, #1088]
 3142 000a 0193     		str	r3, [sp, #4]
ARM GAS  /tmp/ccCJnE45.s 			page 89


1522:Drivers/STM32H7xx_HAL_Driver/Src/stm32h7xx_ll_usb.c ****   return ((hprt0 & USB_OTG_HPRT_PSPD) >> 17);
 3143              		.loc 1 1522 0
 3144 000c 0198     		ldr	r0, [sp, #4]
 3145              	.LVL321:
1523:Drivers/STM32H7xx_HAL_Driver/Src/stm32h7xx_ll_usb.c **** }
 3146              		.loc 1 1523 0
 3147 000e C0F34140 		ubfx	r0, r0, #17, #2
 3148 0012 02B0     		add	sp, sp, #8
 3149              	.LCFI54:
 3150              		.cfi_def_cfa_offset 0
 3151              		@ sp needed
 3152 0014 7047     		bx	lr
 3153              		.cfi_endproc
 3154              	.LFE381:
 3156              		.section	.text.USB_GetCurrentFrame,"ax",%progbits
 3157              		.align	1
 3158              		.global	USB_GetCurrentFrame
 3159              		.syntax unified
 3160              		.thumb
 3161              		.thumb_func
 3162              		.fpu fpv5-d16
 3164              	USB_GetCurrentFrame:
 3165              	.LFB382:
1524:Drivers/STM32H7xx_HAL_Driver/Src/stm32h7xx_ll_usb.c **** 
1525:Drivers/STM32H7xx_HAL_Driver/Src/stm32h7xx_ll_usb.c **** /**
1526:Drivers/STM32H7xx_HAL_Driver/Src/stm32h7xx_ll_usb.c ****   * @brief  Return Host Current Frame number
1527:Drivers/STM32H7xx_HAL_Driver/Src/stm32h7xx_ll_usb.c ****   * @param  USBx  Selected device
1528:Drivers/STM32H7xx_HAL_Driver/Src/stm32h7xx_ll_usb.c ****   * @retval current frame number
1529:Drivers/STM32H7xx_HAL_Driver/Src/stm32h7xx_ll_usb.c **** */
1530:Drivers/STM32H7xx_HAL_Driver/Src/stm32h7xx_ll_usb.c **** uint32_t USB_GetCurrentFrame(USB_OTG_GlobalTypeDef *USBx)
1531:Drivers/STM32H7xx_HAL_Driver/Src/stm32h7xx_ll_usb.c **** {
 3166              		.loc 1 1531 0
 3167              		.cfi_startproc
 3168              		@ args = 0, pretend = 0, frame = 0
 3169              		@ frame_needed = 0, uses_anonymous_args = 0
 3170              		@ link register save eliminated.
 3171              	.LVL322:
1532:Drivers/STM32H7xx_HAL_Driver/Src/stm32h7xx_ll_usb.c ****   uint32_t USBx_BASE = (uint32_t)USBx;
1533:Drivers/STM32H7xx_HAL_Driver/Src/stm32h7xx_ll_usb.c **** 
1534:Drivers/STM32H7xx_HAL_Driver/Src/stm32h7xx_ll_usb.c ****   return (USBx_HOST->HFNUM & USB_OTG_HFNUM_FRNUM);
 3172              		.loc 1 1534 0
 3173 0000 00F58060 		add	r0, r0, #1024
 3174              	.LVL323:
 3175 0004 8068     		ldr	r0, [r0, #8]
 3176              	.LVL324:
1535:Drivers/STM32H7xx_HAL_Driver/Src/stm32h7xx_ll_usb.c **** }
 3177              		.loc 1 1535 0
 3178 0006 80B2     		uxth	r0, r0
 3179 0008 7047     		bx	lr
 3180              		.cfi_endproc
 3181              	.LFE382:
 3183              		.section	.text.USB_HC_Init,"ax",%progbits
 3184              		.align	1
 3185              		.global	USB_HC_Init
 3186              		.syntax unified
 3187              		.thumb
 3188              		.thumb_func
ARM GAS  /tmp/ccCJnE45.s 			page 90


 3189              		.fpu fpv5-d16
 3191              	USB_HC_Init:
 3192              	.LFB383:
1536:Drivers/STM32H7xx_HAL_Driver/Src/stm32h7xx_ll_usb.c **** 
1537:Drivers/STM32H7xx_HAL_Driver/Src/stm32h7xx_ll_usb.c **** /**
1538:Drivers/STM32H7xx_HAL_Driver/Src/stm32h7xx_ll_usb.c ****   * @brief  Initialize a host channel
1539:Drivers/STM32H7xx_HAL_Driver/Src/stm32h7xx_ll_usb.c ****   * @param  USBx  Selected device
1540:Drivers/STM32H7xx_HAL_Driver/Src/stm32h7xx_ll_usb.c ****   * @param  ch_num  Channel number
1541:Drivers/STM32H7xx_HAL_Driver/Src/stm32h7xx_ll_usb.c ****   *         This parameter can be a value from 1 to 15
1542:Drivers/STM32H7xx_HAL_Driver/Src/stm32h7xx_ll_usb.c ****   * @param  epnum  Endpoint number
1543:Drivers/STM32H7xx_HAL_Driver/Src/stm32h7xx_ll_usb.c ****   *          This parameter can be a value from 1 to 15
1544:Drivers/STM32H7xx_HAL_Driver/Src/stm32h7xx_ll_usb.c ****   * @param  dev_address  Current device address
1545:Drivers/STM32H7xx_HAL_Driver/Src/stm32h7xx_ll_usb.c ****   *          This parameter can be a value from 0 to 255
1546:Drivers/STM32H7xx_HAL_Driver/Src/stm32h7xx_ll_usb.c ****   * @param  speed  Current device speed
1547:Drivers/STM32H7xx_HAL_Driver/Src/stm32h7xx_ll_usb.c ****   *          This parameter can be one of these values:
1548:Drivers/STM32H7xx_HAL_Driver/Src/stm32h7xx_ll_usb.c ****   *            @arg USB_OTG_SPEED_HIGH: High speed mode
1549:Drivers/STM32H7xx_HAL_Driver/Src/stm32h7xx_ll_usb.c ****   *            @arg USB_OTG_SPEED_FULL: Full speed mode
1550:Drivers/STM32H7xx_HAL_Driver/Src/stm32h7xx_ll_usb.c ****   *            @arg USB_OTG_SPEED_LOW: Low speed mode
1551:Drivers/STM32H7xx_HAL_Driver/Src/stm32h7xx_ll_usb.c ****   * @param  ep_type  Endpoint Type
1552:Drivers/STM32H7xx_HAL_Driver/Src/stm32h7xx_ll_usb.c ****   *          This parameter can be one of these values:
1553:Drivers/STM32H7xx_HAL_Driver/Src/stm32h7xx_ll_usb.c ****   *            @arg EP_TYPE_CTRL: Control type
1554:Drivers/STM32H7xx_HAL_Driver/Src/stm32h7xx_ll_usb.c ****   *            @arg EP_TYPE_ISOC: Isochronous type
1555:Drivers/STM32H7xx_HAL_Driver/Src/stm32h7xx_ll_usb.c ****   *            @arg EP_TYPE_BULK: Bulk type
1556:Drivers/STM32H7xx_HAL_Driver/Src/stm32h7xx_ll_usb.c ****   *            @arg EP_TYPE_INTR: Interrupt type
1557:Drivers/STM32H7xx_HAL_Driver/Src/stm32h7xx_ll_usb.c ****   * @param  mps  Max Packet Size
1558:Drivers/STM32H7xx_HAL_Driver/Src/stm32h7xx_ll_usb.c ****   *          This parameter can be a value from 0 to32K
1559:Drivers/STM32H7xx_HAL_Driver/Src/stm32h7xx_ll_usb.c ****   * @retval HAL state
1560:Drivers/STM32H7xx_HAL_Driver/Src/stm32h7xx_ll_usb.c ****   */
1561:Drivers/STM32H7xx_HAL_Driver/Src/stm32h7xx_ll_usb.c **** HAL_StatusTypeDef USB_HC_Init(USB_OTG_GlobalTypeDef *USBx,
1562:Drivers/STM32H7xx_HAL_Driver/Src/stm32h7xx_ll_usb.c ****                               uint8_t ch_num,
1563:Drivers/STM32H7xx_HAL_Driver/Src/stm32h7xx_ll_usb.c ****                               uint8_t epnum,
1564:Drivers/STM32H7xx_HAL_Driver/Src/stm32h7xx_ll_usb.c ****                               uint8_t dev_address,
1565:Drivers/STM32H7xx_HAL_Driver/Src/stm32h7xx_ll_usb.c ****                               uint8_t speed,
1566:Drivers/STM32H7xx_HAL_Driver/Src/stm32h7xx_ll_usb.c ****                               uint8_t ep_type,
1567:Drivers/STM32H7xx_HAL_Driver/Src/stm32h7xx_ll_usb.c ****                               uint16_t mps)
1568:Drivers/STM32H7xx_HAL_Driver/Src/stm32h7xx_ll_usb.c **** {
 3193              		.loc 1 1568 0
 3194              		.cfi_startproc
 3195              		@ args = 12, pretend = 0, frame = 0
 3196              		@ frame_needed = 0, uses_anonymous_args = 0
 3197              	.LVL325:
 3198 0000 F0B5     		push	{r4, r5, r6, r7, lr}
 3199              	.LCFI55:
 3200              		.cfi_def_cfa_offset 20
 3201              		.cfi_offset 4, -20
 3202              		.cfi_offset 5, -16
 3203              		.cfi_offset 6, -12
 3204              		.cfi_offset 7, -8
 3205              		.cfi_offset 14, -4
 3206 0002 0646     		mov	r6, r0
 3207 0004 9DF81840 		ldrb	r4, [sp, #24]	@ zero_extendqisi2
 3208              	.LVL326:
1569:Drivers/STM32H7xx_HAL_Driver/Src/stm32h7xx_ll_usb.c ****   HAL_StatusTypeDef ret = HAL_OK;
1570:Drivers/STM32H7xx_HAL_Driver/Src/stm32h7xx_ll_usb.c ****   uint32_t USBx_BASE = (uint32_t)USBx;
1571:Drivers/STM32H7xx_HAL_Driver/Src/stm32h7xx_ll_usb.c ****   uint32_t HCcharEpDir, HCcharLowSpeed;
1572:Drivers/STM32H7xx_HAL_Driver/Src/stm32h7xx_ll_usb.c **** 
1573:Drivers/STM32H7xx_HAL_Driver/Src/stm32h7xx_ll_usb.c ****   /* Clear old interrupt conditions for this host channel. */
ARM GAS  /tmp/ccCJnE45.s 			page 91


1574:Drivers/STM32H7xx_HAL_Driver/Src/stm32h7xx_ll_usb.c ****   USBx_HC((uint32_t)ch_num)->HCINT = 0xFFFFFFFFU;
 3209              		.loc 1 1574 0
 3210 0008 00EB4115 		add	r5, r0, r1, lsl #5
 3211 000c 05F5A060 		add	r0, r5, #1280
 3212              	.LVL327:
 3213 0010 4FF0FF37 		mov	r7, #-1
 3214 0014 8760     		str	r7, [r0, #8]
1575:Drivers/STM32H7xx_HAL_Driver/Src/stm32h7xx_ll_usb.c **** 
1576:Drivers/STM32H7xx_HAL_Driver/Src/stm32h7xx_ll_usb.c ****   /* Enable channel interrupts required for this transfer. */
1577:Drivers/STM32H7xx_HAL_Driver/Src/stm32h7xx_ll_usb.c ****   switch (ep_type)
 3215              		.loc 1 1577 0
 3216 0016 032C     		cmp	r4, #3
 3217 0018 65D8     		bhi	.L264
 3218 001a DFE804F0 		tbb	[pc, r4]
 3219              	.L257:
 3220 001e 02       		.byte	(.L256-.L257)/2
 3221 001f 56       		.byte	(.L258-.L257)/2
 3222 0020 02       		.byte	(.L256-.L257)/2
 3223 0021 18       		.byte	(.L259-.L257)/2
 3224              		.p2align 1
 3225              	.L256:
1578:Drivers/STM32H7xx_HAL_Driver/Src/stm32h7xx_ll_usb.c ****   {
1579:Drivers/STM32H7xx_HAL_Driver/Src/stm32h7xx_ll_usb.c ****     case EP_TYPE_CTRL:
1580:Drivers/STM32H7xx_HAL_Driver/Src/stm32h7xx_ll_usb.c ****     case EP_TYPE_BULK:
1581:Drivers/STM32H7xx_HAL_Driver/Src/stm32h7xx_ll_usb.c ****       USBx_HC((uint32_t)ch_num)->HCINTMSK = USB_OTG_HCINTMSK_XFRCM  |
 3226              		.loc 1 1581 0
 3227 0022 40F29D47 		movw	r7, #1181
 3228 0026 C760     		str	r7, [r0, #12]
1582:Drivers/STM32H7xx_HAL_Driver/Src/stm32h7xx_ll_usb.c ****                                             USB_OTG_HCINTMSK_STALLM |
1583:Drivers/STM32H7xx_HAL_Driver/Src/stm32h7xx_ll_usb.c ****                                             USB_OTG_HCINTMSK_TXERRM |
1584:Drivers/STM32H7xx_HAL_Driver/Src/stm32h7xx_ll_usb.c ****                                             USB_OTG_HCINTMSK_DTERRM |
1585:Drivers/STM32H7xx_HAL_Driver/Src/stm32h7xx_ll_usb.c ****                                             USB_OTG_HCINTMSK_AHBERR |
1586:Drivers/STM32H7xx_HAL_Driver/Src/stm32h7xx_ll_usb.c ****                                             USB_OTG_HCINTMSK_NAKM;
1587:Drivers/STM32H7xx_HAL_Driver/Src/stm32h7xx_ll_usb.c **** 
1588:Drivers/STM32H7xx_HAL_Driver/Src/stm32h7xx_ll_usb.c ****       if ((epnum & 0x80U) == 0x80U)
 3229              		.loc 1 1588 0
 3230 0028 12F0800F 		tst	r2, #128
 3231 002c 09D1     		bne	.L271
1589:Drivers/STM32H7xx_HAL_Driver/Src/stm32h7xx_ll_usb.c ****       {
1590:Drivers/STM32H7xx_HAL_Driver/Src/stm32h7xx_ll_usb.c ****         USBx_HC((uint32_t)ch_num)->HCINTMSK |= USB_OTG_HCINTMSK_BBERRM;
1591:Drivers/STM32H7xx_HAL_Driver/Src/stm32h7xx_ll_usb.c ****       }
1592:Drivers/STM32H7xx_HAL_Driver/Src/stm32h7xx_ll_usb.c ****       else
1593:Drivers/STM32H7xx_HAL_Driver/Src/stm32h7xx_ll_usb.c ****       {
1594:Drivers/STM32H7xx_HAL_Driver/Src/stm32h7xx_ll_usb.c ****         if ((USBx->CID & (0x1U << 8)) != 0U)
 3232              		.loc 1 1594 0
 3233 002e F76B     		ldr	r7, [r6, #60]
 3234 0030 17F4807F 		tst	r7, #256
 3235 0034 59D0     		beq	.L265
1595:Drivers/STM32H7xx_HAL_Driver/Src/stm32h7xx_ll_usb.c ****         {
1596:Drivers/STM32H7xx_HAL_Driver/Src/stm32h7xx_ll_usb.c ****           USBx_HC((uint32_t)ch_num)->HCINTMSK |= (USB_OTG_HCINTMSK_NYET | USB_OTG_HCINTMSK_ACKM);
 3236              		.loc 1 1596 0
 3237 0036 C768     		ldr	r7, [r0, #12]
 3238 0038 47F06007 		orr	r7, r7, #96
 3239 003c C760     		str	r7, [r0, #12]
1569:Drivers/STM32H7xx_HAL_Driver/Src/stm32h7xx_ll_usb.c ****   uint32_t USBx_BASE = (uint32_t)USBx;
 3240              		.loc 1 1569 0
 3241 003e 0020     		movs	r0, #0
ARM GAS  /tmp/ccCJnE45.s 			page 92


 3242 0040 0CE0     		b	.L255
 3243              	.L271:
1590:Drivers/STM32H7xx_HAL_Driver/Src/stm32h7xx_ll_usb.c ****       }
 3244              		.loc 1 1590 0
 3245 0042 C768     		ldr	r7, [r0, #12]
 3246 0044 47F48077 		orr	r7, r7, #256
 3247 0048 C760     		str	r7, [r0, #12]
1569:Drivers/STM32H7xx_HAL_Driver/Src/stm32h7xx_ll_usb.c ****   uint32_t USBx_BASE = (uint32_t)USBx;
 3248              		.loc 1 1569 0
 3249 004a 0020     		movs	r0, #0
 3250 004c 06E0     		b	.L255
 3251              	.L259:
1597:Drivers/STM32H7xx_HAL_Driver/Src/stm32h7xx_ll_usb.c ****         }
1598:Drivers/STM32H7xx_HAL_Driver/Src/stm32h7xx_ll_usb.c ****       }
1599:Drivers/STM32H7xx_HAL_Driver/Src/stm32h7xx_ll_usb.c ****       break;
1600:Drivers/STM32H7xx_HAL_Driver/Src/stm32h7xx_ll_usb.c **** 
1601:Drivers/STM32H7xx_HAL_Driver/Src/stm32h7xx_ll_usb.c ****     case EP_TYPE_INTR:
1602:Drivers/STM32H7xx_HAL_Driver/Src/stm32h7xx_ll_usb.c ****       USBx_HC((uint32_t)ch_num)->HCINTMSK = USB_OTG_HCINTMSK_XFRCM  |
 3252              		.loc 1 1602 0
 3253 004e 40F29D67 		movw	r7, #1693
 3254 0052 C760     		str	r7, [r0, #12]
1603:Drivers/STM32H7xx_HAL_Driver/Src/stm32h7xx_ll_usb.c ****                                             USB_OTG_HCINTMSK_STALLM |
1604:Drivers/STM32H7xx_HAL_Driver/Src/stm32h7xx_ll_usb.c ****                                             USB_OTG_HCINTMSK_TXERRM |
1605:Drivers/STM32H7xx_HAL_Driver/Src/stm32h7xx_ll_usb.c ****                                             USB_OTG_HCINTMSK_DTERRM |
1606:Drivers/STM32H7xx_HAL_Driver/Src/stm32h7xx_ll_usb.c ****                                             USB_OTG_HCINTMSK_NAKM   |
1607:Drivers/STM32H7xx_HAL_Driver/Src/stm32h7xx_ll_usb.c ****                                             USB_OTG_HCINTMSK_AHBERR |
1608:Drivers/STM32H7xx_HAL_Driver/Src/stm32h7xx_ll_usb.c ****                                             USB_OTG_HCINTMSK_FRMORM;
1609:Drivers/STM32H7xx_HAL_Driver/Src/stm32h7xx_ll_usb.c **** 
1610:Drivers/STM32H7xx_HAL_Driver/Src/stm32h7xx_ll_usb.c ****       if ((epnum & 0x80U) == 0x80U)
 3255              		.loc 1 1610 0
 3256 0054 12F0800F 		tst	r2, #128
 3257 0058 31D1     		bne	.L272
1569:Drivers/STM32H7xx_HAL_Driver/Src/stm32h7xx_ll_usb.c ****   uint32_t USBx_BASE = (uint32_t)USBx;
 3258              		.loc 1 1569 0
 3259 005a 0020     		movs	r0, #0
 3260              	.L255:
 3261              	.LVL328:
1611:Drivers/STM32H7xx_HAL_Driver/Src/stm32h7xx_ll_usb.c ****       {
1612:Drivers/STM32H7xx_HAL_Driver/Src/stm32h7xx_ll_usb.c ****         USBx_HC((uint32_t)ch_num)->HCINTMSK |= USB_OTG_HCINTMSK_BBERRM;
1613:Drivers/STM32H7xx_HAL_Driver/Src/stm32h7xx_ll_usb.c ****       }
1614:Drivers/STM32H7xx_HAL_Driver/Src/stm32h7xx_ll_usb.c **** 
1615:Drivers/STM32H7xx_HAL_Driver/Src/stm32h7xx_ll_usb.c ****       break;
1616:Drivers/STM32H7xx_HAL_Driver/Src/stm32h7xx_ll_usb.c **** 
1617:Drivers/STM32H7xx_HAL_Driver/Src/stm32h7xx_ll_usb.c ****     case EP_TYPE_ISOC:
1618:Drivers/STM32H7xx_HAL_Driver/Src/stm32h7xx_ll_usb.c ****       USBx_HC((uint32_t)ch_num)->HCINTMSK = USB_OTG_HCINTMSK_XFRCM  |
1619:Drivers/STM32H7xx_HAL_Driver/Src/stm32h7xx_ll_usb.c ****                                             USB_OTG_HCINTMSK_ACKM   |
1620:Drivers/STM32H7xx_HAL_Driver/Src/stm32h7xx_ll_usb.c ****                                             USB_OTG_HCINTMSK_AHBERR |
1621:Drivers/STM32H7xx_HAL_Driver/Src/stm32h7xx_ll_usb.c ****                                             USB_OTG_HCINTMSK_FRMORM;
1622:Drivers/STM32H7xx_HAL_Driver/Src/stm32h7xx_ll_usb.c **** 
1623:Drivers/STM32H7xx_HAL_Driver/Src/stm32h7xx_ll_usb.c ****       if ((epnum & 0x80U) == 0x80U)
1624:Drivers/STM32H7xx_HAL_Driver/Src/stm32h7xx_ll_usb.c ****       {
1625:Drivers/STM32H7xx_HAL_Driver/Src/stm32h7xx_ll_usb.c ****         USBx_HC((uint32_t)ch_num)->HCINTMSK |= (USB_OTG_HCINTMSK_TXERRM | USB_OTG_HCINTMSK_BBERRM);
1626:Drivers/STM32H7xx_HAL_Driver/Src/stm32h7xx_ll_usb.c ****       }
1627:Drivers/STM32H7xx_HAL_Driver/Src/stm32h7xx_ll_usb.c ****       break;
1628:Drivers/STM32H7xx_HAL_Driver/Src/stm32h7xx_ll_usb.c **** 
1629:Drivers/STM32H7xx_HAL_Driver/Src/stm32h7xx_ll_usb.c ****     default:
1630:Drivers/STM32H7xx_HAL_Driver/Src/stm32h7xx_ll_usb.c ****       ret = HAL_ERROR;
ARM GAS  /tmp/ccCJnE45.s 			page 93


1631:Drivers/STM32H7xx_HAL_Driver/Src/stm32h7xx_ll_usb.c ****       break;
1632:Drivers/STM32H7xx_HAL_Driver/Src/stm32h7xx_ll_usb.c ****   }
1633:Drivers/STM32H7xx_HAL_Driver/Src/stm32h7xx_ll_usb.c **** 
1634:Drivers/STM32H7xx_HAL_Driver/Src/stm32h7xx_ll_usb.c ****   /* Enable the top level host channel interrupt. */
1635:Drivers/STM32H7xx_HAL_Driver/Src/stm32h7xx_ll_usb.c ****   USBx_HOST->HAINTMSK |= 1UL << (ch_num & 0xFU);
 3262              		.loc 1 1635 0
 3263 005c 06F5806E 		add	lr, r6, #1024
 3264 0060 D6F81874 		ldr	r7, [r6, #1048]
 3265 0064 01F00F01 		and	r1, r1, #15
 3266              	.LVL329:
 3267 0068 4FF0010C 		mov	ip, #1
 3268 006c 0CFA01F1 		lsl	r1, ip, r1
 3269 0070 3943     		orrs	r1, r1, r7
 3270 0072 C6F81814 		str	r1, [r6, #1048]
1636:Drivers/STM32H7xx_HAL_Driver/Src/stm32h7xx_ll_usb.c **** 
1637:Drivers/STM32H7xx_HAL_Driver/Src/stm32h7xx_ll_usb.c ****   /* Make sure host channel interrupts are enabled. */
1638:Drivers/STM32H7xx_HAL_Driver/Src/stm32h7xx_ll_usb.c ****   USBx->GINTMSK |= USB_OTG_GINTMSK_HCIM;
 3271              		.loc 1 1638 0
 3272 0076 B169     		ldr	r1, [r6, #24]
 3273 0078 41F00071 		orr	r1, r1, #33554432
 3274 007c B161     		str	r1, [r6, #24]
1639:Drivers/STM32H7xx_HAL_Driver/Src/stm32h7xx_ll_usb.c **** 
1640:Drivers/STM32H7xx_HAL_Driver/Src/stm32h7xx_ll_usb.c ****   /* Program the HCCHAR register */
1641:Drivers/STM32H7xx_HAL_Driver/Src/stm32h7xx_ll_usb.c ****   if ((epnum & 0x80U) == 0x80U)
 3275              		.loc 1 1641 0
 3276 007e 12F0800F 		tst	r2, #128
 3277 0082 34D1     		bne	.L273
1642:Drivers/STM32H7xx_HAL_Driver/Src/stm32h7xx_ll_usb.c ****   {
1643:Drivers/STM32H7xx_HAL_Driver/Src/stm32h7xx_ll_usb.c ****     HCcharEpDir = (0x1U << 15) & USB_OTG_HCCHAR_EPDIR;
1644:Drivers/STM32H7xx_HAL_Driver/Src/stm32h7xx_ll_usb.c ****   }
1645:Drivers/STM32H7xx_HAL_Driver/Src/stm32h7xx_ll_usb.c ****   else
1646:Drivers/STM32H7xx_HAL_Driver/Src/stm32h7xx_ll_usb.c ****   {
1647:Drivers/STM32H7xx_HAL_Driver/Src/stm32h7xx_ll_usb.c ****     HCcharEpDir = 0U;
 3278              		.loc 1 1647 0
 3279 0084 0026     		movs	r6, #0
 3280              	.LVL330:
 3281              	.L261:
1648:Drivers/STM32H7xx_HAL_Driver/Src/stm32h7xx_ll_usb.c ****   }
1649:Drivers/STM32H7xx_HAL_Driver/Src/stm32h7xx_ll_usb.c **** 
1650:Drivers/STM32H7xx_HAL_Driver/Src/stm32h7xx_ll_usb.c ****   if (speed == HPRT0_PRTSPD_LOW_SPEED)
 3282              		.loc 1 1650 0
 3283 0086 9DF81410 		ldrb	r1, [sp, #20]	@ zero_extendqisi2
 3284 008a 0229     		cmp	r1, #2
 3285 008c 32D0     		beq	.L274
1651:Drivers/STM32H7xx_HAL_Driver/Src/stm32h7xx_ll_usb.c ****   {
1652:Drivers/STM32H7xx_HAL_Driver/Src/stm32h7xx_ll_usb.c ****     HCcharLowSpeed = (0x1U << 17) & USB_OTG_HCCHAR_LSDEV;
1653:Drivers/STM32H7xx_HAL_Driver/Src/stm32h7xx_ll_usb.c ****   }
1654:Drivers/STM32H7xx_HAL_Driver/Src/stm32h7xx_ll_usb.c ****   else
1655:Drivers/STM32H7xx_HAL_Driver/Src/stm32h7xx_ll_usb.c ****   {
1656:Drivers/STM32H7xx_HAL_Driver/Src/stm32h7xx_ll_usb.c ****     HCcharLowSpeed = 0U;
 3286              		.loc 1 1656 0
 3287 008e 0021     		movs	r1, #0
 3288              	.L262:
 3289              	.LVL331:
1657:Drivers/STM32H7xx_HAL_Driver/Src/stm32h7xx_ll_usb.c ****   }
1658:Drivers/STM32H7xx_HAL_Driver/Src/stm32h7xx_ll_usb.c **** 
1659:Drivers/STM32H7xx_HAL_Driver/Src/stm32h7xx_ll_usb.c ****   USBx_HC((uint32_t)ch_num)->HCCHAR = (((uint32_t)dev_address << 22) & USB_OTG_HCCHAR_DAD) |
ARM GAS  /tmp/ccCJnE45.s 			page 94


 3290              		.loc 1 1659 0
 3291 0090 9B05     		lsls	r3, r3, #22
 3292              	.LVL332:
 3293 0092 03F0FE53 		and	r3, r3, #532676608
1660:Drivers/STM32H7xx_HAL_Driver/Src/stm32h7xx_ll_usb.c ****                                       ((((uint32_t)epnum & 0x7FU) << 11) & USB_OTG_HCCHAR_EPNUM) |
 3294              		.loc 1 1660 0
 3295 0096 D202     		lsls	r2, r2, #11
 3296              	.LVL333:
 3297 0098 02F4F042 		and	r2, r2, #30720
1659:Drivers/STM32H7xx_HAL_Driver/Src/stm32h7xx_ll_usb.c ****                                       ((((uint32_t)epnum & 0x7FU) << 11) & USB_OTG_HCCHAR_EPNUM) |
 3298              		.loc 1 1659 0
 3299 009c 1343     		orrs	r3, r3, r2
1661:Drivers/STM32H7xx_HAL_Driver/Src/stm32h7xx_ll_usb.c ****                                       (((uint32_t)ep_type << 18) & USB_OTG_HCCHAR_EPTYP) |
 3300              		.loc 1 1661 0
 3301 009e A204     		lsls	r2, r4, #18
 3302 00a0 02F44022 		and	r2, r2, #786432
1660:Drivers/STM32H7xx_HAL_Driver/Src/stm32h7xx_ll_usb.c ****                                       ((((uint32_t)epnum & 0x7FU) << 11) & USB_OTG_HCCHAR_EPNUM) |
 3303              		.loc 1 1660 0
 3304 00a4 1343     		orrs	r3, r3, r2
1662:Drivers/STM32H7xx_HAL_Driver/Src/stm32h7xx_ll_usb.c ****                                       ((uint32_t)mps & USB_OTG_HCCHAR_MPSIZ) | HCcharEpDir | HCchar
 3305              		.loc 1 1662 0
 3306 00a6 BDF81C20 		ldrh	r2, [sp, #28]
 3307 00aa C2F30A02 		ubfx	r2, r2, #0, #11
1661:Drivers/STM32H7xx_HAL_Driver/Src/stm32h7xx_ll_usb.c ****                                       (((uint32_t)ep_type << 18) & USB_OTG_HCCHAR_EPTYP) |
 3308              		.loc 1 1661 0
 3309 00ae 1343     		orrs	r3, r3, r2
 3310              		.loc 1 1662 0
 3311 00b0 3343     		orrs	r3, r3, r6
 3312 00b2 0B43     		orrs	r3, r3, r1
1659:Drivers/STM32H7xx_HAL_Driver/Src/stm32h7xx_ll_usb.c ****                                       ((((uint32_t)epnum & 0x7FU) << 11) & USB_OTG_HCCHAR_EPNUM) |
 3313              		.loc 1 1659 0
 3314 00b4 C5F80035 		str	r3, [r5, #1280]
1663:Drivers/STM32H7xx_HAL_Driver/Src/stm32h7xx_ll_usb.c **** 
1664:Drivers/STM32H7xx_HAL_Driver/Src/stm32h7xx_ll_usb.c ****   if (ep_type == EP_TYPE_INTR)
 3315              		.loc 1 1664 0
 3316 00b8 032C     		cmp	r4, #3
 3317 00ba 1ED0     		beq	.L275
 3318              	.L263:
1665:Drivers/STM32H7xx_HAL_Driver/Src/stm32h7xx_ll_usb.c ****   {
1666:Drivers/STM32H7xx_HAL_Driver/Src/stm32h7xx_ll_usb.c ****     USBx_HC((uint32_t)ch_num)->HCCHAR |= USB_OTG_HCCHAR_ODDFRM ;
1667:Drivers/STM32H7xx_HAL_Driver/Src/stm32h7xx_ll_usb.c ****   }
1668:Drivers/STM32H7xx_HAL_Driver/Src/stm32h7xx_ll_usb.c **** 
1669:Drivers/STM32H7xx_HAL_Driver/Src/stm32h7xx_ll_usb.c ****   return ret;
1670:Drivers/STM32H7xx_HAL_Driver/Src/stm32h7xx_ll_usb.c **** }
 3319              		.loc 1 1670 0
 3320 00bc F0BD     		pop	{r4, r5, r6, r7, pc}
 3321              	.LVL334:
 3322              	.L272:
1612:Drivers/STM32H7xx_HAL_Driver/Src/stm32h7xx_ll_usb.c ****       }
 3323              		.loc 1 1612 0
 3324 00be C768     		ldr	r7, [r0, #12]
 3325 00c0 47F48077 		orr	r7, r7, #256
 3326 00c4 C760     		str	r7, [r0, #12]
1569:Drivers/STM32H7xx_HAL_Driver/Src/stm32h7xx_ll_usb.c ****   uint32_t USBx_BASE = (uint32_t)USBx;
 3327              		.loc 1 1569 0
 3328 00c6 0020     		movs	r0, #0
 3329 00c8 C8E7     		b	.L255
ARM GAS  /tmp/ccCJnE45.s 			page 95


 3330              	.L258:
1618:Drivers/STM32H7xx_HAL_Driver/Src/stm32h7xx_ll_usb.c ****                                             USB_OTG_HCINTMSK_ACKM   |
 3331              		.loc 1 1618 0
 3332 00ca 40F22527 		movw	r7, #549
 3333 00ce C760     		str	r7, [r0, #12]
1623:Drivers/STM32H7xx_HAL_Driver/Src/stm32h7xx_ll_usb.c ****       {
 3334              		.loc 1 1623 0
 3335 00d0 12F0800F 		tst	r2, #128
 3336 00d4 01D1     		bne	.L276
1569:Drivers/STM32H7xx_HAL_Driver/Src/stm32h7xx_ll_usb.c ****   uint32_t USBx_BASE = (uint32_t)USBx;
 3337              		.loc 1 1569 0
 3338 00d6 0020     		movs	r0, #0
 3339 00d8 C0E7     		b	.L255
 3340              	.L276:
1625:Drivers/STM32H7xx_HAL_Driver/Src/stm32h7xx_ll_usb.c ****       }
 3341              		.loc 1 1625 0
 3342 00da C768     		ldr	r7, [r0, #12]
 3343 00dc 47F4C077 		orr	r7, r7, #384
 3344 00e0 C760     		str	r7, [r0, #12]
1569:Drivers/STM32H7xx_HAL_Driver/Src/stm32h7xx_ll_usb.c ****   uint32_t USBx_BASE = (uint32_t)USBx;
 3345              		.loc 1 1569 0
 3346 00e2 0020     		movs	r0, #0
 3347 00e4 BAE7     		b	.L255
 3348              	.L264:
1630:Drivers/STM32H7xx_HAL_Driver/Src/stm32h7xx_ll_usb.c ****       break;
 3349              		.loc 1 1630 0
 3350 00e6 0120     		movs	r0, #1
 3351 00e8 B8E7     		b	.L255
 3352              	.L265:
1569:Drivers/STM32H7xx_HAL_Driver/Src/stm32h7xx_ll_usb.c ****   uint32_t USBx_BASE = (uint32_t)USBx;
 3353              		.loc 1 1569 0
 3354 00ea 0020     		movs	r0, #0
 3355 00ec B6E7     		b	.L255
 3356              	.LVL335:
 3357              	.L273:
1643:Drivers/STM32H7xx_HAL_Driver/Src/stm32h7xx_ll_usb.c ****   }
 3358              		.loc 1 1643 0
 3359 00ee 4FF40046 		mov	r6, #32768
 3360              	.LVL336:
 3361 00f2 C8E7     		b	.L261
 3362              	.LVL337:
 3363              	.L274:
1652:Drivers/STM32H7xx_HAL_Driver/Src/stm32h7xx_ll_usb.c ****   }
 3364              		.loc 1 1652 0
 3365 00f4 4FF40031 		mov	r1, #131072
 3366 00f8 CAE7     		b	.L262
 3367              	.LVL338:
 3368              	.L275:
1666:Drivers/STM32H7xx_HAL_Driver/Src/stm32h7xx_ll_usb.c ****   }
 3369              		.loc 1 1666 0
 3370 00fa D5F80035 		ldr	r3, [r5, #1280]
 3371 00fe 43F00053 		orr	r3, r3, #536870912
 3372 0102 C5F80035 		str	r3, [r5, #1280]
 3373 0106 D9E7     		b	.L263
 3374              		.cfi_endproc
 3375              	.LFE383:
 3377              		.section	.text.USB_HC_ReadInterrupt,"ax",%progbits
ARM GAS  /tmp/ccCJnE45.s 			page 96


 3378              		.align	1
 3379              		.global	USB_HC_ReadInterrupt
 3380              		.syntax unified
 3381              		.thumb
 3382              		.thumb_func
 3383              		.fpu fpv5-d16
 3385              	USB_HC_ReadInterrupt:
 3386              	.LFB385:
1671:Drivers/STM32H7xx_HAL_Driver/Src/stm32h7xx_ll_usb.c **** 
1672:Drivers/STM32H7xx_HAL_Driver/Src/stm32h7xx_ll_usb.c **** /**
1673:Drivers/STM32H7xx_HAL_Driver/Src/stm32h7xx_ll_usb.c ****   * @brief  Start a transfer over a host channel
1674:Drivers/STM32H7xx_HAL_Driver/Src/stm32h7xx_ll_usb.c ****   * @param  USBx  Selected device
1675:Drivers/STM32H7xx_HAL_Driver/Src/stm32h7xx_ll_usb.c ****   * @param  hc  pointer to host channel structure
1676:Drivers/STM32H7xx_HAL_Driver/Src/stm32h7xx_ll_usb.c ****   * @param  dma USB dma enabled or disabled
1677:Drivers/STM32H7xx_HAL_Driver/Src/stm32h7xx_ll_usb.c ****   *          This parameter can be one of these values:
1678:Drivers/STM32H7xx_HAL_Driver/Src/stm32h7xx_ll_usb.c ****   *           0 : DMA feature not used
1679:Drivers/STM32H7xx_HAL_Driver/Src/stm32h7xx_ll_usb.c ****   *           1 : DMA feature used
1680:Drivers/STM32H7xx_HAL_Driver/Src/stm32h7xx_ll_usb.c ****   * @retval HAL state
1681:Drivers/STM32H7xx_HAL_Driver/Src/stm32h7xx_ll_usb.c ****   */
1682:Drivers/STM32H7xx_HAL_Driver/Src/stm32h7xx_ll_usb.c **** HAL_StatusTypeDef USB_HC_StartXfer(USB_OTG_GlobalTypeDef *USBx, USB_OTG_HCTypeDef *hc, uint8_t dma)
1683:Drivers/STM32H7xx_HAL_Driver/Src/stm32h7xx_ll_usb.c **** {
1684:Drivers/STM32H7xx_HAL_Driver/Src/stm32h7xx_ll_usb.c ****   uint32_t USBx_BASE = (uint32_t)USBx;
1685:Drivers/STM32H7xx_HAL_Driver/Src/stm32h7xx_ll_usb.c ****   uint32_t ch_num = (uint32_t)hc->ch_num;
1686:Drivers/STM32H7xx_HAL_Driver/Src/stm32h7xx_ll_usb.c ****   static __IO uint32_t tmpreg = 0U;
1687:Drivers/STM32H7xx_HAL_Driver/Src/stm32h7xx_ll_usb.c ****   uint8_t  is_oddframe;
1688:Drivers/STM32H7xx_HAL_Driver/Src/stm32h7xx_ll_usb.c ****   uint16_t len_words;
1689:Drivers/STM32H7xx_HAL_Driver/Src/stm32h7xx_ll_usb.c ****   uint16_t num_packets;
1690:Drivers/STM32H7xx_HAL_Driver/Src/stm32h7xx_ll_usb.c ****   uint16_t max_hc_pkt_count = 256U;
1691:Drivers/STM32H7xx_HAL_Driver/Src/stm32h7xx_ll_usb.c **** 
1692:Drivers/STM32H7xx_HAL_Driver/Src/stm32h7xx_ll_usb.c ****   if (((USBx->CID & (0x1U << 8)) != 0U) && (hc->speed == USBH_HS_SPEED))
1693:Drivers/STM32H7xx_HAL_Driver/Src/stm32h7xx_ll_usb.c ****   {
1694:Drivers/STM32H7xx_HAL_Driver/Src/stm32h7xx_ll_usb.c ****     if ((dma == 0U) && (hc->do_ping == 1U))
1695:Drivers/STM32H7xx_HAL_Driver/Src/stm32h7xx_ll_usb.c ****     {
1696:Drivers/STM32H7xx_HAL_Driver/Src/stm32h7xx_ll_usb.c ****       (void)USB_DoPing(USBx, hc->ch_num);
1697:Drivers/STM32H7xx_HAL_Driver/Src/stm32h7xx_ll_usb.c ****       return HAL_OK;
1698:Drivers/STM32H7xx_HAL_Driver/Src/stm32h7xx_ll_usb.c ****     }
1699:Drivers/STM32H7xx_HAL_Driver/Src/stm32h7xx_ll_usb.c ****     else if (dma == 1U)
1700:Drivers/STM32H7xx_HAL_Driver/Src/stm32h7xx_ll_usb.c ****     {
1701:Drivers/STM32H7xx_HAL_Driver/Src/stm32h7xx_ll_usb.c ****       USBx_HC(ch_num)->HCINTMSK &= ~(USB_OTG_HCINTMSK_NYET | USB_OTG_HCINTMSK_ACKM);
1702:Drivers/STM32H7xx_HAL_Driver/Src/stm32h7xx_ll_usb.c ****       hc->do_ping = 0U;
1703:Drivers/STM32H7xx_HAL_Driver/Src/stm32h7xx_ll_usb.c ****     }
1704:Drivers/STM32H7xx_HAL_Driver/Src/stm32h7xx_ll_usb.c ****     else
1705:Drivers/STM32H7xx_HAL_Driver/Src/stm32h7xx_ll_usb.c ****     {
1706:Drivers/STM32H7xx_HAL_Driver/Src/stm32h7xx_ll_usb.c ****       /* ... */
1707:Drivers/STM32H7xx_HAL_Driver/Src/stm32h7xx_ll_usb.c ****     }
1708:Drivers/STM32H7xx_HAL_Driver/Src/stm32h7xx_ll_usb.c ****   }
1709:Drivers/STM32H7xx_HAL_Driver/Src/stm32h7xx_ll_usb.c **** 
1710:Drivers/STM32H7xx_HAL_Driver/Src/stm32h7xx_ll_usb.c ****   /* Compute the expected number of packets associated to the transfer */
1711:Drivers/STM32H7xx_HAL_Driver/Src/stm32h7xx_ll_usb.c ****   if (hc->xfer_len > 0U)
1712:Drivers/STM32H7xx_HAL_Driver/Src/stm32h7xx_ll_usb.c ****   {
1713:Drivers/STM32H7xx_HAL_Driver/Src/stm32h7xx_ll_usb.c ****     num_packets = (uint16_t)((hc->xfer_len + hc->max_packet - 1U) / hc->max_packet);
1714:Drivers/STM32H7xx_HAL_Driver/Src/stm32h7xx_ll_usb.c **** 
1715:Drivers/STM32H7xx_HAL_Driver/Src/stm32h7xx_ll_usb.c ****     if (num_packets > max_hc_pkt_count)
1716:Drivers/STM32H7xx_HAL_Driver/Src/stm32h7xx_ll_usb.c ****     {
1717:Drivers/STM32H7xx_HAL_Driver/Src/stm32h7xx_ll_usb.c ****       num_packets = max_hc_pkt_count;
1718:Drivers/STM32H7xx_HAL_Driver/Src/stm32h7xx_ll_usb.c ****       hc->xfer_len = (uint32_t)num_packets * hc->max_packet;
1719:Drivers/STM32H7xx_HAL_Driver/Src/stm32h7xx_ll_usb.c ****     }
ARM GAS  /tmp/ccCJnE45.s 			page 97


1720:Drivers/STM32H7xx_HAL_Driver/Src/stm32h7xx_ll_usb.c ****   }
1721:Drivers/STM32H7xx_HAL_Driver/Src/stm32h7xx_ll_usb.c ****   else
1722:Drivers/STM32H7xx_HAL_Driver/Src/stm32h7xx_ll_usb.c ****   {
1723:Drivers/STM32H7xx_HAL_Driver/Src/stm32h7xx_ll_usb.c ****     num_packets = 1U;
1724:Drivers/STM32H7xx_HAL_Driver/Src/stm32h7xx_ll_usb.c ****   }
1725:Drivers/STM32H7xx_HAL_Driver/Src/stm32h7xx_ll_usb.c ****   if (hc->ep_is_in != 0U)
1726:Drivers/STM32H7xx_HAL_Driver/Src/stm32h7xx_ll_usb.c ****   {
1727:Drivers/STM32H7xx_HAL_Driver/Src/stm32h7xx_ll_usb.c ****     hc->xfer_len = (uint32_t)num_packets * hc->max_packet;
1728:Drivers/STM32H7xx_HAL_Driver/Src/stm32h7xx_ll_usb.c ****   }
1729:Drivers/STM32H7xx_HAL_Driver/Src/stm32h7xx_ll_usb.c **** 
1730:Drivers/STM32H7xx_HAL_Driver/Src/stm32h7xx_ll_usb.c ****   /* Initialize the HCTSIZn register */
1731:Drivers/STM32H7xx_HAL_Driver/Src/stm32h7xx_ll_usb.c ****   USBx_HC(ch_num)->HCTSIZ = (hc->xfer_len & USB_OTG_HCTSIZ_XFRSIZ) |
1732:Drivers/STM32H7xx_HAL_Driver/Src/stm32h7xx_ll_usb.c ****                             (((uint32_t)num_packets << 19) & USB_OTG_HCTSIZ_PKTCNT) |
1733:Drivers/STM32H7xx_HAL_Driver/Src/stm32h7xx_ll_usb.c ****                             (((uint32_t)hc->data_pid << 29) & USB_OTG_HCTSIZ_DPID);
1734:Drivers/STM32H7xx_HAL_Driver/Src/stm32h7xx_ll_usb.c **** 
1735:Drivers/STM32H7xx_HAL_Driver/Src/stm32h7xx_ll_usb.c ****   if (dma != 0U)
1736:Drivers/STM32H7xx_HAL_Driver/Src/stm32h7xx_ll_usb.c ****   {
1737:Drivers/STM32H7xx_HAL_Driver/Src/stm32h7xx_ll_usb.c ****     /* xfer_buff MUST be 32-bits aligned */
1738:Drivers/STM32H7xx_HAL_Driver/Src/stm32h7xx_ll_usb.c ****     USBx_HC(ch_num)->HCDMA = (uint32_t)hc->xfer_buff;
1739:Drivers/STM32H7xx_HAL_Driver/Src/stm32h7xx_ll_usb.c ****   }
1740:Drivers/STM32H7xx_HAL_Driver/Src/stm32h7xx_ll_usb.c **** 
1741:Drivers/STM32H7xx_HAL_Driver/Src/stm32h7xx_ll_usb.c ****   is_oddframe = (((uint32_t)USBx_HOST->HFNUM & 0x01U) != 0U) ? 0U : 1U;
1742:Drivers/STM32H7xx_HAL_Driver/Src/stm32h7xx_ll_usb.c ****   USBx_HC(ch_num)->HCCHAR &= ~USB_OTG_HCCHAR_ODDFRM;
1743:Drivers/STM32H7xx_HAL_Driver/Src/stm32h7xx_ll_usb.c ****   USBx_HC(ch_num)->HCCHAR |= (uint32_t)is_oddframe << 29;
1744:Drivers/STM32H7xx_HAL_Driver/Src/stm32h7xx_ll_usb.c **** 
1745:Drivers/STM32H7xx_HAL_Driver/Src/stm32h7xx_ll_usb.c ****   /* Set host channel enable */
1746:Drivers/STM32H7xx_HAL_Driver/Src/stm32h7xx_ll_usb.c ****   tmpreg = USBx_HC(ch_num)->HCCHAR;
1747:Drivers/STM32H7xx_HAL_Driver/Src/stm32h7xx_ll_usb.c ****   tmpreg &= ~USB_OTG_HCCHAR_CHDIS;
1748:Drivers/STM32H7xx_HAL_Driver/Src/stm32h7xx_ll_usb.c **** 
1749:Drivers/STM32H7xx_HAL_Driver/Src/stm32h7xx_ll_usb.c ****   /* make sure to set the correct ep direction */
1750:Drivers/STM32H7xx_HAL_Driver/Src/stm32h7xx_ll_usb.c ****   if (hc->ep_is_in != 0U)
1751:Drivers/STM32H7xx_HAL_Driver/Src/stm32h7xx_ll_usb.c ****   {
1752:Drivers/STM32H7xx_HAL_Driver/Src/stm32h7xx_ll_usb.c ****     tmpreg |= USB_OTG_HCCHAR_EPDIR;
1753:Drivers/STM32H7xx_HAL_Driver/Src/stm32h7xx_ll_usb.c ****   }
1754:Drivers/STM32H7xx_HAL_Driver/Src/stm32h7xx_ll_usb.c ****   else
1755:Drivers/STM32H7xx_HAL_Driver/Src/stm32h7xx_ll_usb.c ****   {
1756:Drivers/STM32H7xx_HAL_Driver/Src/stm32h7xx_ll_usb.c ****     tmpreg &= ~USB_OTG_HCCHAR_EPDIR;
1757:Drivers/STM32H7xx_HAL_Driver/Src/stm32h7xx_ll_usb.c ****   }
1758:Drivers/STM32H7xx_HAL_Driver/Src/stm32h7xx_ll_usb.c ****   tmpreg |= USB_OTG_HCCHAR_CHENA;
1759:Drivers/STM32H7xx_HAL_Driver/Src/stm32h7xx_ll_usb.c ****   USBx_HC(ch_num)->HCCHAR = tmpreg;
1760:Drivers/STM32H7xx_HAL_Driver/Src/stm32h7xx_ll_usb.c **** 
1761:Drivers/STM32H7xx_HAL_Driver/Src/stm32h7xx_ll_usb.c ****   if (dma == 0U) /* Slave mode */
1762:Drivers/STM32H7xx_HAL_Driver/Src/stm32h7xx_ll_usb.c ****   {
1763:Drivers/STM32H7xx_HAL_Driver/Src/stm32h7xx_ll_usb.c ****     if ((hc->ep_is_in == 0U) && (hc->xfer_len > 0U))
1764:Drivers/STM32H7xx_HAL_Driver/Src/stm32h7xx_ll_usb.c ****     {
1765:Drivers/STM32H7xx_HAL_Driver/Src/stm32h7xx_ll_usb.c ****       switch (hc->ep_type)
1766:Drivers/STM32H7xx_HAL_Driver/Src/stm32h7xx_ll_usb.c ****       {
1767:Drivers/STM32H7xx_HAL_Driver/Src/stm32h7xx_ll_usb.c ****         /* Non periodic transfer */
1768:Drivers/STM32H7xx_HAL_Driver/Src/stm32h7xx_ll_usb.c ****         case EP_TYPE_CTRL:
1769:Drivers/STM32H7xx_HAL_Driver/Src/stm32h7xx_ll_usb.c ****         case EP_TYPE_BULK:
1770:Drivers/STM32H7xx_HAL_Driver/Src/stm32h7xx_ll_usb.c **** 
1771:Drivers/STM32H7xx_HAL_Driver/Src/stm32h7xx_ll_usb.c ****           len_words = (uint16_t)((hc->xfer_len + 3U) / 4U);
1772:Drivers/STM32H7xx_HAL_Driver/Src/stm32h7xx_ll_usb.c **** 
1773:Drivers/STM32H7xx_HAL_Driver/Src/stm32h7xx_ll_usb.c ****           /* check if there is enough space in FIFO space */
1774:Drivers/STM32H7xx_HAL_Driver/Src/stm32h7xx_ll_usb.c ****           if (len_words > (USBx->HNPTXSTS & 0xFFFFU))
1775:Drivers/STM32H7xx_HAL_Driver/Src/stm32h7xx_ll_usb.c ****           {
1776:Drivers/STM32H7xx_HAL_Driver/Src/stm32h7xx_ll_usb.c ****             /* need to process data in nptxfempty interrupt */
ARM GAS  /tmp/ccCJnE45.s 			page 98


1777:Drivers/STM32H7xx_HAL_Driver/Src/stm32h7xx_ll_usb.c ****             USBx->GINTMSK |= USB_OTG_GINTMSK_NPTXFEM;
1778:Drivers/STM32H7xx_HAL_Driver/Src/stm32h7xx_ll_usb.c ****           }
1779:Drivers/STM32H7xx_HAL_Driver/Src/stm32h7xx_ll_usb.c ****           break;
1780:Drivers/STM32H7xx_HAL_Driver/Src/stm32h7xx_ll_usb.c **** 
1781:Drivers/STM32H7xx_HAL_Driver/Src/stm32h7xx_ll_usb.c ****         /* Periodic transfer */
1782:Drivers/STM32H7xx_HAL_Driver/Src/stm32h7xx_ll_usb.c ****         case EP_TYPE_INTR:
1783:Drivers/STM32H7xx_HAL_Driver/Src/stm32h7xx_ll_usb.c ****         case EP_TYPE_ISOC:
1784:Drivers/STM32H7xx_HAL_Driver/Src/stm32h7xx_ll_usb.c ****           len_words = (uint16_t)((hc->xfer_len + 3U) / 4U);
1785:Drivers/STM32H7xx_HAL_Driver/Src/stm32h7xx_ll_usb.c ****           /* check if there is enough space in FIFO space */
1786:Drivers/STM32H7xx_HAL_Driver/Src/stm32h7xx_ll_usb.c ****           if (len_words > (USBx_HOST->HPTXSTS & 0xFFFFU)) /* split the transfer */
1787:Drivers/STM32H7xx_HAL_Driver/Src/stm32h7xx_ll_usb.c ****           {
1788:Drivers/STM32H7xx_HAL_Driver/Src/stm32h7xx_ll_usb.c ****             /* need to process data in ptxfempty interrupt */
1789:Drivers/STM32H7xx_HAL_Driver/Src/stm32h7xx_ll_usb.c ****             USBx->GINTMSK |= USB_OTG_GINTMSK_PTXFEM;
1790:Drivers/STM32H7xx_HAL_Driver/Src/stm32h7xx_ll_usb.c ****           }
1791:Drivers/STM32H7xx_HAL_Driver/Src/stm32h7xx_ll_usb.c ****           break;
1792:Drivers/STM32H7xx_HAL_Driver/Src/stm32h7xx_ll_usb.c **** 
1793:Drivers/STM32H7xx_HAL_Driver/Src/stm32h7xx_ll_usb.c ****         default:
1794:Drivers/STM32H7xx_HAL_Driver/Src/stm32h7xx_ll_usb.c ****           break;
1795:Drivers/STM32H7xx_HAL_Driver/Src/stm32h7xx_ll_usb.c ****       }
1796:Drivers/STM32H7xx_HAL_Driver/Src/stm32h7xx_ll_usb.c **** 
1797:Drivers/STM32H7xx_HAL_Driver/Src/stm32h7xx_ll_usb.c ****       /* Write packet into the Tx FIFO. */
1798:Drivers/STM32H7xx_HAL_Driver/Src/stm32h7xx_ll_usb.c ****       (void)USB_WritePacket(USBx, hc->xfer_buff, hc->ch_num, (uint16_t)hc->xfer_len, 0);
1799:Drivers/STM32H7xx_HAL_Driver/Src/stm32h7xx_ll_usb.c ****     }
1800:Drivers/STM32H7xx_HAL_Driver/Src/stm32h7xx_ll_usb.c ****   }
1801:Drivers/STM32H7xx_HAL_Driver/Src/stm32h7xx_ll_usb.c **** 
1802:Drivers/STM32H7xx_HAL_Driver/Src/stm32h7xx_ll_usb.c ****   return HAL_OK;
1803:Drivers/STM32H7xx_HAL_Driver/Src/stm32h7xx_ll_usb.c **** }
1804:Drivers/STM32H7xx_HAL_Driver/Src/stm32h7xx_ll_usb.c **** 
1805:Drivers/STM32H7xx_HAL_Driver/Src/stm32h7xx_ll_usb.c **** /**
1806:Drivers/STM32H7xx_HAL_Driver/Src/stm32h7xx_ll_usb.c ****   * @brief Read all host channel interrupts status
1807:Drivers/STM32H7xx_HAL_Driver/Src/stm32h7xx_ll_usb.c ****   * @param  USBx  Selected device
1808:Drivers/STM32H7xx_HAL_Driver/Src/stm32h7xx_ll_usb.c ****   * @retval HAL state
1809:Drivers/STM32H7xx_HAL_Driver/Src/stm32h7xx_ll_usb.c ****   */
1810:Drivers/STM32H7xx_HAL_Driver/Src/stm32h7xx_ll_usb.c **** uint32_t USB_HC_ReadInterrupt(USB_OTG_GlobalTypeDef *USBx)
1811:Drivers/STM32H7xx_HAL_Driver/Src/stm32h7xx_ll_usb.c **** {
 3387              		.loc 1 1811 0
 3388              		.cfi_startproc
 3389              		@ args = 0, pretend = 0, frame = 0
 3390              		@ frame_needed = 0, uses_anonymous_args = 0
 3391              		@ link register save eliminated.
 3392              	.LVL339:
1812:Drivers/STM32H7xx_HAL_Driver/Src/stm32h7xx_ll_usb.c ****   uint32_t USBx_BASE = (uint32_t)USBx;
1813:Drivers/STM32H7xx_HAL_Driver/Src/stm32h7xx_ll_usb.c **** 
1814:Drivers/STM32H7xx_HAL_Driver/Src/stm32h7xx_ll_usb.c ****   return ((USBx_HOST->HAINT) & 0xFFFFU);
 3393              		.loc 1 1814 0
 3394 0000 00F58060 		add	r0, r0, #1024
 3395              	.LVL340:
 3396 0004 4069     		ldr	r0, [r0, #20]
 3397              	.LVL341:
1815:Drivers/STM32H7xx_HAL_Driver/Src/stm32h7xx_ll_usb.c **** }
 3398              		.loc 1 1815 0
 3399 0006 80B2     		uxth	r0, r0
 3400 0008 7047     		bx	lr
 3401              		.cfi_endproc
 3402              	.LFE385:
 3404              		.section	.text.USB_HC_Halt,"ax",%progbits
 3405              		.align	1
ARM GAS  /tmp/ccCJnE45.s 			page 99


 3406              		.global	USB_HC_Halt
 3407              		.syntax unified
 3408              		.thumb
 3409              		.thumb_func
 3410              		.fpu fpv5-d16
 3412              	USB_HC_Halt:
 3413              	.LFB386:
1816:Drivers/STM32H7xx_HAL_Driver/Src/stm32h7xx_ll_usb.c **** 
1817:Drivers/STM32H7xx_HAL_Driver/Src/stm32h7xx_ll_usb.c **** /**
1818:Drivers/STM32H7xx_HAL_Driver/Src/stm32h7xx_ll_usb.c ****   * @brief  Halt a host channel
1819:Drivers/STM32H7xx_HAL_Driver/Src/stm32h7xx_ll_usb.c ****   * @param  USBx  Selected device
1820:Drivers/STM32H7xx_HAL_Driver/Src/stm32h7xx_ll_usb.c ****   * @param  hc_num  Host Channel number
1821:Drivers/STM32H7xx_HAL_Driver/Src/stm32h7xx_ll_usb.c ****   *         This parameter can be a value from 1 to 15
1822:Drivers/STM32H7xx_HAL_Driver/Src/stm32h7xx_ll_usb.c ****   * @retval HAL state
1823:Drivers/STM32H7xx_HAL_Driver/Src/stm32h7xx_ll_usb.c ****   */
1824:Drivers/STM32H7xx_HAL_Driver/Src/stm32h7xx_ll_usb.c **** HAL_StatusTypeDef USB_HC_Halt(USB_OTG_GlobalTypeDef *USBx, uint8_t hc_num)
1825:Drivers/STM32H7xx_HAL_Driver/Src/stm32h7xx_ll_usb.c **** {
 3414              		.loc 1 1825 0
 3415              		.cfi_startproc
 3416              		@ args = 0, pretend = 0, frame = 0
 3417              		@ frame_needed = 0, uses_anonymous_args = 0
 3418              		@ link register save eliminated.
 3419              	.LVL342:
 3420 0000 10B4     		push	{r4}
 3421              	.LCFI56:
 3422              		.cfi_def_cfa_offset 4
 3423              		.cfi_offset 4, -4
 3424              	.LVL343:
1826:Drivers/STM32H7xx_HAL_Driver/Src/stm32h7xx_ll_usb.c ****   uint32_t USBx_BASE = (uint32_t)USBx;
1827:Drivers/STM32H7xx_HAL_Driver/Src/stm32h7xx_ll_usb.c ****   uint32_t hcnum = (uint32_t)hc_num;
1828:Drivers/STM32H7xx_HAL_Driver/Src/stm32h7xx_ll_usb.c ****   uint32_t count = 0U;
1829:Drivers/STM32H7xx_HAL_Driver/Src/stm32h7xx_ll_usb.c ****   uint32_t HcEpType = (USBx_HC(hcnum)->HCCHAR & USB_OTG_HCCHAR_EPTYP) >> 18;
 3425              		.loc 1 1829 0
 3426 0002 00EB4111 		add	r1, r0, r1, lsl #5
 3427              	.LVL344:
 3428 0006 01F5A062 		add	r2, r1, #1280
 3429 000a D1F80035 		ldr	r3, [r1, #1280]
 3430 000e C3F38143 		ubfx	r3, r3, #18, #2
 3431              	.LVL345:
1830:Drivers/STM32H7xx_HAL_Driver/Src/stm32h7xx_ll_usb.c **** 
1831:Drivers/STM32H7xx_HAL_Driver/Src/stm32h7xx_ll_usb.c ****   /* Check for space in the request queue to issue the halt. */
1832:Drivers/STM32H7xx_HAL_Driver/Src/stm32h7xx_ll_usb.c ****   if ((HcEpType == HCCHAR_CTRL) || (HcEpType == HCCHAR_BULK))
 3432              		.loc 1 1832 0
 3433 0012 022B     		cmp	r3, #2
 3434 0014 14BF     		ite	ne
 3435 0016 0024     		movne	r4, #0
 3436 0018 0124     		moveq	r4, #1
 3437 001a 002B     		cmp	r3, #0
 3438 001c 14BF     		ite	ne
 3439 001e 2346     		movne	r3, r4
 3440 0020 0123     		moveq	r3, #1
 3441              	.LVL346:
 3442 0022 5BB3     		cbz	r3, .L279
1833:Drivers/STM32H7xx_HAL_Driver/Src/stm32h7xx_ll_usb.c ****   {
1834:Drivers/STM32H7xx_HAL_Driver/Src/stm32h7xx_ll_usb.c ****     USBx_HC(hcnum)->HCCHAR |= USB_OTG_HCCHAR_CHDIS;
 3443              		.loc 1 1834 0
 3444 0024 D1F80035 		ldr	r3, [r1, #1280]
ARM GAS  /tmp/ccCJnE45.s 			page 100


 3445 0028 43F08043 		orr	r3, r3, #1073741824
 3446 002c C1F80035 		str	r3, [r1, #1280]
1835:Drivers/STM32H7xx_HAL_Driver/Src/stm32h7xx_ll_usb.c **** 
1836:Drivers/STM32H7xx_HAL_Driver/Src/stm32h7xx_ll_usb.c ****     if ((USBx->HNPTXSTS & (0xFFU << 16)) == 0U)
 3447              		.loc 1 1836 0
 3448 0030 C36A     		ldr	r3, [r0, #44]
 3449 0032 13F47F0F 		tst	r3, #16711680
 3450 0036 1AD1     		bne	.L280
1837:Drivers/STM32H7xx_HAL_Driver/Src/stm32h7xx_ll_usb.c ****     {
1838:Drivers/STM32H7xx_HAL_Driver/Src/stm32h7xx_ll_usb.c ****       USBx_HC(hcnum)->HCCHAR &= ~USB_OTG_HCCHAR_CHENA;
 3451              		.loc 1 1838 0
 3452 0038 D1F80035 		ldr	r3, [r1, #1280]
 3453 003c 23F00043 		bic	r3, r3, #-2147483648
 3454 0040 C1F80035 		str	r3, [r1, #1280]
1839:Drivers/STM32H7xx_HAL_Driver/Src/stm32h7xx_ll_usb.c ****       USBx_HC(hcnum)->HCCHAR |= USB_OTG_HCCHAR_CHENA;
 3455              		.loc 1 1839 0
 3456 0044 D1F80035 		ldr	r3, [r1, #1280]
 3457 0048 43F00043 		orr	r3, r3, #-2147483648
 3458 004c C1F80035 		str	r3, [r1, #1280]
1840:Drivers/STM32H7xx_HAL_Driver/Src/stm32h7xx_ll_usb.c ****       USBx_HC(hcnum)->HCCHAR &= ~USB_OTG_HCCHAR_EPDIR;
 3459              		.loc 1 1840 0
 3460 0050 D1F80035 		ldr	r3, [r1, #1280]
 3461 0054 23F40043 		bic	r3, r3, #32768
 3462 0058 C1F80035 		str	r3, [r1, #1280]
1828:Drivers/STM32H7xx_HAL_Driver/Src/stm32h7xx_ll_usb.c ****   uint32_t HcEpType = (USBx_HC(hcnum)->HCCHAR & USB_OTG_HCCHAR_EPTYP) >> 18;
 3463              		.loc 1 1828 0
 3464 005c 0023     		movs	r3, #0
 3465              	.LVL347:
 3466              	.L282:
1841:Drivers/STM32H7xx_HAL_Driver/Src/stm32h7xx_ll_usb.c ****       do
1842:Drivers/STM32H7xx_HAL_Driver/Src/stm32h7xx_ll_usb.c ****       {
1843:Drivers/STM32H7xx_HAL_Driver/Src/stm32h7xx_ll_usb.c ****         if (++count > 1000U)
 3467              		.loc 1 1843 0
 3468 005e 0133     		adds	r3, r3, #1
 3469              	.LVL348:
 3470 0060 B3F57A7F 		cmp	r3, #1000
 3471 0064 36D8     		bhi	.L281
1844:Drivers/STM32H7xx_HAL_Driver/Src/stm32h7xx_ll_usb.c ****         {
1845:Drivers/STM32H7xx_HAL_Driver/Src/stm32h7xx_ll_usb.c ****           break;
1846:Drivers/STM32H7xx_HAL_Driver/Src/stm32h7xx_ll_usb.c ****         }
1847:Drivers/STM32H7xx_HAL_Driver/Src/stm32h7xx_ll_usb.c ****       }
1848:Drivers/STM32H7xx_HAL_Driver/Src/stm32h7xx_ll_usb.c ****       while ((USBx_HC(hcnum)->HCCHAR & USB_OTG_HCCHAR_CHENA) == USB_OTG_HCCHAR_CHENA);
 3472              		.loc 1 1848 0
 3473 0066 1168     		ldr	r1, [r2]
 3474 0068 0029     		cmp	r1, #0
 3475 006a F8DB     		blt	.L282
 3476 006c 32E0     		b	.L281
 3477              	.LVL349:
 3478              	.L280:
1849:Drivers/STM32H7xx_HAL_Driver/Src/stm32h7xx_ll_usb.c ****     }
1850:Drivers/STM32H7xx_HAL_Driver/Src/stm32h7xx_ll_usb.c ****     else
1851:Drivers/STM32H7xx_HAL_Driver/Src/stm32h7xx_ll_usb.c ****     {
1852:Drivers/STM32H7xx_HAL_Driver/Src/stm32h7xx_ll_usb.c ****       USBx_HC(hcnum)->HCCHAR |= USB_OTG_HCCHAR_CHENA;
 3479              		.loc 1 1852 0
 3480 006e D1F80035 		ldr	r3, [r1, #1280]
 3481 0072 43F00043 		orr	r3, r3, #-2147483648
 3482 0076 C1F80035 		str	r3, [r1, #1280]
ARM GAS  /tmp/ccCJnE45.s 			page 101


 3483 007a 2BE0     		b	.L281
 3484              	.L279:
1853:Drivers/STM32H7xx_HAL_Driver/Src/stm32h7xx_ll_usb.c ****     }
1854:Drivers/STM32H7xx_HAL_Driver/Src/stm32h7xx_ll_usb.c ****   }
1855:Drivers/STM32H7xx_HAL_Driver/Src/stm32h7xx_ll_usb.c ****   else
1856:Drivers/STM32H7xx_HAL_Driver/Src/stm32h7xx_ll_usb.c ****   {
1857:Drivers/STM32H7xx_HAL_Driver/Src/stm32h7xx_ll_usb.c ****     USBx_HC(hcnum)->HCCHAR |= USB_OTG_HCCHAR_CHDIS;
 3485              		.loc 1 1857 0
 3486 007c D1F80035 		ldr	r3, [r1, #1280]
 3487 0080 43F08043 		orr	r3, r3, #1073741824
 3488 0084 C1F80035 		str	r3, [r1, #1280]
1858:Drivers/STM32H7xx_HAL_Driver/Src/stm32h7xx_ll_usb.c **** 
1859:Drivers/STM32H7xx_HAL_Driver/Src/stm32h7xx_ll_usb.c ****     if ((USBx_HOST->HPTXSTS & (0xFFU << 16)) == 0U)
 3489              		.loc 1 1859 0
 3490 0088 D0F81034 		ldr	r3, [r0, #1040]
 3491 008c 13F47F0F 		tst	r3, #16711680
 3492 0090 1AD1     		bne	.L283
1860:Drivers/STM32H7xx_HAL_Driver/Src/stm32h7xx_ll_usb.c ****     {
1861:Drivers/STM32H7xx_HAL_Driver/Src/stm32h7xx_ll_usb.c ****       USBx_HC(hcnum)->HCCHAR &= ~USB_OTG_HCCHAR_CHENA;
 3493              		.loc 1 1861 0
 3494 0092 D1F80035 		ldr	r3, [r1, #1280]
 3495 0096 23F00043 		bic	r3, r3, #-2147483648
 3496 009a C1F80035 		str	r3, [r1, #1280]
1862:Drivers/STM32H7xx_HAL_Driver/Src/stm32h7xx_ll_usb.c ****       USBx_HC(hcnum)->HCCHAR |= USB_OTG_HCCHAR_CHENA;
 3497              		.loc 1 1862 0
 3498 009e D1F80035 		ldr	r3, [r1, #1280]
 3499 00a2 43F00043 		orr	r3, r3, #-2147483648
 3500 00a6 C1F80035 		str	r3, [r1, #1280]
1863:Drivers/STM32H7xx_HAL_Driver/Src/stm32h7xx_ll_usb.c ****       USBx_HC(hcnum)->HCCHAR &= ~USB_OTG_HCCHAR_EPDIR;
 3501              		.loc 1 1863 0
 3502 00aa D1F80035 		ldr	r3, [r1, #1280]
 3503 00ae 23F40043 		bic	r3, r3, #32768
 3504 00b2 C1F80035 		str	r3, [r1, #1280]
1828:Drivers/STM32H7xx_HAL_Driver/Src/stm32h7xx_ll_usb.c ****   uint32_t HcEpType = (USBx_HC(hcnum)->HCCHAR & USB_OTG_HCCHAR_EPTYP) >> 18;
 3505              		.loc 1 1828 0
 3506 00b6 0023     		movs	r3, #0
 3507              	.LVL350:
 3508              	.L284:
1864:Drivers/STM32H7xx_HAL_Driver/Src/stm32h7xx_ll_usb.c ****       do
1865:Drivers/STM32H7xx_HAL_Driver/Src/stm32h7xx_ll_usb.c ****       {
1866:Drivers/STM32H7xx_HAL_Driver/Src/stm32h7xx_ll_usb.c ****         if (++count > 1000U)
 3509              		.loc 1 1866 0
 3510 00b8 0133     		adds	r3, r3, #1
 3511              	.LVL351:
 3512 00ba B3F57A7F 		cmp	r3, #1000
 3513 00be 09D8     		bhi	.L281
1867:Drivers/STM32H7xx_HAL_Driver/Src/stm32h7xx_ll_usb.c ****         {
1868:Drivers/STM32H7xx_HAL_Driver/Src/stm32h7xx_ll_usb.c ****           break;
1869:Drivers/STM32H7xx_HAL_Driver/Src/stm32h7xx_ll_usb.c ****         }
1870:Drivers/STM32H7xx_HAL_Driver/Src/stm32h7xx_ll_usb.c ****       }
1871:Drivers/STM32H7xx_HAL_Driver/Src/stm32h7xx_ll_usb.c ****       while ((USBx_HC(hcnum)->HCCHAR & USB_OTG_HCCHAR_CHENA) == USB_OTG_HCCHAR_CHENA);
 3514              		.loc 1 1871 0
 3515 00c0 1168     		ldr	r1, [r2]
 3516 00c2 0029     		cmp	r1, #0
 3517 00c4 F8DB     		blt	.L284
 3518 00c6 05E0     		b	.L281
 3519              	.LVL352:
ARM GAS  /tmp/ccCJnE45.s 			page 102


 3520              	.L283:
1872:Drivers/STM32H7xx_HAL_Driver/Src/stm32h7xx_ll_usb.c ****     }
1873:Drivers/STM32H7xx_HAL_Driver/Src/stm32h7xx_ll_usb.c ****     else
1874:Drivers/STM32H7xx_HAL_Driver/Src/stm32h7xx_ll_usb.c ****     {
1875:Drivers/STM32H7xx_HAL_Driver/Src/stm32h7xx_ll_usb.c ****       USBx_HC(hcnum)->HCCHAR |= USB_OTG_HCCHAR_CHENA;
 3521              		.loc 1 1875 0
 3522 00c8 D1F80035 		ldr	r3, [r1, #1280]
 3523 00cc 43F00043 		orr	r3, r3, #-2147483648
 3524 00d0 C1F80035 		str	r3, [r1, #1280]
 3525              	.LVL353:
 3526              	.L281:
1876:Drivers/STM32H7xx_HAL_Driver/Src/stm32h7xx_ll_usb.c ****     }
1877:Drivers/STM32H7xx_HAL_Driver/Src/stm32h7xx_ll_usb.c ****   }
1878:Drivers/STM32H7xx_HAL_Driver/Src/stm32h7xx_ll_usb.c **** 
1879:Drivers/STM32H7xx_HAL_Driver/Src/stm32h7xx_ll_usb.c ****   return HAL_OK;
1880:Drivers/STM32H7xx_HAL_Driver/Src/stm32h7xx_ll_usb.c **** }
 3527              		.loc 1 1880 0
 3528 00d4 0020     		movs	r0, #0
 3529              	.LVL354:
 3530 00d6 5DF8044B 		ldr	r4, [sp], #4
 3531              	.LCFI57:
 3532              		.cfi_restore 4
 3533              		.cfi_def_cfa_offset 0
 3534 00da 7047     		bx	lr
 3535              		.cfi_endproc
 3536              	.LFE386:
 3538              		.section	.text.USB_DoPing,"ax",%progbits
 3539              		.align	1
 3540              		.global	USB_DoPing
 3541              		.syntax unified
 3542              		.thumb
 3543              		.thumb_func
 3544              		.fpu fpv5-d16
 3546              	USB_DoPing:
 3547              	.LFB387:
1881:Drivers/STM32H7xx_HAL_Driver/Src/stm32h7xx_ll_usb.c **** 
1882:Drivers/STM32H7xx_HAL_Driver/Src/stm32h7xx_ll_usb.c **** /**
1883:Drivers/STM32H7xx_HAL_Driver/Src/stm32h7xx_ll_usb.c ****   * @brief  Initiate Do Ping protocol
1884:Drivers/STM32H7xx_HAL_Driver/Src/stm32h7xx_ll_usb.c ****   * @param  USBx  Selected device
1885:Drivers/STM32H7xx_HAL_Driver/Src/stm32h7xx_ll_usb.c ****   * @param  hc_num  Host Channel number
1886:Drivers/STM32H7xx_HAL_Driver/Src/stm32h7xx_ll_usb.c ****   *         This parameter can be a value from 1 to 15
1887:Drivers/STM32H7xx_HAL_Driver/Src/stm32h7xx_ll_usb.c ****   * @retval HAL state
1888:Drivers/STM32H7xx_HAL_Driver/Src/stm32h7xx_ll_usb.c ****   */
1889:Drivers/STM32H7xx_HAL_Driver/Src/stm32h7xx_ll_usb.c **** HAL_StatusTypeDef USB_DoPing(USB_OTG_GlobalTypeDef *USBx, uint8_t ch_num)
1890:Drivers/STM32H7xx_HAL_Driver/Src/stm32h7xx_ll_usb.c **** {
 3548              		.loc 1 1890 0
 3549              		.cfi_startproc
 3550              		@ args = 0, pretend = 0, frame = 0
 3551              		@ frame_needed = 0, uses_anonymous_args = 0
 3552              		@ link register save eliminated.
 3553              	.LVL355:
1891:Drivers/STM32H7xx_HAL_Driver/Src/stm32h7xx_ll_usb.c ****   uint32_t USBx_BASE = (uint32_t)USBx;
1892:Drivers/STM32H7xx_HAL_Driver/Src/stm32h7xx_ll_usb.c ****   uint32_t chnum = (uint32_t)ch_num;
1893:Drivers/STM32H7xx_HAL_Driver/Src/stm32h7xx_ll_usb.c ****   uint32_t num_packets = 1U;
1894:Drivers/STM32H7xx_HAL_Driver/Src/stm32h7xx_ll_usb.c ****   uint32_t tmpreg;
1895:Drivers/STM32H7xx_HAL_Driver/Src/stm32h7xx_ll_usb.c **** 
1896:Drivers/STM32H7xx_HAL_Driver/Src/stm32h7xx_ll_usb.c ****   USBx_HC(chnum)->HCTSIZ = ((num_packets << 19) & USB_OTG_HCTSIZ_PKTCNT) |
ARM GAS  /tmp/ccCJnE45.s 			page 103


 3554              		.loc 1 1896 0
 3555 0000 00EB4111 		add	r1, r0, r1, lsl #5
 3556              	.LVL356:
 3557 0004 064A     		ldr	r2, .L287
 3558 0006 C1F81025 		str	r2, [r1, #1296]
1897:Drivers/STM32H7xx_HAL_Driver/Src/stm32h7xx_ll_usb.c ****                            USB_OTG_HCTSIZ_DOPING;
1898:Drivers/STM32H7xx_HAL_Driver/Src/stm32h7xx_ll_usb.c **** 
1899:Drivers/STM32H7xx_HAL_Driver/Src/stm32h7xx_ll_usb.c ****   /* Set host channel enable */
1900:Drivers/STM32H7xx_HAL_Driver/Src/stm32h7xx_ll_usb.c ****   tmpreg = USBx_HC(chnum)->HCCHAR;
 3559              		.loc 1 1900 0
 3560 000a D1F80035 		ldr	r3, [r1, #1280]
 3561              	.LVL357:
1901:Drivers/STM32H7xx_HAL_Driver/Src/stm32h7xx_ll_usb.c ****   tmpreg &= ~USB_OTG_HCCHAR_CHDIS;
 3562              		.loc 1 1901 0
 3563 000e 23F08043 		bic	r3, r3, #1073741824
 3564              	.LVL358:
1902:Drivers/STM32H7xx_HAL_Driver/Src/stm32h7xx_ll_usb.c ****   tmpreg |= USB_OTG_HCCHAR_CHENA;
 3565              		.loc 1 1902 0
 3566 0012 43F00043 		orr	r3, r3, #-2147483648
 3567              	.LVL359:
1903:Drivers/STM32H7xx_HAL_Driver/Src/stm32h7xx_ll_usb.c ****   USBx_HC(chnum)->HCCHAR = tmpreg;
 3568              		.loc 1 1903 0
 3569 0016 C1F80035 		str	r3, [r1, #1280]
1904:Drivers/STM32H7xx_HAL_Driver/Src/stm32h7xx_ll_usb.c **** 
1905:Drivers/STM32H7xx_HAL_Driver/Src/stm32h7xx_ll_usb.c ****   return HAL_OK;
1906:Drivers/STM32H7xx_HAL_Driver/Src/stm32h7xx_ll_usb.c **** }
 3570              		.loc 1 1906 0
 3571 001a 0020     		movs	r0, #0
 3572              	.LVL360:
 3573 001c 7047     		bx	lr
 3574              	.L288:
 3575 001e 00BF     		.align	2
 3576              	.L287:
 3577 0020 00000880 		.word	-2146959360
 3578              		.cfi_endproc
 3579              	.LFE387:
 3581              		.section	.text.USB_HC_StartXfer,"ax",%progbits
 3582              		.align	1
 3583              		.global	USB_HC_StartXfer
 3584              		.syntax unified
 3585              		.thumb
 3586              		.thumb_func
 3587              		.fpu fpv5-d16
 3589              	USB_HC_StartXfer:
 3590              	.LFB384:
1683:Drivers/STM32H7xx_HAL_Driver/Src/stm32h7xx_ll_usb.c ****   uint32_t USBx_BASE = (uint32_t)USBx;
 3591              		.loc 1 1683 0
 3592              		.cfi_startproc
 3593              		@ args = 0, pretend = 0, frame = 0
 3594              		@ frame_needed = 0, uses_anonymous_args = 0
 3595              	.LVL361:
 3596 0000 70B5     		push	{r4, r5, r6, lr}
 3597              	.LCFI58:
 3598              		.cfi_def_cfa_offset 16
 3599              		.cfi_offset 4, -16
 3600              		.cfi_offset 5, -12
 3601              		.cfi_offset 6, -8
ARM GAS  /tmp/ccCJnE45.s 			page 104


 3602              		.cfi_offset 14, -4
 3603 0002 82B0     		sub	sp, sp, #8
 3604              	.LCFI59:
 3605              		.cfi_def_cfa_offset 24
 3606              	.LVL362:
1685:Drivers/STM32H7xx_HAL_Driver/Src/stm32h7xx_ll_usb.c ****   static __IO uint32_t tmpreg = 0U;
 3607              		.loc 1 1685 0
 3608 0004 4C78     		ldrb	r4, [r1, #1]	@ zero_extendqisi2
 3609              	.LVL363:
1692:Drivers/STM32H7xx_HAL_Driver/Src/stm32h7xx_ll_usb.c ****   {
 3610              		.loc 1 1692 0
 3611 0006 C36B     		ldr	r3, [r0, #60]
 3612 0008 13F4807F 		tst	r3, #256
 3613 000c 07D0     		beq	.L290
1692:Drivers/STM32H7xx_HAL_Driver/Src/stm32h7xx_ll_usb.c ****   {
 3614              		.loc 1 1692 0 is_stmt 0 discriminator 1
 3615 000e 0B79     		ldrb	r3, [r1, #4]	@ zero_extendqisi2
 3616 0010 2BB9     		cbnz	r3, .L290
1694:Drivers/STM32H7xx_HAL_Driver/Src/stm32h7xx_ll_usb.c ****     {
 3617              		.loc 1 1694 0 is_stmt 1
 3618 0012 12B9     		cbnz	r2, .L291
1694:Drivers/STM32H7xx_HAL_Driver/Src/stm32h7xx_ll_usb.c ****     {
 3619              		.loc 1 1694 0 is_stmt 0 discriminator 1
 3620 0014 4B79     		ldrb	r3, [r1, #5]	@ zero_extendqisi2
 3621 0016 012B     		cmp	r3, #1
 3622 0018 11D0     		beq	.L304
 3623              	.L291:
1699:Drivers/STM32H7xx_HAL_Driver/Src/stm32h7xx_ll_usb.c ****     {
 3624              		.loc 1 1699 0 is_stmt 1
 3625 001a 012A     		cmp	r2, #1
 3626 001c 13D0     		beq	.L305
 3627              	.L290:
1711:Drivers/STM32H7xx_HAL_Driver/Src/stm32h7xx_ll_usb.c ****   {
 3628              		.loc 1 1711 0
 3629 001e 0B69     		ldr	r3, [r1, #16]
 3630 0020 E3B1     		cbz	r3, .L302
1713:Drivers/STM32H7xx_HAL_Driver/Src/stm32h7xx_ll_usb.c **** 
 3631              		.loc 1 1713 0
 3632 0022 0D89     		ldrh	r5, [r1, #8]
 3633 0024 2B44     		add	r3, r3, r5
 3634 0026 013B     		subs	r3, r3, #1
 3635 0028 B3FBF5F3 		udiv	r3, r3, r5
 3636 002c 9BB2     		uxth	r3, r3
 3637              	.LVL364:
1715:Drivers/STM32H7xx_HAL_Driver/Src/stm32h7xx_ll_usb.c ****     {
 3638              		.loc 1 1715 0
 3639 002e B3F5807F 		cmp	r3, #256
 3640 0032 14D9     		bls	.L293
 3641              	.LVL365:
1718:Drivers/STM32H7xx_HAL_Driver/Src/stm32h7xx_ll_usb.c ****     }
 3642              		.loc 1 1718 0
 3643 0034 2D02     		lsls	r5, r5, #8
 3644 0036 0D61     		str	r5, [r1, #16]
1717:Drivers/STM32H7xx_HAL_Driver/Src/stm32h7xx_ll_usb.c ****       hc->xfer_len = (uint32_t)num_packets * hc->max_packet;
 3645              		.loc 1 1717 0
 3646 0038 4FF48073 		mov	r3, #256
 3647 003c 0FE0     		b	.L293
ARM GAS  /tmp/ccCJnE45.s 			page 105


 3648              	.LVL366:
 3649              	.L304:
1696:Drivers/STM32H7xx_HAL_Driver/Src/stm32h7xx_ll_usb.c ****       return HAL_OK;
 3650              		.loc 1 1696 0
 3651 003e 2146     		mov	r1, r4
 3652              	.LVL367:
 3653 0040 FFF7FEFF 		bl	USB_DoPing
 3654              	.LVL368:
1697:Drivers/STM32H7xx_HAL_Driver/Src/stm32h7xx_ll_usb.c ****     }
 3655              		.loc 1 1697 0
 3656 0044 75E0     		b	.L292
 3657              	.LVL369:
 3658              	.L305:
1701:Drivers/STM32H7xx_HAL_Driver/Src/stm32h7xx_ll_usb.c ****       hc->do_ping = 0U;
 3659              		.loc 1 1701 0
 3660 0046 00EB4413 		add	r3, r0, r4, lsl #5
 3661 004a D3F80C55 		ldr	r5, [r3, #1292]
 3662 004e 25F06005 		bic	r5, r5, #96
 3663 0052 C3F80C55 		str	r5, [r3, #1292]
1702:Drivers/STM32H7xx_HAL_Driver/Src/stm32h7xx_ll_usb.c ****     }
 3664              		.loc 1 1702 0
 3665 0056 0023     		movs	r3, #0
 3666 0058 4B71     		strb	r3, [r1, #5]
 3667 005a E0E7     		b	.L290
 3668              	.L302:
1723:Drivers/STM32H7xx_HAL_Driver/Src/stm32h7xx_ll_usb.c ****   }
 3669              		.loc 1 1723 0
 3670 005c 0123     		movs	r3, #1
 3671              	.L293:
 3672              	.LVL370:
1725:Drivers/STM32H7xx_HAL_Driver/Src/stm32h7xx_ll_usb.c ****   {
 3673              		.loc 1 1725 0
 3674 005e CD78     		ldrb	r5, [r1, #3]	@ zero_extendqisi2
 3675 0060 1DB1     		cbz	r5, .L294
1727:Drivers/STM32H7xx_HAL_Driver/Src/stm32h7xx_ll_usb.c ****   }
 3676              		.loc 1 1727 0
 3677 0062 0D89     		ldrh	r5, [r1, #8]
 3678 0064 05FB03F5 		mul	r5, r5, r3
 3679 0068 0D61     		str	r5, [r1, #16]
 3680              	.L294:
1731:Drivers/STM32H7xx_HAL_Driver/Src/stm32h7xx_ll_usb.c ****                             (((uint32_t)num_packets << 19) & USB_OTG_HCTSIZ_PKTCNT) |
 3681              		.loc 1 1731 0
 3682 006a 0D69     		ldr	r5, [r1, #16]
 3683 006c C5F31205 		ubfx	r5, r5, #0, #19
1732:Drivers/STM32H7xx_HAL_Driver/Src/stm32h7xx_ll_usb.c ****                             (((uint32_t)hc->data_pid << 29) & USB_OTG_HCTSIZ_DPID);
 3684              		.loc 1 1732 0
 3685 0070 374E     		ldr	r6, .L306
 3686 0072 06EAC343 		and	r3, r6, r3, lsl #19
 3687              	.LVL371:
1731:Drivers/STM32H7xx_HAL_Driver/Src/stm32h7xx_ll_usb.c ****                             (((uint32_t)num_packets << 19) & USB_OTG_HCTSIZ_PKTCNT) |
 3688              		.loc 1 1731 0
 3689 0076 2B43     		orrs	r3, r3, r5
1733:Drivers/STM32H7xx_HAL_Driver/Src/stm32h7xx_ll_usb.c **** 
 3690              		.loc 1 1733 0
 3691 0078 8D7A     		ldrb	r5, [r1, #10]	@ zero_extendqisi2
 3692 007a 6D07     		lsls	r5, r5, #29
 3693 007c 05F0C045 		and	r5, r5, #1610612736
ARM GAS  /tmp/ccCJnE45.s 			page 106


1731:Drivers/STM32H7xx_HAL_Driver/Src/stm32h7xx_ll_usb.c ****                             (((uint32_t)num_packets << 19) & USB_OTG_HCTSIZ_PKTCNT) |
 3694              		.loc 1 1731 0
 3695 0080 00EB4414 		add	r4, r0, r4, lsl #5
 3696              	.LVL372:
1732:Drivers/STM32H7xx_HAL_Driver/Src/stm32h7xx_ll_usb.c ****                             (((uint32_t)hc->data_pid << 29) & USB_OTG_HCTSIZ_DPID);
 3697              		.loc 1 1732 0
 3698 0084 2B43     		orrs	r3, r3, r5
1731:Drivers/STM32H7xx_HAL_Driver/Src/stm32h7xx_ll_usb.c ****                             (((uint32_t)num_packets << 19) & USB_OTG_HCTSIZ_PKTCNT) |
 3699              		.loc 1 1731 0
 3700 0086 C4F81035 		str	r3, [r4, #1296]
1735:Drivers/STM32H7xx_HAL_Driver/Src/stm32h7xx_ll_usb.c ****   {
 3701              		.loc 1 1735 0
 3702 008a 12B1     		cbz	r2, .L295
1738:Drivers/STM32H7xx_HAL_Driver/Src/stm32h7xx_ll_usb.c ****   }
 3703              		.loc 1 1738 0
 3704 008c CB68     		ldr	r3, [r1, #12]
 3705 008e C4F81435 		str	r3, [r4, #1300]
 3706              	.L295:
1741:Drivers/STM32H7xx_HAL_Driver/Src/stm32h7xx_ll_usb.c ****   USBx_HC(ch_num)->HCCHAR &= ~USB_OTG_HCCHAR_ODDFRM;
 3707              		.loc 1 1741 0
 3708 0092 00F58066 		add	r6, r0, #1024
 3709 0096 B368     		ldr	r3, [r6, #8]
 3710 0098 13F0010F 		tst	r3, #1
 3711              	.LVL373:
1742:Drivers/STM32H7xx_HAL_Driver/Src/stm32h7xx_ll_usb.c ****   USBx_HC(ch_num)->HCCHAR |= (uint32_t)is_oddframe << 29;
 3712              		.loc 1 1742 0
 3713 009c D4F80035 		ldr	r3, [r4, #1280]
 3714 00a0 23F00053 		bic	r3, r3, #536870912
 3715 00a4 C4F80035 		str	r3, [r4, #1280]
1743:Drivers/STM32H7xx_HAL_Driver/Src/stm32h7xx_ll_usb.c **** 
 3716              		.loc 1 1743 0
 3717 00a8 D4F80035 		ldr	r3, [r4, #1280]
 3718 00ac 0CBF     		ite	eq
 3719 00ae 4FF00055 		moveq	r5, #536870912
 3720 00b2 0025     		movne	r5, #0
 3721 00b4 2B43     		orrs	r3, r3, r5
 3722 00b6 C4F80035 		str	r3, [r4, #1280]
1746:Drivers/STM32H7xx_HAL_Driver/Src/stm32h7xx_ll_usb.c ****   tmpreg &= ~USB_OTG_HCCHAR_CHDIS;
 3723              		.loc 1 1746 0
 3724 00ba D4F80055 		ldr	r5, [r4, #1280]
 3725 00be 254B     		ldr	r3, .L306+4
 3726 00c0 1D60     		str	r5, [r3]
1747:Drivers/STM32H7xx_HAL_Driver/Src/stm32h7xx_ll_usb.c **** 
 3727              		.loc 1 1747 0
 3728 00c2 1D68     		ldr	r5, [r3]
 3729 00c4 25F08045 		bic	r5, r5, #1073741824
 3730 00c8 1D60     		str	r5, [r3]
1750:Drivers/STM32H7xx_HAL_Driver/Src/stm32h7xx_ll_usb.c ****   {
 3731              		.loc 1 1750 0
 3732 00ca CB78     		ldrb	r3, [r1, #3]	@ zero_extendqisi2
 3733 00cc C3B1     		cbz	r3, .L296
 3734              	.LVL374:
1752:Drivers/STM32H7xx_HAL_Driver/Src/stm32h7xx_ll_usb.c ****   }
 3735              		.loc 1 1752 0
 3736 00ce 214D     		ldr	r5, .L306+4
 3737 00d0 2B68     		ldr	r3, [r5]
 3738 00d2 43F40043 		orr	r3, r3, #32768
ARM GAS  /tmp/ccCJnE45.s 			page 107


 3739 00d6 2B60     		str	r3, [r5]
 3740              	.L297:
1758:Drivers/STM32H7xx_HAL_Driver/Src/stm32h7xx_ll_usb.c ****   USBx_HC(ch_num)->HCCHAR = tmpreg;
 3741              		.loc 1 1758 0
 3742 00d8 1E4B     		ldr	r3, .L306+4
 3743 00da 1D68     		ldr	r5, [r3]
 3744 00dc 45F00045 		orr	r5, r5, #-2147483648
 3745 00e0 1D60     		str	r5, [r3]
1759:Drivers/STM32H7xx_HAL_Driver/Src/stm32h7xx_ll_usb.c **** 
 3746              		.loc 1 1759 0
 3747 00e2 1B68     		ldr	r3, [r3]
 3748 00e4 C4F80035 		str	r3, [r4, #1280]
1761:Drivers/STM32H7xx_HAL_Driver/Src/stm32h7xx_ll_usb.c ****   {
 3749              		.loc 1 1761 0
 3750 00e8 1ABB     		cbnz	r2, .L292
1763:Drivers/STM32H7xx_HAL_Driver/Src/stm32h7xx_ll_usb.c ****     {
 3751              		.loc 1 1763 0
 3752 00ea CB78     		ldrb	r3, [r1, #3]	@ zero_extendqisi2
 3753 00ec 0BBB     		cbnz	r3, .L292
1763:Drivers/STM32H7xx_HAL_Driver/Src/stm32h7xx_ll_usb.c ****     {
 3754              		.loc 1 1763 0 is_stmt 0 discriminator 1
 3755 00ee 0B69     		ldr	r3, [r1, #16]
 3756 00f0 FBB1     		cbz	r3, .L292
1765:Drivers/STM32H7xx_HAL_Driver/Src/stm32h7xx_ll_usb.c ****       {
 3757              		.loc 1 1765 0 is_stmt 1
 3758 00f2 CA79     		ldrb	r2, [r1, #7]	@ zero_extendqisi2
 3759              	.LVL375:
 3760 00f4 032A     		cmp	r2, #3
 3761 00f6 14D8     		bhi	.L298
 3762 00f8 DFE802F0 		tbb	[pc, r2]
 3763              	.L300:
 3764 00fc 08       		.byte	(.L299-.L300)/2
 3765 00fd 1E       		.byte	(.L301-.L300)/2
 3766 00fe 08       		.byte	(.L299-.L300)/2
 3767 00ff 1E       		.byte	(.L301-.L300)/2
 3768              	.LVL376:
 3769              		.p2align 1
 3770              	.L296:
1756:Drivers/STM32H7xx_HAL_Driver/Src/stm32h7xx_ll_usb.c ****   }
 3771              		.loc 1 1756 0
 3772 0100 144D     		ldr	r5, .L306+4
 3773 0102 2B68     		ldr	r3, [r5]
 3774 0104 23F40043 		bic	r3, r3, #32768
 3775 0108 2B60     		str	r3, [r5]
 3776 010a E5E7     		b	.L297
 3777              	.LVL377:
 3778              	.L299:
1771:Drivers/STM32H7xx_HAL_Driver/Src/stm32h7xx_ll_usb.c **** 
 3779              		.loc 1 1771 0
 3780 010c 0333     		adds	r3, r3, #3
 3781              	.LVL378:
1774:Drivers/STM32H7xx_HAL_Driver/Src/stm32h7xx_ll_usb.c ****           {
 3782              		.loc 1 1774 0
 3783 010e C26A     		ldr	r2, [r0, #44]
 3784 0110 92B2     		uxth	r2, r2
 3785 0112 C3F38F03 		ubfx	r3, r3, #2, #16
 3786              	.LVL379:
ARM GAS  /tmp/ccCJnE45.s 			page 108


 3787 0116 9A42     		cmp	r2, r3
 3788 0118 03D2     		bcs	.L298
1777:Drivers/STM32H7xx_HAL_Driver/Src/stm32h7xx_ll_usb.c ****           }
 3789              		.loc 1 1777 0
 3790 011a 8369     		ldr	r3, [r0, #24]
 3791 011c 43F02003 		orr	r3, r3, #32
 3792 0120 8361     		str	r3, [r0, #24]
 3793              	.LVL380:
 3794              	.L298:
1798:Drivers/STM32H7xx_HAL_Driver/Src/stm32h7xx_ll_usb.c ****     }
 3795              		.loc 1 1798 0
 3796 0122 CC68     		ldr	r4, [r1, #12]
 3797 0124 4A78     		ldrb	r2, [r1, #1]	@ zero_extendqisi2
 3798 0126 0B8A     		ldrh	r3, [r1, #16]
 3799 0128 0021     		movs	r1, #0
 3800              	.LVL381:
 3801 012a 0091     		str	r1, [sp]
 3802 012c 2146     		mov	r1, r4
 3803 012e FFF7FEFF 		bl	USB_WritePacket
 3804              	.LVL382:
 3805              	.L292:
1803:Drivers/STM32H7xx_HAL_Driver/Src/stm32h7xx_ll_usb.c **** 
 3806              		.loc 1 1803 0
 3807 0132 0020     		movs	r0, #0
 3808 0134 02B0     		add	sp, sp, #8
 3809              	.LCFI60:
 3810              		.cfi_remember_state
 3811              		.cfi_def_cfa_offset 16
 3812              		@ sp needed
 3813 0136 70BD     		pop	{r4, r5, r6, pc}
 3814              	.LVL383:
 3815              	.L301:
 3816              	.LCFI61:
 3817              		.cfi_restore_state
1784:Drivers/STM32H7xx_HAL_Driver/Src/stm32h7xx_ll_usb.c ****           /* check if there is enough space in FIFO space */
 3818              		.loc 1 1784 0
 3819 0138 0333     		adds	r3, r3, #3
 3820              	.LVL384:
1786:Drivers/STM32H7xx_HAL_Driver/Src/stm32h7xx_ll_usb.c ****           {
 3821              		.loc 1 1786 0
 3822 013a 3269     		ldr	r2, [r6, #16]
 3823 013c 92B2     		uxth	r2, r2
 3824 013e C3F38F03 		ubfx	r3, r3, #2, #16
 3825              	.LVL385:
 3826 0142 9A42     		cmp	r2, r3
 3827 0144 EDD2     		bcs	.L298
1789:Drivers/STM32H7xx_HAL_Driver/Src/stm32h7xx_ll_usb.c ****           }
 3828              		.loc 1 1789 0
 3829 0146 8369     		ldr	r3, [r0, #24]
 3830 0148 43F08063 		orr	r3, r3, #67108864
 3831 014c 8361     		str	r3, [r0, #24]
 3832              	.LVL386:
 3833 014e E8E7     		b	.L298
 3834              	.L307:
 3835              		.align	2
 3836              	.L306:
 3837 0150 0000F81F 		.word	536346624
ARM GAS  /tmp/ccCJnE45.s 			page 109


 3838 0154 00000000 		.word	.LANCHOR0
 3839              		.cfi_endproc
 3840              	.LFE384:
 3842              		.section	.text.USB_StopHost,"ax",%progbits
 3843              		.align	1
 3844              		.global	USB_StopHost
 3845              		.syntax unified
 3846              		.thumb
 3847              		.thumb_func
 3848              		.fpu fpv5-d16
 3850              	USB_StopHost:
 3851              	.LFB388:
1907:Drivers/STM32H7xx_HAL_Driver/Src/stm32h7xx_ll_usb.c **** 
1908:Drivers/STM32H7xx_HAL_Driver/Src/stm32h7xx_ll_usb.c **** /**
1909:Drivers/STM32H7xx_HAL_Driver/Src/stm32h7xx_ll_usb.c ****   * @brief  Stop Host Core
1910:Drivers/STM32H7xx_HAL_Driver/Src/stm32h7xx_ll_usb.c ****   * @param  USBx  Selected device
1911:Drivers/STM32H7xx_HAL_Driver/Src/stm32h7xx_ll_usb.c ****   * @retval HAL state
1912:Drivers/STM32H7xx_HAL_Driver/Src/stm32h7xx_ll_usb.c ****   */
1913:Drivers/STM32H7xx_HAL_Driver/Src/stm32h7xx_ll_usb.c **** HAL_StatusTypeDef USB_StopHost(USB_OTG_GlobalTypeDef *USBx)
1914:Drivers/STM32H7xx_HAL_Driver/Src/stm32h7xx_ll_usb.c **** {
 3852              		.loc 1 1914 0
 3853              		.cfi_startproc
 3854              		@ args = 0, pretend = 0, frame = 0
 3855              		@ frame_needed = 0, uses_anonymous_args = 0
 3856              	.LVL387:
 3857 0000 70B5     		push	{r4, r5, r6, lr}
 3858              	.LCFI62:
 3859              		.cfi_def_cfa_offset 16
 3860              		.cfi_offset 4, -16
 3861              		.cfi_offset 5, -12
 3862              		.cfi_offset 6, -8
 3863              		.cfi_offset 14, -4
 3864 0002 0546     		mov	r5, r0
1915:Drivers/STM32H7xx_HAL_Driver/Src/stm32h7xx_ll_usb.c ****   uint32_t USBx_BASE = (uint32_t)USBx;
 3865              		.loc 1 1915 0
 3866 0004 0446     		mov	r4, r0
 3867              	.LVL388:
1916:Drivers/STM32H7xx_HAL_Driver/Src/stm32h7xx_ll_usb.c ****   uint32_t count = 0U;
1917:Drivers/STM32H7xx_HAL_Driver/Src/stm32h7xx_ll_usb.c ****   uint32_t value;
1918:Drivers/STM32H7xx_HAL_Driver/Src/stm32h7xx_ll_usb.c ****   uint32_t i;
1919:Drivers/STM32H7xx_HAL_Driver/Src/stm32h7xx_ll_usb.c **** 
1920:Drivers/STM32H7xx_HAL_Driver/Src/stm32h7xx_ll_usb.c ****   (void)USB_DisableGlobalInt(USBx);
 3868              		.loc 1 1920 0
 3869 0006 FFF7FEFF 		bl	USB_DisableGlobalInt
 3870              	.LVL389:
1921:Drivers/STM32H7xx_HAL_Driver/Src/stm32h7xx_ll_usb.c **** 
1922:Drivers/STM32H7xx_HAL_Driver/Src/stm32h7xx_ll_usb.c ****   /* Flush FIFO */
1923:Drivers/STM32H7xx_HAL_Driver/Src/stm32h7xx_ll_usb.c ****   (void)USB_FlushTxFifo(USBx, 0x10U);
 3871              		.loc 1 1923 0
 3872 000a 1021     		movs	r1, #16
 3873 000c 2846     		mov	r0, r5
 3874 000e FFF7FEFF 		bl	USB_FlushTxFifo
 3875              	.LVL390:
1924:Drivers/STM32H7xx_HAL_Driver/Src/stm32h7xx_ll_usb.c ****   (void)USB_FlushRxFifo(USBx);
 3876              		.loc 1 1924 0
 3877 0012 2846     		mov	r0, r5
 3878 0014 FFF7FEFF 		bl	USB_FlushRxFifo
ARM GAS  /tmp/ccCJnE45.s 			page 110


 3879              	.LVL391:
1925:Drivers/STM32H7xx_HAL_Driver/Src/stm32h7xx_ll_usb.c **** 
1926:Drivers/STM32H7xx_HAL_Driver/Src/stm32h7xx_ll_usb.c ****   /* Flush out any leftover queued requests. */
1927:Drivers/STM32H7xx_HAL_Driver/Src/stm32h7xx_ll_usb.c ****   for (i = 0U; i <= 15U; i++)
 3880              		.loc 1 1927 0
 3881 0018 0022     		movs	r2, #0
 3882 001a 0AE0     		b	.L309
 3883              	.LVL392:
 3884              	.L310:
1928:Drivers/STM32H7xx_HAL_Driver/Src/stm32h7xx_ll_usb.c ****   {
1929:Drivers/STM32H7xx_HAL_Driver/Src/stm32h7xx_ll_usb.c ****     value = USBx_HC(i)->HCCHAR;
 3885              		.loc 1 1929 0 discriminator 3
 3886 001c 04EB4211 		add	r1, r4, r2, lsl #5
 3887 0020 D1F80035 		ldr	r3, [r1, #1280]
 3888              	.LVL393:
 3889 0024 23F08023 		bic	r3, r3, #-2147450880
 3890              	.LVL394:
1930:Drivers/STM32H7xx_HAL_Driver/Src/stm32h7xx_ll_usb.c ****     value |=  USB_OTG_HCCHAR_CHDIS;
1931:Drivers/STM32H7xx_HAL_Driver/Src/stm32h7xx_ll_usb.c ****     value &= ~USB_OTG_HCCHAR_CHENA;
1932:Drivers/STM32H7xx_HAL_Driver/Src/stm32h7xx_ll_usb.c ****     value &= ~USB_OTG_HCCHAR_EPDIR;
 3891              		.loc 1 1932 0 discriminator 3
 3892 0028 43F08043 		orr	r3, r3, #1073741824
 3893              	.LVL395:
1933:Drivers/STM32H7xx_HAL_Driver/Src/stm32h7xx_ll_usb.c ****     USBx_HC(i)->HCCHAR = value;
 3894              		.loc 1 1933 0 discriminator 3
 3895 002c C1F80035 		str	r3, [r1, #1280]
1927:Drivers/STM32H7xx_HAL_Driver/Src/stm32h7xx_ll_usb.c ****   {
 3896              		.loc 1 1927 0 discriminator 3
 3897 0030 0132     		adds	r2, r2, #1
 3898              	.LVL396:
 3899              	.L309:
1927:Drivers/STM32H7xx_HAL_Driver/Src/stm32h7xx_ll_usb.c ****   {
 3900              		.loc 1 1927 0 is_stmt 0 discriminator 1
 3901 0032 0F2A     		cmp	r2, #15
 3902 0034 F2D9     		bls	.L310
1934:Drivers/STM32H7xx_HAL_Driver/Src/stm32h7xx_ll_usb.c ****   }
1935:Drivers/STM32H7xx_HAL_Driver/Src/stm32h7xx_ll_usb.c **** 
1936:Drivers/STM32H7xx_HAL_Driver/Src/stm32h7xx_ll_usb.c ****   /* Halt all channels to put them into a known state. */
1937:Drivers/STM32H7xx_HAL_Driver/Src/stm32h7xx_ll_usb.c ****   for (i = 0U; i <= 15U; i++)
 3903              		.loc 1 1937 0 is_stmt 1
 3904 0036 0020     		movs	r0, #0
1916:Drivers/STM32H7xx_HAL_Driver/Src/stm32h7xx_ll_usb.c ****   uint32_t value;
 3905              		.loc 1 1916 0
 3906 0038 0346     		mov	r3, r0
 3907 003a 00E0     		b	.L311
 3908              	.LVL397:
 3909              	.L312:
 3910              		.loc 1 1937 0 discriminator 2
 3911 003c 0130     		adds	r0, r0, #1
 3912              	.LVL398:
 3913              	.L311:
 3914              		.loc 1 1937 0 is_stmt 0 discriminator 1
 3915 003e 0F28     		cmp	r0, #15
 3916 0040 13D8     		bhi	.L316
1938:Drivers/STM32H7xx_HAL_Driver/Src/stm32h7xx_ll_usb.c ****   {
1939:Drivers/STM32H7xx_HAL_Driver/Src/stm32h7xx_ll_usb.c ****     value = USBx_HC(i)->HCCHAR;
 3917              		.loc 1 1939 0 is_stmt 1
ARM GAS  /tmp/ccCJnE45.s 			page 111


 3918 0042 04EB4016 		add	r6, r4, r0, lsl #5
 3919 0046 06F5A061 		add	r1, r6, #1280
 3920 004a D6F80025 		ldr	r2, [r6, #1280]
 3921              	.LVL399:
 3922 004e 22F40042 		bic	r2, r2, #32768
 3923              	.LVL400:
1940:Drivers/STM32H7xx_HAL_Driver/Src/stm32h7xx_ll_usb.c ****     value |= USB_OTG_HCCHAR_CHDIS;
1941:Drivers/STM32H7xx_HAL_Driver/Src/stm32h7xx_ll_usb.c ****     value |= USB_OTG_HCCHAR_CHENA;
1942:Drivers/STM32H7xx_HAL_Driver/Src/stm32h7xx_ll_usb.c ****     value &= ~USB_OTG_HCCHAR_EPDIR;
 3924              		.loc 1 1942 0
 3925 0052 42F04042 		orr	r2, r2, #-1073741824
 3926              	.LVL401:
1943:Drivers/STM32H7xx_HAL_Driver/Src/stm32h7xx_ll_usb.c ****     USBx_HC(i)->HCCHAR = value;
 3927              		.loc 1 1943 0
 3928 0056 C6F80025 		str	r2, [r6, #1280]
 3929              	.LVL402:
 3930              	.L313:
1944:Drivers/STM32H7xx_HAL_Driver/Src/stm32h7xx_ll_usb.c **** 
1945:Drivers/STM32H7xx_HAL_Driver/Src/stm32h7xx_ll_usb.c ****     do
1946:Drivers/STM32H7xx_HAL_Driver/Src/stm32h7xx_ll_usb.c ****     {
1947:Drivers/STM32H7xx_HAL_Driver/Src/stm32h7xx_ll_usb.c ****       if (++count > 1000U)
 3931              		.loc 1 1947 0
 3932 005a 0133     		adds	r3, r3, #1
 3933              	.LVL403:
 3934 005c B3F57A7F 		cmp	r3, #1000
 3935 0060 ECD8     		bhi	.L312
1948:Drivers/STM32H7xx_HAL_Driver/Src/stm32h7xx_ll_usb.c ****       {
1949:Drivers/STM32H7xx_HAL_Driver/Src/stm32h7xx_ll_usb.c ****         break;
1950:Drivers/STM32H7xx_HAL_Driver/Src/stm32h7xx_ll_usb.c ****       }
1951:Drivers/STM32H7xx_HAL_Driver/Src/stm32h7xx_ll_usb.c ****     }
1952:Drivers/STM32H7xx_HAL_Driver/Src/stm32h7xx_ll_usb.c ****     while ((USBx_HC(i)->HCCHAR & USB_OTG_HCCHAR_CHENA) == USB_OTG_HCCHAR_CHENA);
 3936              		.loc 1 1952 0
 3937 0062 0A68     		ldr	r2, [r1]
 3938 0064 002A     		cmp	r2, #0
 3939 0066 F8DB     		blt	.L313
 3940 0068 E8E7     		b	.L312
 3941              	.LVL404:
 3942              	.L316:
1953:Drivers/STM32H7xx_HAL_Driver/Src/stm32h7xx_ll_usb.c ****   }
1954:Drivers/STM32H7xx_HAL_Driver/Src/stm32h7xx_ll_usb.c **** 
1955:Drivers/STM32H7xx_HAL_Driver/Src/stm32h7xx_ll_usb.c ****   /* Clear any pending Host interrupts */
1956:Drivers/STM32H7xx_HAL_Driver/Src/stm32h7xx_ll_usb.c ****   USBx_HOST->HAINT = 0xFFFFFFFFU;
 3943              		.loc 1 1956 0
 3944 006a 4FF0FF33 		mov	r3, #-1
 3945              	.LVL405:
 3946 006e C5F81434 		str	r3, [r5, #1044]
1957:Drivers/STM32H7xx_HAL_Driver/Src/stm32h7xx_ll_usb.c ****   USBx->GINTSTS = 0xFFFFFFFFU;
 3947              		.loc 1 1957 0
 3948 0072 6B61     		str	r3, [r5, #20]
1958:Drivers/STM32H7xx_HAL_Driver/Src/stm32h7xx_ll_usb.c **** 
1959:Drivers/STM32H7xx_HAL_Driver/Src/stm32h7xx_ll_usb.c ****   (void)USB_EnableGlobalInt(USBx);
 3949              		.loc 1 1959 0
 3950 0074 2846     		mov	r0, r5
 3951              	.LVL406:
 3952 0076 FFF7FEFF 		bl	USB_EnableGlobalInt
 3953              	.LVL407:
1960:Drivers/STM32H7xx_HAL_Driver/Src/stm32h7xx_ll_usb.c **** 
ARM GAS  /tmp/ccCJnE45.s 			page 112


1961:Drivers/STM32H7xx_HAL_Driver/Src/stm32h7xx_ll_usb.c ****   return HAL_OK;
1962:Drivers/STM32H7xx_HAL_Driver/Src/stm32h7xx_ll_usb.c **** }
 3954              		.loc 1 1962 0
 3955 007a 0020     		movs	r0, #0
 3956 007c 70BD     		pop	{r4, r5, r6, pc}
 3957              		.cfi_endproc
 3958              	.LFE388:
 3960              		.section	.text.USB_ActivateRemoteWakeup,"ax",%progbits
 3961              		.align	1
 3962              		.global	USB_ActivateRemoteWakeup
 3963              		.syntax unified
 3964              		.thumb
 3965              		.thumb_func
 3966              		.fpu fpv5-d16
 3968              	USB_ActivateRemoteWakeup:
 3969              	.LFB389:
1963:Drivers/STM32H7xx_HAL_Driver/Src/stm32h7xx_ll_usb.c **** 
1964:Drivers/STM32H7xx_HAL_Driver/Src/stm32h7xx_ll_usb.c **** /**
1965:Drivers/STM32H7xx_HAL_Driver/Src/stm32h7xx_ll_usb.c ****   * @brief  USB_ActivateRemoteWakeup active remote wakeup signalling
1966:Drivers/STM32H7xx_HAL_Driver/Src/stm32h7xx_ll_usb.c ****   * @param  USBx Selected device
1967:Drivers/STM32H7xx_HAL_Driver/Src/stm32h7xx_ll_usb.c ****   * @retval HAL status
1968:Drivers/STM32H7xx_HAL_Driver/Src/stm32h7xx_ll_usb.c ****   */
1969:Drivers/STM32H7xx_HAL_Driver/Src/stm32h7xx_ll_usb.c **** HAL_StatusTypeDef USB_ActivateRemoteWakeup(USB_OTG_GlobalTypeDef *USBx)
1970:Drivers/STM32H7xx_HAL_Driver/Src/stm32h7xx_ll_usb.c **** {
 3970              		.loc 1 1970 0
 3971              		.cfi_startproc
 3972              		@ args = 0, pretend = 0, frame = 0
 3973              		@ frame_needed = 0, uses_anonymous_args = 0
 3974              		@ link register save eliminated.
 3975              	.LVL408:
1971:Drivers/STM32H7xx_HAL_Driver/Src/stm32h7xx_ll_usb.c ****   uint32_t USBx_BASE = (uint32_t)USBx;
1972:Drivers/STM32H7xx_HAL_Driver/Src/stm32h7xx_ll_usb.c **** 
1973:Drivers/STM32H7xx_HAL_Driver/Src/stm32h7xx_ll_usb.c ****   if ((USBx_DEVICE->DSTS & USB_OTG_DSTS_SUSPSTS) == USB_OTG_DSTS_SUSPSTS)
 3976              		.loc 1 1973 0
 3977 0000 D0F80838 		ldr	r3, [r0, #2056]
 3978 0004 00F50060 		add	r0, r0, #2048
 3979              	.LVL409:
 3980 0008 13F0010F 		tst	r3, #1
 3981 000c 03D0     		beq	.L318
1974:Drivers/STM32H7xx_HAL_Driver/Src/stm32h7xx_ll_usb.c ****   {
1975:Drivers/STM32H7xx_HAL_Driver/Src/stm32h7xx_ll_usb.c ****     /* active Remote wakeup signalling */
1976:Drivers/STM32H7xx_HAL_Driver/Src/stm32h7xx_ll_usb.c ****     USBx_DEVICE->DCTL |= USB_OTG_DCTL_RWUSIG;
 3982              		.loc 1 1976 0
 3983 000e 4368     		ldr	r3, [r0, #4]
 3984 0010 43F00103 		orr	r3, r3, #1
 3985 0014 4360     		str	r3, [r0, #4]
 3986              	.L318:
1977:Drivers/STM32H7xx_HAL_Driver/Src/stm32h7xx_ll_usb.c ****   }
1978:Drivers/STM32H7xx_HAL_Driver/Src/stm32h7xx_ll_usb.c **** 
1979:Drivers/STM32H7xx_HAL_Driver/Src/stm32h7xx_ll_usb.c ****   return HAL_OK;
1980:Drivers/STM32H7xx_HAL_Driver/Src/stm32h7xx_ll_usb.c **** }
 3987              		.loc 1 1980 0
 3988 0016 0020     		movs	r0, #0
 3989              	.LVL410:
 3990 0018 7047     		bx	lr
 3991              		.cfi_endproc
 3992              	.LFE389:
ARM GAS  /tmp/ccCJnE45.s 			page 113


 3994              		.section	.text.USB_DeActivateRemoteWakeup,"ax",%progbits
 3995              		.align	1
 3996              		.global	USB_DeActivateRemoteWakeup
 3997              		.syntax unified
 3998              		.thumb
 3999              		.thumb_func
 4000              		.fpu fpv5-d16
 4002              	USB_DeActivateRemoteWakeup:
 4003              	.LFB390:
1981:Drivers/STM32H7xx_HAL_Driver/Src/stm32h7xx_ll_usb.c **** 
1982:Drivers/STM32H7xx_HAL_Driver/Src/stm32h7xx_ll_usb.c **** /**
1983:Drivers/STM32H7xx_HAL_Driver/Src/stm32h7xx_ll_usb.c ****   * @brief  USB_DeActivateRemoteWakeup de-active remote wakeup signalling
1984:Drivers/STM32H7xx_HAL_Driver/Src/stm32h7xx_ll_usb.c ****   * @param  USBx Selected device
1985:Drivers/STM32H7xx_HAL_Driver/Src/stm32h7xx_ll_usb.c ****   * @retval HAL status
1986:Drivers/STM32H7xx_HAL_Driver/Src/stm32h7xx_ll_usb.c ****   */
1987:Drivers/STM32H7xx_HAL_Driver/Src/stm32h7xx_ll_usb.c **** HAL_StatusTypeDef USB_DeActivateRemoteWakeup(USB_OTG_GlobalTypeDef *USBx)
1988:Drivers/STM32H7xx_HAL_Driver/Src/stm32h7xx_ll_usb.c **** {
 4004              		.loc 1 1988 0
 4005              		.cfi_startproc
 4006              		@ args = 0, pretend = 0, frame = 0
 4007              		@ frame_needed = 0, uses_anonymous_args = 0
 4008              		@ link register save eliminated.
 4009              	.LVL411:
1989:Drivers/STM32H7xx_HAL_Driver/Src/stm32h7xx_ll_usb.c ****   uint32_t USBx_BASE = (uint32_t)USBx;
1990:Drivers/STM32H7xx_HAL_Driver/Src/stm32h7xx_ll_usb.c **** 
1991:Drivers/STM32H7xx_HAL_Driver/Src/stm32h7xx_ll_usb.c ****   /* active Remote wakeup signalling */
1992:Drivers/STM32H7xx_HAL_Driver/Src/stm32h7xx_ll_usb.c ****   USBx_DEVICE->DCTL &= ~(USB_OTG_DCTL_RWUSIG);
 4010              		.loc 1 1992 0
 4011 0000 D0F80438 		ldr	r3, [r0, #2052]
 4012 0004 23F00103 		bic	r3, r3, #1
 4013 0008 C0F80438 		str	r3, [r0, #2052]
1993:Drivers/STM32H7xx_HAL_Driver/Src/stm32h7xx_ll_usb.c **** 
1994:Drivers/STM32H7xx_HAL_Driver/Src/stm32h7xx_ll_usb.c ****   return HAL_OK;
1995:Drivers/STM32H7xx_HAL_Driver/Src/stm32h7xx_ll_usb.c **** }
 4014              		.loc 1 1995 0
 4015 000c 0020     		movs	r0, #0
 4016              	.LVL412:
 4017 000e 7047     		bx	lr
 4018              		.cfi_endproc
 4019              	.LFE390:
 4021              		.section	.bss.tmpreg.13079,"aw",%nobits
 4022              		.align	2
 4023              		.set	.LANCHOR0,. + 0
 4026              	tmpreg.13079:
 4027 0000 00000000 		.space	4
 4028              		.text
 4029              	.Letext0:
 4030              		.file 2 "/usr/include/newlib/machine/_default_types.h"
 4031              		.file 3 "/usr/include/newlib/sys/_stdint.h"
 4032              		.file 4 "Drivers/CMSIS/Include/cmsis_gcc.h"
 4033              		.file 5 "Drivers/CMSIS/Include/core_cm7.h"
 4034              		.file 6 "Drivers/CMSIS/Device/ST/STM32H7xx/Include/system_stm32h7xx.h"
 4035              		.file 7 "Drivers/CMSIS/Device/ST/STM32H7xx/Include/stm32h723xx.h"
 4036              		.file 8 "/usr/include/newlib/sys/lock.h"
 4037              		.file 9 "/usr/include/newlib/sys/_types.h"
 4038              		.file 10 "/usr/lib/gcc/arm-none-eabi/7.3.1/include/stddef.h"
 4039              		.file 11 "/usr/include/newlib/sys/reent.h"
ARM GAS  /tmp/ccCJnE45.s 			page 114


 4040              		.file 12 "/usr/include/newlib/math.h"
 4041              		.file 13 "Drivers/STM32H7xx_HAL_Driver/Inc/stm32h7xx_hal_def.h"
 4042              		.file 14 "Drivers/STM32H7xx_HAL_Driver/Inc/stm32h7xx_hal_flash.h"
 4043              		.file 15 "Drivers/STM32H7xx_HAL_Driver/Inc/stm32h7xx_hal_uart.h"
 4044              		.file 16 "Drivers/STM32H7xx_HAL_Driver/Inc/stm32h7xx_ll_usb.h"
 4045              		.file 17 "Drivers/STM32H7xx_HAL_Driver/Inc/stm32h7xx_hal.h"
ARM GAS  /tmp/ccCJnE45.s 			page 115


DEFINED SYMBOLS
                            *ABS*:0000000000000000 stm32h7xx_ll_usb.c
     /tmp/ccCJnE45.s:17     .text.USB_CoreReset:0000000000000000 $t
     /tmp/ccCJnE45.s:23     .text.USB_CoreReset:0000000000000000 USB_CoreReset
     /tmp/ccCJnE45.s:85     .text.USB_CoreReset:0000000000000038 $d
     /tmp/ccCJnE45.s:90     .text.USB_CoreInit:0000000000000000 $t
     /tmp/ccCJnE45.s:97     .text.USB_CoreInit:0000000000000000 USB_CoreInit
     /tmp/ccCJnE45.s:205    .text.USB_CoreInit:0000000000000088 $d
     /tmp/ccCJnE45.s:210    .text.USB_SetTurnaroundTime:0000000000000000 $t
     /tmp/ccCJnE45.s:217    .text.USB_SetTurnaroundTime:0000000000000000 USB_SetTurnaroundTime
     /tmp/ccCJnE45.s:367    .text.USB_SetTurnaroundTime:00000000000000b8 $d
     /tmp/ccCJnE45.s:384    .text.USB_EnableGlobalInt:0000000000000000 $t
     /tmp/ccCJnE45.s:391    .text.USB_EnableGlobalInt:0000000000000000 USB_EnableGlobalInt
     /tmp/ccCJnE45.s:411    .text.USB_DisableGlobalInt:0000000000000000 $t
     /tmp/ccCJnE45.s:418    .text.USB_DisableGlobalInt:0000000000000000 USB_DisableGlobalInt
     /tmp/ccCJnE45.s:438    .text.USB_SetCurrentMode:0000000000000000 $t
     /tmp/ccCJnE45.s:445    .text.USB_SetCurrentMode:0000000000000000 USB_SetCurrentMode
     /tmp/ccCJnE45.s:497    .text.USB_FlushTxFifo:0000000000000000 $t
     /tmp/ccCJnE45.s:504    .text.USB_FlushTxFifo:0000000000000000 USB_FlushTxFifo
     /tmp/ccCJnE45.s:545    .text.USB_FlushTxFifo:0000000000000024 $d
     /tmp/ccCJnE45.s:550    .text.USB_FlushRxFifo:0000000000000000 $t
     /tmp/ccCJnE45.s:557    .text.USB_FlushRxFifo:0000000000000000 USB_FlushRxFifo
     /tmp/ccCJnE45.s:596    .text.USB_FlushRxFifo:0000000000000020 $d
     /tmp/ccCJnE45.s:601    .text.USB_SetDevSpeed:0000000000000000 $t
     /tmp/ccCJnE45.s:608    .text.USB_SetDevSpeed:0000000000000000 USB_SetDevSpeed
     /tmp/ccCJnE45.s:629    .text.USB_DevInit:0000000000000000 $t
     /tmp/ccCJnE45.s:636    .text.USB_DevInit:0000000000000000 USB_DevInit
     /tmp/ccCJnE45.s:917    .text.USB_DevInit:0000000000000180 $d
     /tmp/ccCJnE45.s:923    .text.USB_GetDevSpeed:0000000000000000 $t
     /tmp/ccCJnE45.s:930    .text.USB_GetDevSpeed:0000000000000000 USB_GetDevSpeed
     /tmp/ccCJnE45.s:971    .text.USB_ActivateEndpoint:0000000000000000 $t
     /tmp/ccCJnE45.s:978    .text.USB_ActivateEndpoint:0000000000000000 USB_ActivateEndpoint
     /tmp/ccCJnE45.s:1076   .text.USB_ActivateEndpoint:000000000000008c $d
     /tmp/ccCJnE45.s:1081   .text.USB_ActivateDedicatedEndpoint:0000000000000000 $t
     /tmp/ccCJnE45.s:1088   .text.USB_ActivateDedicatedEndpoint:0000000000000000 USB_ActivateDedicatedEndpoint
     /tmp/ccCJnE45.s:1192   .text.USB_ActivateDedicatedEndpoint:0000000000000098 $d
     /tmp/ccCJnE45.s:1197   .text.USB_DeactivateEndpoint:0000000000000000 $t
     /tmp/ccCJnE45.s:1204   .text.USB_DeactivateEndpoint:0000000000000000 USB_DeactivateEndpoint
     /tmp/ccCJnE45.s:1328   .text.USB_DeactivateEndpoint:00000000000000d4 $d
     /tmp/ccCJnE45.s:1334   .text.USB_DeactivateDedicatedEndpoint:0000000000000000 $t
     /tmp/ccCJnE45.s:1341   .text.USB_DeactivateDedicatedEndpoint:0000000000000000 USB_DeactivateDedicatedEndpoint
     /tmp/ccCJnE45.s:1435   .text.USB_EP0StartXfer:0000000000000000 $t
     /tmp/ccCJnE45.s:1442   .text.USB_EP0StartXfer:0000000000000000 USB_EP0StartXfer
     /tmp/ccCJnE45.s:1627   .text.USB_EP0StartXfer:0000000000000110 $d
     /tmp/ccCJnE45.s:1633   .text.USB_WritePacket:0000000000000000 $t
     /tmp/ccCJnE45.s:1640   .text.USB_WritePacket:0000000000000000 USB_WritePacket
     /tmp/ccCJnE45.s:1698   .text.USB_EPStartXfer:0000000000000000 $t
     /tmp/ccCJnE45.s:1705   .text.USB_EPStartXfer:0000000000000000 USB_EPStartXfer
     /tmp/ccCJnE45.s:2006   .text.USB_EPStartXfer:000000000000020c $d
     /tmp/ccCJnE45.s:2013   .text.USB_ReadPacket:0000000000000000 $t
     /tmp/ccCJnE45.s:2020   .text.USB_ReadPacket:0000000000000000 USB_ReadPacket
     /tmp/ccCJnE45.s:2072   .text.USB_EPSetStall:0000000000000000 $t
     /tmp/ccCJnE45.s:2079   .text.USB_EPSetStall:0000000000000000 USB_EPSetStall
     /tmp/ccCJnE45.s:2143   .text.USB_EPClearStall:0000000000000000 $t
     /tmp/ccCJnE45.s:2150   .text.USB_EPClearStall:0000000000000000 USB_EPClearStall
     /tmp/ccCJnE45.s:2214   .text.USB_StopDevice:0000000000000000 $t
     /tmp/ccCJnE45.s:2221   .text.USB_StopDevice:0000000000000000 USB_StopDevice
ARM GAS  /tmp/ccCJnE45.s 			page 116


     /tmp/ccCJnE45.s:2293   .text.USB_SetDevAddress:0000000000000000 $t
     /tmp/ccCJnE45.s:2300   .text.USB_SetDevAddress:0000000000000000 USB_SetDevAddress
     /tmp/ccCJnE45.s:2327   .text.USB_DevConnect:0000000000000000 $t
     /tmp/ccCJnE45.s:2334   .text.USB_DevConnect:0000000000000000 USB_DevConnect
     /tmp/ccCJnE45.s:2363   .text.USB_DevDisconnect:0000000000000000 $t
     /tmp/ccCJnE45.s:2370   .text.USB_DevDisconnect:0000000000000000 USB_DevDisconnect
     /tmp/ccCJnE45.s:2399   .text.USB_ReadInterrupts:0000000000000000 $t
     /tmp/ccCJnE45.s:2406   .text.USB_ReadInterrupts:0000000000000000 USB_ReadInterrupts
     /tmp/ccCJnE45.s:2428   .text.USB_ReadDevAllOutEpInterrupt:0000000000000000 $t
     /tmp/ccCJnE45.s:2435   .text.USB_ReadDevAllOutEpInterrupt:0000000000000000 USB_ReadDevAllOutEpInterrupt
     /tmp/ccCJnE45.s:2460   .text.USB_ReadDevAllInEpInterrupt:0000000000000000 $t
     /tmp/ccCJnE45.s:2467   .text.USB_ReadDevAllInEpInterrupt:0000000000000000 USB_ReadDevAllInEpInterrupt
     /tmp/ccCJnE45.s:2492   .text.USB_ReadDevOutEPInterrupt:0000000000000000 $t
     /tmp/ccCJnE45.s:2499   .text.USB_ReadDevOutEPInterrupt:0000000000000000 USB_ReadDevOutEPInterrupt
     /tmp/ccCJnE45.s:2525   .text.USB_ReadDevInEPInterrupt:0000000000000000 $t
     /tmp/ccCJnE45.s:2532   .text.USB_ReadDevInEPInterrupt:0000000000000000 USB_ReadDevInEPInterrupt
     /tmp/ccCJnE45.s:2577   .text.USB_ClearInterrupts:0000000000000000 $t
     /tmp/ccCJnE45.s:2584   .text.USB_ClearInterrupts:0000000000000000 USB_ClearInterrupts
     /tmp/ccCJnE45.s:2603   .text.USB_GetMode:0000000000000000 $t
     /tmp/ccCJnE45.s:2610   .text.USB_GetMode:0000000000000000 USB_GetMode
     /tmp/ccCJnE45.s:2628   .text.USB_ActivateSetup:0000000000000000 $t
     /tmp/ccCJnE45.s:2635   .text.USB_ActivateSetup:0000000000000000 USB_ActivateSetup
     /tmp/ccCJnE45.s:2659   .text.USB_ActivateSetup:000000000000001c $d
     /tmp/ccCJnE45.s:2664   .text.USB_EP0_OutStart:0000000000000000 $t
     /tmp/ccCJnE45.s:2671   .text.USB_EP0_OutStart:0000000000000000 USB_EP0_OutStart
     /tmp/ccCJnE45.s:2739   .text.USB_EP0_OutStart:000000000000005c $d
     /tmp/ccCJnE45.s:2744   .text.USB_InitFSLSPClkSel:0000000000000000 $t
     /tmp/ccCJnE45.s:2751   .text.USB_InitFSLSPClkSel:0000000000000000 USB_InitFSLSPClkSel
     /tmp/ccCJnE45.s:2808   .text.USB_ResetPort:0000000000000000 $t
     /tmp/ccCJnE45.s:2815   .text.USB_ResetPort:0000000000000000 USB_ResetPort
     /tmp/ccCJnE45.s:2871   .text.USB_DriveVbus:0000000000000000 $t
     /tmp/ccCJnE45.s:2878   .text.USB_DriveVbus:0000000000000000 USB_DriveVbus
     /tmp/ccCJnE45.s:2941   .text.USB_HostInit:0000000000000000 $t
     /tmp/ccCJnE45.s:2948   .text.USB_HostInit:0000000000000000 USB_HostInit
     /tmp/ccCJnE45.s:3111   .text.USB_HostInit:00000000000000e8 $d
     /tmp/ccCJnE45.s:3118   .text.USB_GetHostSpeed:0000000000000000 $t
     /tmp/ccCJnE45.s:3125   .text.USB_GetHostSpeed:0000000000000000 USB_GetHostSpeed
     /tmp/ccCJnE45.s:3157   .text.USB_GetCurrentFrame:0000000000000000 $t
     /tmp/ccCJnE45.s:3164   .text.USB_GetCurrentFrame:0000000000000000 USB_GetCurrentFrame
     /tmp/ccCJnE45.s:3184   .text.USB_HC_Init:0000000000000000 $t
     /tmp/ccCJnE45.s:3191   .text.USB_HC_Init:0000000000000000 USB_HC_Init
     /tmp/ccCJnE45.s:3220   .text.USB_HC_Init:000000000000001e $d
     /tmp/ccCJnE45.s:3224   .text.USB_HC_Init:0000000000000022 $t
     /tmp/ccCJnE45.s:3378   .text.USB_HC_ReadInterrupt:0000000000000000 $t
     /tmp/ccCJnE45.s:3385   .text.USB_HC_ReadInterrupt:0000000000000000 USB_HC_ReadInterrupt
     /tmp/ccCJnE45.s:3405   .text.USB_HC_Halt:0000000000000000 $t
     /tmp/ccCJnE45.s:3412   .text.USB_HC_Halt:0000000000000000 USB_HC_Halt
     /tmp/ccCJnE45.s:3539   .text.USB_DoPing:0000000000000000 $t
     /tmp/ccCJnE45.s:3546   .text.USB_DoPing:0000000000000000 USB_DoPing
     /tmp/ccCJnE45.s:3577   .text.USB_DoPing:0000000000000020 $d
     /tmp/ccCJnE45.s:3582   .text.USB_HC_StartXfer:0000000000000000 $t
     /tmp/ccCJnE45.s:3589   .text.USB_HC_StartXfer:0000000000000000 USB_HC_StartXfer
     /tmp/ccCJnE45.s:3764   .text.USB_HC_StartXfer:00000000000000fc $d
     /tmp/ccCJnE45.s:3769   .text.USB_HC_StartXfer:0000000000000100 $t
     /tmp/ccCJnE45.s:3837   .text.USB_HC_StartXfer:0000000000000150 $d
     /tmp/ccCJnE45.s:3843   .text.USB_StopHost:0000000000000000 $t
     /tmp/ccCJnE45.s:3850   .text.USB_StopHost:0000000000000000 USB_StopHost
ARM GAS  /tmp/ccCJnE45.s 			page 117


     /tmp/ccCJnE45.s:3961   .text.USB_ActivateRemoteWakeup:0000000000000000 $t
     /tmp/ccCJnE45.s:3968   .text.USB_ActivateRemoteWakeup:0000000000000000 USB_ActivateRemoteWakeup
     /tmp/ccCJnE45.s:3995   .text.USB_DeActivateRemoteWakeup:0000000000000000 $t
     /tmp/ccCJnE45.s:4002   .text.USB_DeActivateRemoteWakeup:0000000000000000 USB_DeActivateRemoteWakeup
     /tmp/ccCJnE45.s:4022   .bss.tmpreg.13079:0000000000000000 $d
     /tmp/ccCJnE45.s:4026   .bss.tmpreg.13079:0000000000000000 tmpreg.13079

UNDEFINED SYMBOLS
HAL_Delay
