ARM GAS  /tmp/ccyHfJz5.s 			page 1


   1              		.cpu cortex-m7
   2              		.eabi_attribute 28, 1
   3              		.eabi_attribute 20, 1
   4              		.eabi_attribute 21, 1
   5              		.eabi_attribute 23, 3
   6              		.eabi_attribute 24, 1
   7              		.eabi_attribute 25, 1
   8              		.eabi_attribute 26, 1
   9              		.eabi_attribute 30, 1
  10              		.eabi_attribute 34, 1
  11              		.eabi_attribute 18, 4
  12              		.file	"stm32h7xx_hal_exti.c"
  13              		.text
  14              	.Ltext0:
  15              		.cfi_sections	.debug_frame
  16              		.section	.text.HAL_EXTI_SetConfigLine,"ax",%progbits
  17              		.align	1
  18              		.global	HAL_EXTI_SetConfigLine
  19              		.syntax unified
  20              		.thumb
  21              		.thumb_func
  22              		.fpu fpv5-d16
  24              	HAL_EXTI_SetConfigLine:
  25              	.LFB343:
  26              		.file 1 "Drivers/STM32H7xx_HAL_Driver/Src/stm32h7xx_hal_exti.c"
   1:Drivers/STM32H7xx_HAL_Driver/Src/stm32h7xx_hal_exti.c **** /**
   2:Drivers/STM32H7xx_HAL_Driver/Src/stm32h7xx_hal_exti.c ****   ******************************************************************************
   3:Drivers/STM32H7xx_HAL_Driver/Src/stm32h7xx_hal_exti.c ****   * @file    stm32h7xx_hal_exti.c
   4:Drivers/STM32H7xx_HAL_Driver/Src/stm32h7xx_hal_exti.c ****   * @author  MCD Application Team
   5:Drivers/STM32H7xx_HAL_Driver/Src/stm32h7xx_hal_exti.c ****   * @brief   EXTI HAL module driver.
   6:Drivers/STM32H7xx_HAL_Driver/Src/stm32h7xx_hal_exti.c ****   *          This file provides firmware functions to manage the following
   7:Drivers/STM32H7xx_HAL_Driver/Src/stm32h7xx_hal_exti.c ****   *          functionalities of the General Purpose Input/Output (EXTI) peripheral:
   8:Drivers/STM32H7xx_HAL_Driver/Src/stm32h7xx_hal_exti.c ****   *           + Initialization and de-initialization functions
   9:Drivers/STM32H7xx_HAL_Driver/Src/stm32h7xx_hal_exti.c ****   *           + IO operation functions
  10:Drivers/STM32H7xx_HAL_Driver/Src/stm32h7xx_hal_exti.c ****   *
  11:Drivers/STM32H7xx_HAL_Driver/Src/stm32h7xx_hal_exti.c ****   @verbatim
  12:Drivers/STM32H7xx_HAL_Driver/Src/stm32h7xx_hal_exti.c ****   ==============================================================================
  13:Drivers/STM32H7xx_HAL_Driver/Src/stm32h7xx_hal_exti.c ****                     ##### EXTI Peripheral features #####
  14:Drivers/STM32H7xx_HAL_Driver/Src/stm32h7xx_hal_exti.c ****   ==============================================================================
  15:Drivers/STM32H7xx_HAL_Driver/Src/stm32h7xx_hal_exti.c ****   [..]
  16:Drivers/STM32H7xx_HAL_Driver/Src/stm32h7xx_hal_exti.c ****     (+) Each Exti line can be configured within this driver.
  17:Drivers/STM32H7xx_HAL_Driver/Src/stm32h7xx_hal_exti.c **** 
  18:Drivers/STM32H7xx_HAL_Driver/Src/stm32h7xx_hal_exti.c ****     (+) Exti line can be configured in 3 different modes
  19:Drivers/STM32H7xx_HAL_Driver/Src/stm32h7xx_hal_exti.c ****         (++) Interrupt (CORE1 or CORE2 in case of dual core line )
  20:Drivers/STM32H7xx_HAL_Driver/Src/stm32h7xx_hal_exti.c ****         (++) Event (CORE1 or CORE2 in case of dual core line )
  21:Drivers/STM32H7xx_HAL_Driver/Src/stm32h7xx_hal_exti.c ****         (++) a combination of the previous
  22:Drivers/STM32H7xx_HAL_Driver/Src/stm32h7xx_hal_exti.c **** 
  23:Drivers/STM32H7xx_HAL_Driver/Src/stm32h7xx_hal_exti.c ****     (+) Configurable Exti lines can be configured with 3 different triggers
  24:Drivers/STM32H7xx_HAL_Driver/Src/stm32h7xx_hal_exti.c ****         (++) Rising
  25:Drivers/STM32H7xx_HAL_Driver/Src/stm32h7xx_hal_exti.c ****         (++) Falling
  26:Drivers/STM32H7xx_HAL_Driver/Src/stm32h7xx_hal_exti.c ****         (++) Both of them
  27:Drivers/STM32H7xx_HAL_Driver/Src/stm32h7xx_hal_exti.c **** 
  28:Drivers/STM32H7xx_HAL_Driver/Src/stm32h7xx_hal_exti.c ****     (+) When set in interrupt mode, configurable Exti lines have two diffenrents
  29:Drivers/STM32H7xx_HAL_Driver/Src/stm32h7xx_hal_exti.c ****         interrupt pending registers which allow to distinguish which transition
  30:Drivers/STM32H7xx_HAL_Driver/Src/stm32h7xx_hal_exti.c ****         occurs:
  31:Drivers/STM32H7xx_HAL_Driver/Src/stm32h7xx_hal_exti.c ****         (++) Rising edge pending interrupt
  32:Drivers/STM32H7xx_HAL_Driver/Src/stm32h7xx_hal_exti.c ****         (++) Falling
ARM GAS  /tmp/ccyHfJz5.s 			page 2


  33:Drivers/STM32H7xx_HAL_Driver/Src/stm32h7xx_hal_exti.c **** 
  34:Drivers/STM32H7xx_HAL_Driver/Src/stm32h7xx_hal_exti.c ****     (+) Exti lines 0 to 15 are linked to gpio pin number 0 to 15. Gpio port can
  35:Drivers/STM32H7xx_HAL_Driver/Src/stm32h7xx_hal_exti.c ****         be selected throught multiplexer.
  36:Drivers/STM32H7xx_HAL_Driver/Src/stm32h7xx_hal_exti.c **** 
  37:Drivers/STM32H7xx_HAL_Driver/Src/stm32h7xx_hal_exti.c ****     (+) PendClearSource used to set the D3 Smart Run Domain autoamtic pend clear soure.
  38:Drivers/STM32H7xx_HAL_Driver/Src/stm32h7xx_hal_exti.c ****         It is applicable for line with wkaeup target is Any (CPU1 , CPU2 and D3 smart run domain).
  39:Drivers/STM32H7xx_HAL_Driver/Src/stm32h7xx_hal_exti.c ****         Value can be one of the following:
  40:Drivers/STM32H7xx_HAL_Driver/Src/stm32h7xx_hal_exti.c ****         (++)  EXTI_D3_PENDCLR_SRC_NONE : no pend clear source is selcted :
  41:Drivers/STM32H7xx_HAL_Driver/Src/stm32h7xx_hal_exti.c ****               In this case corresponding bit of D2PMRx register is set to 0
  42:Drivers/STM32H7xx_HAL_Driver/Src/stm32h7xx_hal_exti.c ****                 (+++) On a configurable Line : the D3 domain wakeup signal is
  43:Drivers/STM32H7xx_HAL_Driver/Src/stm32h7xx_hal_exti.c ****                       automatically cleared after after the Delay + Rising Edge detect
  44:Drivers/STM32H7xx_HAL_Driver/Src/stm32h7xx_hal_exti.c ****                 (+++) On a direct Line : the D3 domain wakeup signal is
  45:Drivers/STM32H7xx_HAL_Driver/Src/stm32h7xx_hal_exti.c ****                       cleared after the direct event input signal is cleared
  46:Drivers/STM32H7xx_HAL_Driver/Src/stm32h7xx_hal_exti.c **** 
  47:Drivers/STM32H7xx_HAL_Driver/Src/stm32h7xx_hal_exti.c ****         (++)  EXTI_D3_PENDCLR_SRC_DMACH6 : no pend clear source is selcted :
  48:Drivers/STM32H7xx_HAL_Driver/Src/stm32h7xx_hal_exti.c ****               In this case corresponding bit of D2PMRx register is set to 1
  49:Drivers/STM32H7xx_HAL_Driver/Src/stm32h7xx_hal_exti.c ****               and corresponding bits(2) of D3PCRxL/H is set to b00 :
  50:Drivers/STM32H7xx_HAL_Driver/Src/stm32h7xx_hal_exti.c ****                 DMA ch6 event selected as D3 domain pendclear source
  51:Drivers/STM32H7xx_HAL_Driver/Src/stm32h7xx_hal_exti.c **** 
  52:Drivers/STM32H7xx_HAL_Driver/Src/stm32h7xx_hal_exti.c ****         (++)  EXTI_D3_PENDCLR_SRC_DMACH7 : no pend clear source is selcted :
  53:Drivers/STM32H7xx_HAL_Driver/Src/stm32h7xx_hal_exti.c ****               In this case corresponding bit of D2PMRx register is set to 1
  54:Drivers/STM32H7xx_HAL_Driver/Src/stm32h7xx_hal_exti.c ****               and corresponding bits(2) of D3PCRxL/H is set to b01 :
  55:Drivers/STM32H7xx_HAL_Driver/Src/stm32h7xx_hal_exti.c ****                 DMA ch7 event selected as D3 domain pendclear source
  56:Drivers/STM32H7xx_HAL_Driver/Src/stm32h7xx_hal_exti.c **** 
  57:Drivers/STM32H7xx_HAL_Driver/Src/stm32h7xx_hal_exti.c ****         (++)  EXTI_D3_PENDCLR_SRC_LPTIM4 : no pend clear source is selcted :
  58:Drivers/STM32H7xx_HAL_Driver/Src/stm32h7xx_hal_exti.c ****               In this case corresponding bit of D2PMRx register is set to 1
  59:Drivers/STM32H7xx_HAL_Driver/Src/stm32h7xx_hal_exti.c ****               and corresponding bits(2) of D3PCRxL/H is set to b10 :
  60:Drivers/STM32H7xx_HAL_Driver/Src/stm32h7xx_hal_exti.c ****                 LPTIM4 out selected as D3 domain pendclear source
  61:Drivers/STM32H7xx_HAL_Driver/Src/stm32h7xx_hal_exti.c **** 
  62:Drivers/STM32H7xx_HAL_Driver/Src/stm32h7xx_hal_exti.c ****         (++)  EXTI_D3_PENDCLR_SRC_LPTIM5 : no pend clear source is selcted :
  63:Drivers/STM32H7xx_HAL_Driver/Src/stm32h7xx_hal_exti.c ****               In this case corresponding bit of D2PMRx register is set to 1
  64:Drivers/STM32H7xx_HAL_Driver/Src/stm32h7xx_hal_exti.c ****               and corresponding bits(2) of D3PCRxL/H is set to b11 :
  65:Drivers/STM32H7xx_HAL_Driver/Src/stm32h7xx_hal_exti.c ****                 LPTIM5 out selected as D3 domain pendclear source
  66:Drivers/STM32H7xx_HAL_Driver/Src/stm32h7xx_hal_exti.c **** 
  67:Drivers/STM32H7xx_HAL_Driver/Src/stm32h7xx_hal_exti.c **** 
  68:Drivers/STM32H7xx_HAL_Driver/Src/stm32h7xx_hal_exti.c ****                      ##### How to use this driver #####
  69:Drivers/STM32H7xx_HAL_Driver/Src/stm32h7xx_hal_exti.c ****   ==============================================================================
  70:Drivers/STM32H7xx_HAL_Driver/Src/stm32h7xx_hal_exti.c ****   [..]
  71:Drivers/STM32H7xx_HAL_Driver/Src/stm32h7xx_hal_exti.c **** 
  72:Drivers/STM32H7xx_HAL_Driver/Src/stm32h7xx_hal_exti.c ****     (#) Configure the EXTI line using HAL_EXTI_SetConfigLine().
  73:Drivers/STM32H7xx_HAL_Driver/Src/stm32h7xx_hal_exti.c ****         (++) Choose the interrupt line number by setting "Line" member from
  74:Drivers/STM32H7xx_HAL_Driver/Src/stm32h7xx_hal_exti.c ****              EXTI_ConfigTypeDef structure.
  75:Drivers/STM32H7xx_HAL_Driver/Src/stm32h7xx_hal_exti.c ****         (++) Configure the interrupt and/or event mode using "Mode" member from
  76:Drivers/STM32H7xx_HAL_Driver/Src/stm32h7xx_hal_exti.c ****              EXTI_ConfigTypeDef structure.
  77:Drivers/STM32H7xx_HAL_Driver/Src/stm32h7xx_hal_exti.c ****         (++) For configurable lines, configure rising and/or falling trigger
  78:Drivers/STM32H7xx_HAL_Driver/Src/stm32h7xx_hal_exti.c ****              "Trigger" member from EXTI_ConfigTypeDef structure.
  79:Drivers/STM32H7xx_HAL_Driver/Src/stm32h7xx_hal_exti.c ****         (++) For Exti lines linked to gpio, choose gpio port using "GPIOSel"
  80:Drivers/STM32H7xx_HAL_Driver/Src/stm32h7xx_hal_exti.c ****              member from GPIO_InitTypeDef structure.
  81:Drivers/STM32H7xx_HAL_Driver/Src/stm32h7xx_hal_exti.c ****         (++) For Exti lines with wkaeup target is Any (CPU1 , CPU2 and D3 smart run domain),
  82:Drivers/STM32H7xx_HAL_Driver/Src/stm32h7xx_hal_exti.c ****              choose gpio D3 PendClearSource using PendClearSource
  83:Drivers/STM32H7xx_HAL_Driver/Src/stm32h7xx_hal_exti.c ****              member from EXTI_PendClear_Source structure.
  84:Drivers/STM32H7xx_HAL_Driver/Src/stm32h7xx_hal_exti.c **** 
  85:Drivers/STM32H7xx_HAL_Driver/Src/stm32h7xx_hal_exti.c ****     (#) Get current Exti configuration of a dedicated line using
  86:Drivers/STM32H7xx_HAL_Driver/Src/stm32h7xx_hal_exti.c ****         HAL_EXTI_GetConfigLine().
  87:Drivers/STM32H7xx_HAL_Driver/Src/stm32h7xx_hal_exti.c ****         (++) Provide exiting handle as parameter.
  88:Drivers/STM32H7xx_HAL_Driver/Src/stm32h7xx_hal_exti.c ****         (++) Provide pointer on EXTI_ConfigTypeDef structure as second parameter.
  89:Drivers/STM32H7xx_HAL_Driver/Src/stm32h7xx_hal_exti.c **** 
ARM GAS  /tmp/ccyHfJz5.s 			page 3


  90:Drivers/STM32H7xx_HAL_Driver/Src/stm32h7xx_hal_exti.c ****     (#) Clear Exti configuration of a dedicated line using HAL_EXTI_GetConfigLine().
  91:Drivers/STM32H7xx_HAL_Driver/Src/stm32h7xx_hal_exti.c ****         (++) Provide exiting handle as parameter.
  92:Drivers/STM32H7xx_HAL_Driver/Src/stm32h7xx_hal_exti.c **** 
  93:Drivers/STM32H7xx_HAL_Driver/Src/stm32h7xx_hal_exti.c ****     (#) Register callback to treat Exti interrupts using HAL_EXTI_RegisterCallback().
  94:Drivers/STM32H7xx_HAL_Driver/Src/stm32h7xx_hal_exti.c ****         (++) Provide exiting handle as first parameter.
  95:Drivers/STM32H7xx_HAL_Driver/Src/stm32h7xx_hal_exti.c ****         (++) Provide which callback will be registered using one value from
  96:Drivers/STM32H7xx_HAL_Driver/Src/stm32h7xx_hal_exti.c ****              EXTI_CallbackIDTypeDef.
  97:Drivers/STM32H7xx_HAL_Driver/Src/stm32h7xx_hal_exti.c ****         (++) Provide callback function pointer.
  98:Drivers/STM32H7xx_HAL_Driver/Src/stm32h7xx_hal_exti.c **** 
  99:Drivers/STM32H7xx_HAL_Driver/Src/stm32h7xx_hal_exti.c ****     (#) Get interrupt pending bit using HAL_EXTI_GetPending().
 100:Drivers/STM32H7xx_HAL_Driver/Src/stm32h7xx_hal_exti.c **** 
 101:Drivers/STM32H7xx_HAL_Driver/Src/stm32h7xx_hal_exti.c ****     (#) Clear interrupt pending bit using HAL_EXTI_GetPending().
 102:Drivers/STM32H7xx_HAL_Driver/Src/stm32h7xx_hal_exti.c **** 
 103:Drivers/STM32H7xx_HAL_Driver/Src/stm32h7xx_hal_exti.c ****     (#) Generate software interrupt using HAL_EXTI_GenerateSWI().
 104:Drivers/STM32H7xx_HAL_Driver/Src/stm32h7xx_hal_exti.c **** 
 105:Drivers/STM32H7xx_HAL_Driver/Src/stm32h7xx_hal_exti.c ****   @endverbatim
 106:Drivers/STM32H7xx_HAL_Driver/Src/stm32h7xx_hal_exti.c ****   ******************************************************************************
 107:Drivers/STM32H7xx_HAL_Driver/Src/stm32h7xx_hal_exti.c ****   * @attention
 108:Drivers/STM32H7xx_HAL_Driver/Src/stm32h7xx_hal_exti.c ****   *
 109:Drivers/STM32H7xx_HAL_Driver/Src/stm32h7xx_hal_exti.c ****   * <h2><center>&copy; Copyright (c) 2017 STMicroelectronics.
 110:Drivers/STM32H7xx_HAL_Driver/Src/stm32h7xx_hal_exti.c ****   * All rights reserved.</center></h2>
 111:Drivers/STM32H7xx_HAL_Driver/Src/stm32h7xx_hal_exti.c ****   *
 112:Drivers/STM32H7xx_HAL_Driver/Src/stm32h7xx_hal_exti.c ****   * This software component is licensed by ST under BSD 3-Clause license,
 113:Drivers/STM32H7xx_HAL_Driver/Src/stm32h7xx_hal_exti.c ****   * the "License"; You may not use this file except in compliance with the
 114:Drivers/STM32H7xx_HAL_Driver/Src/stm32h7xx_hal_exti.c ****   * License. You may obtain a copy of the License at:
 115:Drivers/STM32H7xx_HAL_Driver/Src/stm32h7xx_hal_exti.c ****   *                        opensource.org/licenses/BSD-3-Clause
 116:Drivers/STM32H7xx_HAL_Driver/Src/stm32h7xx_hal_exti.c ****   *
 117:Drivers/STM32H7xx_HAL_Driver/Src/stm32h7xx_hal_exti.c ****   ******************************************************************************
 118:Drivers/STM32H7xx_HAL_Driver/Src/stm32h7xx_hal_exti.c ****   */
 119:Drivers/STM32H7xx_HAL_Driver/Src/stm32h7xx_hal_exti.c **** 
 120:Drivers/STM32H7xx_HAL_Driver/Src/stm32h7xx_hal_exti.c **** /* Includes ------------------------------------------------------------------*/
 121:Drivers/STM32H7xx_HAL_Driver/Src/stm32h7xx_hal_exti.c **** #include "stm32h7xx_hal.h"
 122:Drivers/STM32H7xx_HAL_Driver/Src/stm32h7xx_hal_exti.c **** 
 123:Drivers/STM32H7xx_HAL_Driver/Src/stm32h7xx_hal_exti.c **** /** @addtogroup STM32H7xx_HAL_Driver
 124:Drivers/STM32H7xx_HAL_Driver/Src/stm32h7xx_hal_exti.c ****   * @{
 125:Drivers/STM32H7xx_HAL_Driver/Src/stm32h7xx_hal_exti.c ****   */
 126:Drivers/STM32H7xx_HAL_Driver/Src/stm32h7xx_hal_exti.c **** 
 127:Drivers/STM32H7xx_HAL_Driver/Src/stm32h7xx_hal_exti.c **** /** @addtogroup EXTI
 128:Drivers/STM32H7xx_HAL_Driver/Src/stm32h7xx_hal_exti.c ****   * @{
 129:Drivers/STM32H7xx_HAL_Driver/Src/stm32h7xx_hal_exti.c ****   */
 130:Drivers/STM32H7xx_HAL_Driver/Src/stm32h7xx_hal_exti.c **** 
 131:Drivers/STM32H7xx_HAL_Driver/Src/stm32h7xx_hal_exti.c **** #ifdef HAL_EXTI_MODULE_ENABLED
 132:Drivers/STM32H7xx_HAL_Driver/Src/stm32h7xx_hal_exti.c **** 
 133:Drivers/STM32H7xx_HAL_Driver/Src/stm32h7xx_hal_exti.c **** /* Private typedef -----------------------------------------------------------*/
 134:Drivers/STM32H7xx_HAL_Driver/Src/stm32h7xx_hal_exti.c **** /* Private defines ------------------------------------------------------------*/
 135:Drivers/STM32H7xx_HAL_Driver/Src/stm32h7xx_hal_exti.c **** /** @defgroup EXTI_Private_Constants EXTI Private Constants
 136:Drivers/STM32H7xx_HAL_Driver/Src/stm32h7xx_hal_exti.c ****   * @{
 137:Drivers/STM32H7xx_HAL_Driver/Src/stm32h7xx_hal_exti.c ****   */
 138:Drivers/STM32H7xx_HAL_Driver/Src/stm32h7xx_hal_exti.c **** #define EXTI_MODE_OFFSET                    0x04U   /* 0x10: offset between CPU IMR/EMR registers *
 139:Drivers/STM32H7xx_HAL_Driver/Src/stm32h7xx_hal_exti.c **** #define EXTI_CONFIG_OFFSET                  0x08U   /* 0x20: offset between CPU Rising/Falling conf
 140:Drivers/STM32H7xx_HAL_Driver/Src/stm32h7xx_hal_exti.c **** /**
 141:Drivers/STM32H7xx_HAL_Driver/Src/stm32h7xx_hal_exti.c ****   * @}
 142:Drivers/STM32H7xx_HAL_Driver/Src/stm32h7xx_hal_exti.c ****   */
 143:Drivers/STM32H7xx_HAL_Driver/Src/stm32h7xx_hal_exti.c **** 
 144:Drivers/STM32H7xx_HAL_Driver/Src/stm32h7xx_hal_exti.c **** /* Private macros ------------------------------------------------------------*/
 145:Drivers/STM32H7xx_HAL_Driver/Src/stm32h7xx_hal_exti.c **** /* Private variables ---------------------------------------------------------*/
 146:Drivers/STM32H7xx_HAL_Driver/Src/stm32h7xx_hal_exti.c **** /* Private function prototypes -----------------------------------------------*/
ARM GAS  /tmp/ccyHfJz5.s 			page 4


 147:Drivers/STM32H7xx_HAL_Driver/Src/stm32h7xx_hal_exti.c **** /* Exported functions --------------------------------------------------------*/
 148:Drivers/STM32H7xx_HAL_Driver/Src/stm32h7xx_hal_exti.c **** 
 149:Drivers/STM32H7xx_HAL_Driver/Src/stm32h7xx_hal_exti.c **** /** @addtogroup EXTI_Exported_Functions
 150:Drivers/STM32H7xx_HAL_Driver/Src/stm32h7xx_hal_exti.c ****   * @{
 151:Drivers/STM32H7xx_HAL_Driver/Src/stm32h7xx_hal_exti.c ****   */
 152:Drivers/STM32H7xx_HAL_Driver/Src/stm32h7xx_hal_exti.c **** 
 153:Drivers/STM32H7xx_HAL_Driver/Src/stm32h7xx_hal_exti.c **** /** @addtogroup EXTI_Exported_Functions_Group1
 154:Drivers/STM32H7xx_HAL_Driver/Src/stm32h7xx_hal_exti.c ****  *  @brief    Configuration functions
 155:Drivers/STM32H7xx_HAL_Driver/Src/stm32h7xx_hal_exti.c ****  *
 156:Drivers/STM32H7xx_HAL_Driver/Src/stm32h7xx_hal_exti.c **** @verbatim
 157:Drivers/STM32H7xx_HAL_Driver/Src/stm32h7xx_hal_exti.c ****  ===============================================================================
 158:Drivers/STM32H7xx_HAL_Driver/Src/stm32h7xx_hal_exti.c ****               ##### Configuration functions #####
 159:Drivers/STM32H7xx_HAL_Driver/Src/stm32h7xx_hal_exti.c ****  ===============================================================================
 160:Drivers/STM32H7xx_HAL_Driver/Src/stm32h7xx_hal_exti.c **** 
 161:Drivers/STM32H7xx_HAL_Driver/Src/stm32h7xx_hal_exti.c **** @endverbatim
 162:Drivers/STM32H7xx_HAL_Driver/Src/stm32h7xx_hal_exti.c ****   * @{
 163:Drivers/STM32H7xx_HAL_Driver/Src/stm32h7xx_hal_exti.c ****   */
 164:Drivers/STM32H7xx_HAL_Driver/Src/stm32h7xx_hal_exti.c **** 
 165:Drivers/STM32H7xx_HAL_Driver/Src/stm32h7xx_hal_exti.c **** /**
 166:Drivers/STM32H7xx_HAL_Driver/Src/stm32h7xx_hal_exti.c ****   * @brief  Set configuration of a dedicated Exti line.
 167:Drivers/STM32H7xx_HAL_Driver/Src/stm32h7xx_hal_exti.c ****   * @param  hexti Exti handle.
 168:Drivers/STM32H7xx_HAL_Driver/Src/stm32h7xx_hal_exti.c ****   * @param  pExtiConfig Pointer on EXTI configuration to be set.
 169:Drivers/STM32H7xx_HAL_Driver/Src/stm32h7xx_hal_exti.c ****   * @retval HAL Status.
 170:Drivers/STM32H7xx_HAL_Driver/Src/stm32h7xx_hal_exti.c ****   */
 171:Drivers/STM32H7xx_HAL_Driver/Src/stm32h7xx_hal_exti.c **** HAL_StatusTypeDef HAL_EXTI_SetConfigLine(EXTI_HandleTypeDef *hexti, EXTI_ConfigTypeDef *pExtiConfig
 172:Drivers/STM32H7xx_HAL_Driver/Src/stm32h7xx_hal_exti.c **** {
  27              		.loc 1 172 0
  28              		.cfi_startproc
  29              		@ args = 0, pretend = 0, frame = 0
  30              		@ frame_needed = 0, uses_anonymous_args = 0
  31              		@ link register save eliminated.
  32              	.LVL0:
 173:Drivers/STM32H7xx_HAL_Driver/Src/stm32h7xx_hal_exti.c ****   __IO uint32_t *regaddr;
 174:Drivers/STM32H7xx_HAL_Driver/Src/stm32h7xx_hal_exti.c ****   uint32_t regval;
 175:Drivers/STM32H7xx_HAL_Driver/Src/stm32h7xx_hal_exti.c ****   uint32_t linepos;
 176:Drivers/STM32H7xx_HAL_Driver/Src/stm32h7xx_hal_exti.c ****   uint32_t maskline;
 177:Drivers/STM32H7xx_HAL_Driver/Src/stm32h7xx_hal_exti.c ****   uint32_t offset;
 178:Drivers/STM32H7xx_HAL_Driver/Src/stm32h7xx_hal_exti.c ****   uint32_t pcrlinepos;
 179:Drivers/STM32H7xx_HAL_Driver/Src/stm32h7xx_hal_exti.c **** 
 180:Drivers/STM32H7xx_HAL_Driver/Src/stm32h7xx_hal_exti.c ****   /* Check null pointer */
 181:Drivers/STM32H7xx_HAL_Driver/Src/stm32h7xx_hal_exti.c ****   if ((hexti == NULL) || (pExtiConfig == NULL))
  33              		.loc 1 181 0
  34 0000 0B46     		mov	r3, r1
  35 0002 B1FA81F1 		clz	r1, r1
  36              	.LVL1:
  37 0006 4909     		lsrs	r1, r1, #5
  38 0008 0028     		cmp	r0, #0
  39 000a 08BF     		it	eq
  40 000c 0121     		moveq	r1, #1
  41 000e 0029     		cmp	r1, #0
  42 0010 40F08980 		bne	.L15
 172:Drivers/STM32H7xx_HAL_Driver/Src/stm32h7xx_hal_exti.c ****   __IO uint32_t *regaddr;
  43              		.loc 1 172 0
  44 0014 F0B4     		push	{r4, r5, r6, r7}
  45              	.LCFI0:
  46              		.cfi_def_cfa_offset 16
  47              		.cfi_offset 4, -16
ARM GAS  /tmp/ccyHfJz5.s 			page 5


  48              		.cfi_offset 5, -12
  49              		.cfi_offset 6, -8
  50              		.cfi_offset 7, -4
 182:Drivers/STM32H7xx_HAL_Driver/Src/stm32h7xx_hal_exti.c ****   {
 183:Drivers/STM32H7xx_HAL_Driver/Src/stm32h7xx_hal_exti.c ****     return HAL_ERROR;
 184:Drivers/STM32H7xx_HAL_Driver/Src/stm32h7xx_hal_exti.c ****   }
 185:Drivers/STM32H7xx_HAL_Driver/Src/stm32h7xx_hal_exti.c **** 
 186:Drivers/STM32H7xx_HAL_Driver/Src/stm32h7xx_hal_exti.c ****   /* Check the parameters */
 187:Drivers/STM32H7xx_HAL_Driver/Src/stm32h7xx_hal_exti.c ****   assert_param(IS_EXTI_LINE(pExtiConfig->Line));
 188:Drivers/STM32H7xx_HAL_Driver/Src/stm32h7xx_hal_exti.c ****   assert_param(IS_EXTI_MODE(pExtiConfig->Mode));
 189:Drivers/STM32H7xx_HAL_Driver/Src/stm32h7xx_hal_exti.c **** 
 190:Drivers/STM32H7xx_HAL_Driver/Src/stm32h7xx_hal_exti.c ****   /* Assign line number to handle */
 191:Drivers/STM32H7xx_HAL_Driver/Src/stm32h7xx_hal_exti.c ****   hexti->Line = pExtiConfig->Line;
  51              		.loc 1 191 0
  52 0016 1968     		ldr	r1, [r3]
  53 0018 0160     		str	r1, [r0]
 192:Drivers/STM32H7xx_HAL_Driver/Src/stm32h7xx_hal_exti.c **** 
 193:Drivers/STM32H7xx_HAL_Driver/Src/stm32h7xx_hal_exti.c ****   /* compute line register offset and line mask */
 194:Drivers/STM32H7xx_HAL_Driver/Src/stm32h7xx_hal_exti.c ****   offset = ((pExtiConfig->Line & EXTI_REG_MASK) >> EXTI_REG_SHIFT);
  54              		.loc 1 194 0
  55 001a 1968     		ldr	r1, [r3]
  56 001c C1F30140 		ubfx	r0, r1, #16, #2
  57              	.LVL2:
 195:Drivers/STM32H7xx_HAL_Driver/Src/stm32h7xx_hal_exti.c ****   linepos = (pExtiConfig->Line & EXTI_PIN_MASK);
  58              		.loc 1 195 0
  59 0020 01F01F05 		and	r5, r1, #31
  60              	.LVL3:
 196:Drivers/STM32H7xx_HAL_Driver/Src/stm32h7xx_hal_exti.c ****   maskline = (1UL << linepos);
  61              		.loc 1 196 0
  62 0024 0122     		movs	r2, #1
  63 0026 AA40     		lsls	r2, r2, r5
  64              	.LVL4:
 197:Drivers/STM32H7xx_HAL_Driver/Src/stm32h7xx_hal_exti.c **** 
 198:Drivers/STM32H7xx_HAL_Driver/Src/stm32h7xx_hal_exti.c ****   /* Configure triggers for configurable lines */
 199:Drivers/STM32H7xx_HAL_Driver/Src/stm32h7xx_hal_exti.c ****   if ((pExtiConfig->Line & EXTI_CONFIG) != 0x00U)
  65              		.loc 1 199 0
  66 0028 11F0007F 		tst	r1, #33554432
  67 002c 1BD0     		beq	.L3
 200:Drivers/STM32H7xx_HAL_Driver/Src/stm32h7xx_hal_exti.c ****   {
 201:Drivers/STM32H7xx_HAL_Driver/Src/stm32h7xx_hal_exti.c ****     assert_param(IS_EXTI_TRIGGER(pExtiConfig->Trigger));
 202:Drivers/STM32H7xx_HAL_Driver/Src/stm32h7xx_hal_exti.c **** 
 203:Drivers/STM32H7xx_HAL_Driver/Src/stm32h7xx_hal_exti.c ****     /* Configure rising trigger */
 204:Drivers/STM32H7xx_HAL_Driver/Src/stm32h7xx_hal_exti.c ****     regaddr = (__IO uint32_t *)(&EXTI->RTSR1 + (EXTI_CONFIG_OFFSET * offset));
  68              		.loc 1 204 0
  69 002e 4401     		lsls	r4, r0, #5
  70 0030 04F1B04C 		add	ip, r4, #1476395008
  71              	.LVL5:
 205:Drivers/STM32H7xx_HAL_Driver/Src/stm32h7xx_hal_exti.c ****     regval = *regaddr;
  72              		.loc 1 205 0
  73 0034 DCF80060 		ldr	r6, [ip]
  74              	.LVL6:
 206:Drivers/STM32H7xx_HAL_Driver/Src/stm32h7xx_hal_exti.c **** 
 207:Drivers/STM32H7xx_HAL_Driver/Src/stm32h7xx_hal_exti.c ****     /* Mask or set line */
 208:Drivers/STM32H7xx_HAL_Driver/Src/stm32h7xx_hal_exti.c ****     if ((pExtiConfig->Trigger & EXTI_TRIGGER_RISING) != 0x00U)
  75              		.loc 1 208 0
  76 0038 9F68     		ldr	r7, [r3, #8]
  77 003a 17F0010F 		tst	r7, #1
ARM GAS  /tmp/ccyHfJz5.s 			page 6


  78 003e 2CD0     		beq	.L4
 209:Drivers/STM32H7xx_HAL_Driver/Src/stm32h7xx_hal_exti.c ****     {
 210:Drivers/STM32H7xx_HAL_Driver/Src/stm32h7xx_hal_exti.c ****       regval |= maskline;
  79              		.loc 1 210 0
  80 0040 1643     		orrs	r6, r6, r2
  81              	.LVL7:
  82              	.L5:
 211:Drivers/STM32H7xx_HAL_Driver/Src/stm32h7xx_hal_exti.c ****     }
 212:Drivers/STM32H7xx_HAL_Driver/Src/stm32h7xx_hal_exti.c ****     else
 213:Drivers/STM32H7xx_HAL_Driver/Src/stm32h7xx_hal_exti.c ****     {
 214:Drivers/STM32H7xx_HAL_Driver/Src/stm32h7xx_hal_exti.c ****       regval &= ~maskline;
 215:Drivers/STM32H7xx_HAL_Driver/Src/stm32h7xx_hal_exti.c ****     }
 216:Drivers/STM32H7xx_HAL_Driver/Src/stm32h7xx_hal_exti.c **** 
 217:Drivers/STM32H7xx_HAL_Driver/Src/stm32h7xx_hal_exti.c ****     /* Store rising trigger mode */
 218:Drivers/STM32H7xx_HAL_Driver/Src/stm32h7xx_hal_exti.c ****     *regaddr = regval;
  83              		.loc 1 218 0
  84 0042 CCF80060 		str	r6, [ip]
 219:Drivers/STM32H7xx_HAL_Driver/Src/stm32h7xx_hal_exti.c **** 
 220:Drivers/STM32H7xx_HAL_Driver/Src/stm32h7xx_hal_exti.c ****     /* Configure falling trigger */
 221:Drivers/STM32H7xx_HAL_Driver/Src/stm32h7xx_hal_exti.c ****     regaddr = (__IO uint32_t *)(&EXTI->FTSR1 + (EXTI_CONFIG_OFFSET * offset));
  85              		.loc 1 221 0
  86 0046 394F     		ldr	r7, .L24
  87              	.LVL8:
 222:Drivers/STM32H7xx_HAL_Driver/Src/stm32h7xx_hal_exti.c ****     regval = *regaddr;
  88              		.loc 1 222 0
  89 0048 54F807C0 		ldr	ip, [r4, r7]
  90              	.LVL9:
 223:Drivers/STM32H7xx_HAL_Driver/Src/stm32h7xx_hal_exti.c **** 
 224:Drivers/STM32H7xx_HAL_Driver/Src/stm32h7xx_hal_exti.c ****     /* Mask or set line */
 225:Drivers/STM32H7xx_HAL_Driver/Src/stm32h7xx_hal_exti.c ****     if ((pExtiConfig->Trigger & EXTI_TRIGGER_FALLING) != 0x00U)
  91              		.loc 1 225 0
  92 004c 9E68     		ldr	r6, [r3, #8]
  93 004e 16F0020F 		tst	r6, #2
  94 0052 25D0     		beq	.L6
 226:Drivers/STM32H7xx_HAL_Driver/Src/stm32h7xx_hal_exti.c ****     {
 227:Drivers/STM32H7xx_HAL_Driver/Src/stm32h7xx_hal_exti.c ****       regval |= maskline;
  95              		.loc 1 227 0
  96 0054 4CEA0206 		orr	r6, ip, r2
  97              	.LVL10:
  98              	.L7:
 228:Drivers/STM32H7xx_HAL_Driver/Src/stm32h7xx_hal_exti.c ****     }
 229:Drivers/STM32H7xx_HAL_Driver/Src/stm32h7xx_hal_exti.c ****     else
 230:Drivers/STM32H7xx_HAL_Driver/Src/stm32h7xx_hal_exti.c ****     {
 231:Drivers/STM32H7xx_HAL_Driver/Src/stm32h7xx_hal_exti.c ****       regval &= ~maskline;
 232:Drivers/STM32H7xx_HAL_Driver/Src/stm32h7xx_hal_exti.c ****     }
 233:Drivers/STM32H7xx_HAL_Driver/Src/stm32h7xx_hal_exti.c **** 
 234:Drivers/STM32H7xx_HAL_Driver/Src/stm32h7xx_hal_exti.c ****     /* Store falling trigger mode */
 235:Drivers/STM32H7xx_HAL_Driver/Src/stm32h7xx_hal_exti.c ****     *regaddr = regval;
  99              		.loc 1 235 0
 100 0058 E651     		str	r6, [r4, r7]
 236:Drivers/STM32H7xx_HAL_Driver/Src/stm32h7xx_hal_exti.c **** 
 237:Drivers/STM32H7xx_HAL_Driver/Src/stm32h7xx_hal_exti.c ****     /* Configure gpio port selection in case of gpio exti line */
 238:Drivers/STM32H7xx_HAL_Driver/Src/stm32h7xx_hal_exti.c ****     if ((pExtiConfig->Line & EXTI_GPIO) == EXTI_GPIO)
 101              		.loc 1 238 0
 102 005a 1C68     		ldr	r4, [r3]
 103              	.LVL11:
 104 005c 04F0C064 		and	r4, r4, #100663296
ARM GAS  /tmp/ccyHfJz5.s 			page 7


 105 0060 B4F1C06F 		cmp	r4, #100663296
 106 0064 1FD0     		beq	.L21
 107              	.LVL12:
 108              	.L3:
 239:Drivers/STM32H7xx_HAL_Driver/Src/stm32h7xx_hal_exti.c ****     {
 240:Drivers/STM32H7xx_HAL_Driver/Src/stm32h7xx_hal_exti.c ****       assert_param(IS_EXTI_GPIO_PORT(pExtiConfig->GPIOSel));
 241:Drivers/STM32H7xx_HAL_Driver/Src/stm32h7xx_hal_exti.c ****       assert_param(IS_EXTI_GPIO_PIN(linepos));
 242:Drivers/STM32H7xx_HAL_Driver/Src/stm32h7xx_hal_exti.c **** 
 243:Drivers/STM32H7xx_HAL_Driver/Src/stm32h7xx_hal_exti.c ****       regval = SYSCFG->EXTICR[(linepos >> 2U) & 0x03UL];
 244:Drivers/STM32H7xx_HAL_Driver/Src/stm32h7xx_hal_exti.c ****       regval &= ~(SYSCFG_EXTICR1_EXTI0 << (SYSCFG_EXTICR1_EXTI1_Pos * (linepos & 0x03U)));
 245:Drivers/STM32H7xx_HAL_Driver/Src/stm32h7xx_hal_exti.c ****       regval |= (pExtiConfig->GPIOSel << (SYSCFG_EXTICR1_EXTI1_Pos * (linepos & 0x03U)));
 246:Drivers/STM32H7xx_HAL_Driver/Src/stm32h7xx_hal_exti.c ****       SYSCFG->EXTICR[(linepos >> 2U) & 0x03UL] = regval;
 247:Drivers/STM32H7xx_HAL_Driver/Src/stm32h7xx_hal_exti.c ****     }
 248:Drivers/STM32H7xx_HAL_Driver/Src/stm32h7xx_hal_exti.c ****   }
 249:Drivers/STM32H7xx_HAL_Driver/Src/stm32h7xx_hal_exti.c **** 
 250:Drivers/STM32H7xx_HAL_Driver/Src/stm32h7xx_hal_exti.c ****   /* Configure interrupt mode : read current mode */
 251:Drivers/STM32H7xx_HAL_Driver/Src/stm32h7xx_hal_exti.c ****   regaddr = (__IO uint32_t *)(&EXTI->IMR1 + (EXTI_MODE_OFFSET * offset));
 109              		.loc 1 251 0
 110 0066 0101     		lsls	r1, r0, #4
 111 0068 314E     		ldr	r6, .L24+4
 112              	.LVL13:
 252:Drivers/STM32H7xx_HAL_Driver/Src/stm32h7xx_hal_exti.c ****   regval = *regaddr;
 113              		.loc 1 252 0
 114 006a 8C59     		ldr	r4, [r1, r6]
 115              	.LVL14:
 253:Drivers/STM32H7xx_HAL_Driver/Src/stm32h7xx_hal_exti.c **** 
 254:Drivers/STM32H7xx_HAL_Driver/Src/stm32h7xx_hal_exti.c ****   /* Mask or set line */
 255:Drivers/STM32H7xx_HAL_Driver/Src/stm32h7xx_hal_exti.c ****   if ((pExtiConfig->Mode & EXTI_MODE_INTERRUPT) != 0x00U)
 116              		.loc 1 255 0
 117 006c 5F68     		ldr	r7, [r3, #4]
 118 006e 17F0010F 		tst	r7, #1
 119 0072 2DD0     		beq	.L8
 256:Drivers/STM32H7xx_HAL_Driver/Src/stm32h7xx_hal_exti.c ****   {
 257:Drivers/STM32H7xx_HAL_Driver/Src/stm32h7xx_hal_exti.c ****     regval |= maskline;
 120              		.loc 1 257 0
 121 0074 1443     		orrs	r4, r4, r2
 122              	.LVL15:
 123              	.L9:
 258:Drivers/STM32H7xx_HAL_Driver/Src/stm32h7xx_hal_exti.c ****   }
 259:Drivers/STM32H7xx_HAL_Driver/Src/stm32h7xx_hal_exti.c ****   else
 260:Drivers/STM32H7xx_HAL_Driver/Src/stm32h7xx_hal_exti.c ****   {
 261:Drivers/STM32H7xx_HAL_Driver/Src/stm32h7xx_hal_exti.c ****     regval &= ~maskline;
 262:Drivers/STM32H7xx_HAL_Driver/Src/stm32h7xx_hal_exti.c ****   }
 263:Drivers/STM32H7xx_HAL_Driver/Src/stm32h7xx_hal_exti.c **** 
 264:Drivers/STM32H7xx_HAL_Driver/Src/stm32h7xx_hal_exti.c ****   /* Store interrupt mode */
 265:Drivers/STM32H7xx_HAL_Driver/Src/stm32h7xx_hal_exti.c ****   *regaddr = regval;
 124              		.loc 1 265 0
 125 0076 8C51     		str	r4, [r1, r6]
 266:Drivers/STM32H7xx_HAL_Driver/Src/stm32h7xx_hal_exti.c **** 
 267:Drivers/STM32H7xx_HAL_Driver/Src/stm32h7xx_hal_exti.c ****   /* The event mode cannot be configured if the line does not support it */
 268:Drivers/STM32H7xx_HAL_Driver/Src/stm32h7xx_hal_exti.c ****   assert_param(((pExtiConfig->Line & EXTI_EVENT) == EXTI_EVENT) || ((pExtiConfig->Mode & EXTI_MODE_
 269:Drivers/STM32H7xx_HAL_Driver/Src/stm32h7xx_hal_exti.c **** 
 270:Drivers/STM32H7xx_HAL_Driver/Src/stm32h7xx_hal_exti.c ****   /* Configure event mode : read current mode */
 271:Drivers/STM32H7xx_HAL_Driver/Src/stm32h7xx_hal_exti.c ****   regaddr = (__IO uint32_t *)(&EXTI->EMR1 + (EXTI_MODE_OFFSET * offset));
 126              		.loc 1 271 0
 127 0078 2E4E     		ldr	r6, .L24+8
 128              	.LVL16:
ARM GAS  /tmp/ccyHfJz5.s 			page 8


 272:Drivers/STM32H7xx_HAL_Driver/Src/stm32h7xx_hal_exti.c ****   regval = *regaddr;
 129              		.loc 1 272 0
 130 007a 8C59     		ldr	r4, [r1, r6]
 131              	.LVL17:
 273:Drivers/STM32H7xx_HAL_Driver/Src/stm32h7xx_hal_exti.c **** 
 274:Drivers/STM32H7xx_HAL_Driver/Src/stm32h7xx_hal_exti.c ****   /* Mask or set line */
 275:Drivers/STM32H7xx_HAL_Driver/Src/stm32h7xx_hal_exti.c ****   if ((pExtiConfig->Mode & EXTI_MODE_EVENT) != 0x00U)
 132              		.loc 1 275 0
 133 007c 5F68     		ldr	r7, [r3, #4]
 134 007e 17F0020F 		tst	r7, #2
 135 0082 28D0     		beq	.L10
 276:Drivers/STM32H7xx_HAL_Driver/Src/stm32h7xx_hal_exti.c ****   {
 277:Drivers/STM32H7xx_HAL_Driver/Src/stm32h7xx_hal_exti.c ****     regval |= maskline;
 136              		.loc 1 277 0
 137 0084 1443     		orrs	r4, r4, r2
 138              	.LVL18:
 139              	.L11:
 278:Drivers/STM32H7xx_HAL_Driver/Src/stm32h7xx_hal_exti.c ****   }
 279:Drivers/STM32H7xx_HAL_Driver/Src/stm32h7xx_hal_exti.c ****   else
 280:Drivers/STM32H7xx_HAL_Driver/Src/stm32h7xx_hal_exti.c ****   {
 281:Drivers/STM32H7xx_HAL_Driver/Src/stm32h7xx_hal_exti.c ****     regval &= ~maskline;
 282:Drivers/STM32H7xx_HAL_Driver/Src/stm32h7xx_hal_exti.c ****   }
 283:Drivers/STM32H7xx_HAL_Driver/Src/stm32h7xx_hal_exti.c **** 
 284:Drivers/STM32H7xx_HAL_Driver/Src/stm32h7xx_hal_exti.c ****   /* Store event mode */
 285:Drivers/STM32H7xx_HAL_Driver/Src/stm32h7xx_hal_exti.c ****   *regaddr = regval;
 140              		.loc 1 285 0
 141 0086 8C51     		str	r4, [r1, r6]
 286:Drivers/STM32H7xx_HAL_Driver/Src/stm32h7xx_hal_exti.c **** 
 287:Drivers/STM32H7xx_HAL_Driver/Src/stm32h7xx_hal_exti.c **** #if defined (DUAL_CORE)
 288:Drivers/STM32H7xx_HAL_Driver/Src/stm32h7xx_hal_exti.c ****   /* Configure interrupt mode for Core2 : read current mode */
 289:Drivers/STM32H7xx_HAL_Driver/Src/stm32h7xx_hal_exti.c ****   regaddr = (__IO uint32_t *)(&EXTI->C2IMR1 + (EXTI_MODE_OFFSET * offset));
 290:Drivers/STM32H7xx_HAL_Driver/Src/stm32h7xx_hal_exti.c ****   regval = *regaddr;
 291:Drivers/STM32H7xx_HAL_Driver/Src/stm32h7xx_hal_exti.c **** 
 292:Drivers/STM32H7xx_HAL_Driver/Src/stm32h7xx_hal_exti.c ****   /* Mask or set line */
 293:Drivers/STM32H7xx_HAL_Driver/Src/stm32h7xx_hal_exti.c ****   if ((pExtiConfig->Mode & EXTI_MODE_CORE2_INTERRUPT) != 0x00U)
 294:Drivers/STM32H7xx_HAL_Driver/Src/stm32h7xx_hal_exti.c ****   {
 295:Drivers/STM32H7xx_HAL_Driver/Src/stm32h7xx_hal_exti.c ****     regval |= maskline;
 296:Drivers/STM32H7xx_HAL_Driver/Src/stm32h7xx_hal_exti.c ****   }
 297:Drivers/STM32H7xx_HAL_Driver/Src/stm32h7xx_hal_exti.c ****   else
 298:Drivers/STM32H7xx_HAL_Driver/Src/stm32h7xx_hal_exti.c ****   {
 299:Drivers/STM32H7xx_HAL_Driver/Src/stm32h7xx_hal_exti.c ****     regval &= ~maskline;
 300:Drivers/STM32H7xx_HAL_Driver/Src/stm32h7xx_hal_exti.c ****   }
 301:Drivers/STM32H7xx_HAL_Driver/Src/stm32h7xx_hal_exti.c **** 
 302:Drivers/STM32H7xx_HAL_Driver/Src/stm32h7xx_hal_exti.c ****   /* Store interrupt mode */
 303:Drivers/STM32H7xx_HAL_Driver/Src/stm32h7xx_hal_exti.c ****   *regaddr = regval;
 304:Drivers/STM32H7xx_HAL_Driver/Src/stm32h7xx_hal_exti.c **** 
 305:Drivers/STM32H7xx_HAL_Driver/Src/stm32h7xx_hal_exti.c ****   /* The event mode cannot be configured if the line does not support it */
 306:Drivers/STM32H7xx_HAL_Driver/Src/stm32h7xx_hal_exti.c ****   assert_param(((pExtiConfig->Line & EXTI_EVENT) == EXTI_EVENT) || ((pExtiConfig->Mode & EXTI_MODE_
 307:Drivers/STM32H7xx_HAL_Driver/Src/stm32h7xx_hal_exti.c **** 
 308:Drivers/STM32H7xx_HAL_Driver/Src/stm32h7xx_hal_exti.c ****   /* Configure event mode : read current mode */
 309:Drivers/STM32H7xx_HAL_Driver/Src/stm32h7xx_hal_exti.c ****   regaddr = (__IO uint32_t *)(&EXTI->C2EMR1 + (EXTI_MODE_OFFSET * offset));
 310:Drivers/STM32H7xx_HAL_Driver/Src/stm32h7xx_hal_exti.c ****   regval = *regaddr;
 311:Drivers/STM32H7xx_HAL_Driver/Src/stm32h7xx_hal_exti.c **** 
 312:Drivers/STM32H7xx_HAL_Driver/Src/stm32h7xx_hal_exti.c ****   /* Mask or set line */
 313:Drivers/STM32H7xx_HAL_Driver/Src/stm32h7xx_hal_exti.c ****   if ((pExtiConfig->Mode & EXTI_MODE_CORE2_EVENT) != 0x00U)
 314:Drivers/STM32H7xx_HAL_Driver/Src/stm32h7xx_hal_exti.c ****   {
 315:Drivers/STM32H7xx_HAL_Driver/Src/stm32h7xx_hal_exti.c ****     regval |= maskline;
ARM GAS  /tmp/ccyHfJz5.s 			page 9


 316:Drivers/STM32H7xx_HAL_Driver/Src/stm32h7xx_hal_exti.c ****   }
 317:Drivers/STM32H7xx_HAL_Driver/Src/stm32h7xx_hal_exti.c ****   else
 318:Drivers/STM32H7xx_HAL_Driver/Src/stm32h7xx_hal_exti.c ****   {
 319:Drivers/STM32H7xx_HAL_Driver/Src/stm32h7xx_hal_exti.c ****     regval &= ~maskline;
 320:Drivers/STM32H7xx_HAL_Driver/Src/stm32h7xx_hal_exti.c ****   }
 321:Drivers/STM32H7xx_HAL_Driver/Src/stm32h7xx_hal_exti.c **** 
 322:Drivers/STM32H7xx_HAL_Driver/Src/stm32h7xx_hal_exti.c ****   /* Store event mode */
 323:Drivers/STM32H7xx_HAL_Driver/Src/stm32h7xx_hal_exti.c ****   *regaddr = regval;
 324:Drivers/STM32H7xx_HAL_Driver/Src/stm32h7xx_hal_exti.c **** #endif /* DUAL_CORE */
 325:Drivers/STM32H7xx_HAL_Driver/Src/stm32h7xx_hal_exti.c **** 
 326:Drivers/STM32H7xx_HAL_Driver/Src/stm32h7xx_hal_exti.c ****   /* Configure the D3 PendClear source in case of Wakeup target is Any */
 327:Drivers/STM32H7xx_HAL_Driver/Src/stm32h7xx_hal_exti.c ****   if ((pExtiConfig->Line & EXTI_TARGET_MASK) == EXTI_TARGET_MSK_ALL)
 142              		.loc 1 327 0
 143 0088 1968     		ldr	r1, [r3]
 144              	.LVL19:
 145 008a 01F44011 		and	r1, r1, #3145728
 146 008e B1F5401F 		cmp	r1, #3145728
 147 0092 23D0     		beq	.L22
 328:Drivers/STM32H7xx_HAL_Driver/Src/stm32h7xx_hal_exti.c ****   {
 329:Drivers/STM32H7xx_HAL_Driver/Src/stm32h7xx_hal_exti.c ****     assert_param(IS_EXTI_D3_PENDCLR_SRC(pExtiConfig->PendClearSource));
 330:Drivers/STM32H7xx_HAL_Driver/Src/stm32h7xx_hal_exti.c **** 
 331:Drivers/STM32H7xx_HAL_Driver/Src/stm32h7xx_hal_exti.c ****     /*Calc the PMR register address for the given line */
 332:Drivers/STM32H7xx_HAL_Driver/Src/stm32h7xx_hal_exti.c ****     regaddr = (__IO uint32_t *)(&EXTI->D3PMR1 + (EXTI_CONFIG_OFFSET * offset));
 333:Drivers/STM32H7xx_HAL_Driver/Src/stm32h7xx_hal_exti.c ****     regval = *regaddr;
 334:Drivers/STM32H7xx_HAL_Driver/Src/stm32h7xx_hal_exti.c **** 
 335:Drivers/STM32H7xx_HAL_Driver/Src/stm32h7xx_hal_exti.c ****     if(pExtiConfig->PendClearSource == EXTI_D3_PENDCLR_SRC_NONE)
 336:Drivers/STM32H7xx_HAL_Driver/Src/stm32h7xx_hal_exti.c ****     {
 337:Drivers/STM32H7xx_HAL_Driver/Src/stm32h7xx_hal_exti.c ****       /* Clear D3PMRx register for the given line */
 338:Drivers/STM32H7xx_HAL_Driver/Src/stm32h7xx_hal_exti.c ****       regval &= ~maskline;
 339:Drivers/STM32H7xx_HAL_Driver/Src/stm32h7xx_hal_exti.c ****       /* Store D3PMRx register value */
 340:Drivers/STM32H7xx_HAL_Driver/Src/stm32h7xx_hal_exti.c ****       *regaddr = regval;
 341:Drivers/STM32H7xx_HAL_Driver/Src/stm32h7xx_hal_exti.c ****     }
 342:Drivers/STM32H7xx_HAL_Driver/Src/stm32h7xx_hal_exti.c ****     else
 343:Drivers/STM32H7xx_HAL_Driver/Src/stm32h7xx_hal_exti.c ****     {
 344:Drivers/STM32H7xx_HAL_Driver/Src/stm32h7xx_hal_exti.c ****       /* Set D3PMRx register to 1 for the given line */
 345:Drivers/STM32H7xx_HAL_Driver/Src/stm32h7xx_hal_exti.c ****       regval |= maskline;
 346:Drivers/STM32H7xx_HAL_Driver/Src/stm32h7xx_hal_exti.c ****       /* Store D3PMRx register value */
 347:Drivers/STM32H7xx_HAL_Driver/Src/stm32h7xx_hal_exti.c ****       *regaddr = regval;
 348:Drivers/STM32H7xx_HAL_Driver/Src/stm32h7xx_hal_exti.c **** 
 349:Drivers/STM32H7xx_HAL_Driver/Src/stm32h7xx_hal_exti.c ****       if(linepos < 16UL)
 350:Drivers/STM32H7xx_HAL_Driver/Src/stm32h7xx_hal_exti.c ****       {
 351:Drivers/STM32H7xx_HAL_Driver/Src/stm32h7xx_hal_exti.c ****         regaddr = (__IO uint32_t *)(&EXTI->D3PCR1L + (EXTI_CONFIG_OFFSET * offset));
 352:Drivers/STM32H7xx_HAL_Driver/Src/stm32h7xx_hal_exti.c ****         pcrlinepos = 1UL << linepos;
 353:Drivers/STM32H7xx_HAL_Driver/Src/stm32h7xx_hal_exti.c ****       }
 354:Drivers/STM32H7xx_HAL_Driver/Src/stm32h7xx_hal_exti.c ****       else
 355:Drivers/STM32H7xx_HAL_Driver/Src/stm32h7xx_hal_exti.c ****       {
 356:Drivers/STM32H7xx_HAL_Driver/Src/stm32h7xx_hal_exti.c ****         regaddr = (__IO uint32_t *)(&EXTI->D3PCR1H + (EXTI_CONFIG_OFFSET * offset));
 357:Drivers/STM32H7xx_HAL_Driver/Src/stm32h7xx_hal_exti.c ****         pcrlinepos = 1UL << (linepos - 16UL);
 358:Drivers/STM32H7xx_HAL_Driver/Src/stm32h7xx_hal_exti.c ****       }
 359:Drivers/STM32H7xx_HAL_Driver/Src/stm32h7xx_hal_exti.c **** 
 360:Drivers/STM32H7xx_HAL_Driver/Src/stm32h7xx_hal_exti.c ****       regval = (*regaddr & (~(pcrlinepos * pcrlinepos * 3UL))) | (pcrlinepos * pcrlinepos * (pExtiC
 361:Drivers/STM32H7xx_HAL_Driver/Src/stm32h7xx_hal_exti.c ****       *regaddr = regval;
 362:Drivers/STM32H7xx_HAL_Driver/Src/stm32h7xx_hal_exti.c ****     }
 363:Drivers/STM32H7xx_HAL_Driver/Src/stm32h7xx_hal_exti.c ****   }
 364:Drivers/STM32H7xx_HAL_Driver/Src/stm32h7xx_hal_exti.c **** 
 365:Drivers/STM32H7xx_HAL_Driver/Src/stm32h7xx_hal_exti.c ****   return HAL_OK;
 148              		.loc 1 365 0
ARM GAS  /tmp/ccyHfJz5.s 			page 10


 149 0094 0020     		movs	r0, #0
 150              	.LVL20:
 151              	.L2:
 366:Drivers/STM32H7xx_HAL_Driver/Src/stm32h7xx_hal_exti.c **** }
 152              		.loc 1 366 0
 153 0096 F0BC     		pop	{r4, r5, r6, r7}
 154              	.LCFI1:
 155              		.cfi_remember_state
 156              		.cfi_restore 7
 157              		.cfi_restore 6
 158              		.cfi_restore 5
 159              		.cfi_restore 4
 160              		.cfi_def_cfa_offset 0
 161 0098 7047     		bx	lr
 162              	.LVL21:
 163              	.L4:
 164              	.LCFI2:
 165              		.cfi_restore_state
 214:Drivers/STM32H7xx_HAL_Driver/Src/stm32h7xx_hal_exti.c ****     }
 166              		.loc 1 214 0
 167 009a 26EA0206 		bic	r6, r6, r2
 168              	.LVL22:
 169 009e D0E7     		b	.L5
 170              	.LVL23:
 171              	.L6:
 231:Drivers/STM32H7xx_HAL_Driver/Src/stm32h7xx_hal_exti.c ****     }
 172              		.loc 1 231 0
 173 00a0 2CEA0206 		bic	r6, ip, r2
 174              	.LVL24:
 175 00a4 D8E7     		b	.L7
 176              	.LVL25:
 177              	.L21:
 243:Drivers/STM32H7xx_HAL_Driver/Src/stm32h7xx_hal_exti.c ****       regval &= ~(SYSCFG_EXTICR1_EXTI0 << (SYSCFG_EXTICR1_EXTI1_Pos * (linepos & 0x03U)));
 178              		.loc 1 243 0
 179 00a6 C5F38104 		ubfx	r4, r5, #2, #2
 180 00aa DFF898C0 		ldr	ip, .L24+24
 181 00ae 0234     		adds	r4, r4, #2
 182 00b0 5CF82470 		ldr	r7, [ip, r4, lsl #2]
 183              	.LVL26:
 244:Drivers/STM32H7xx_HAL_Driver/Src/stm32h7xx_hal_exti.c ****       regval |= (pExtiConfig->GPIOSel << (SYSCFG_EXTICR1_EXTI1_Pos * (linepos & 0x03U)));
 184              		.loc 1 244 0
 185 00b4 01F00301 		and	r1, r1, #3
 186 00b8 8900     		lsls	r1, r1, #2
 187 00ba 0F26     		movs	r6, #15
 188 00bc 8E40     		lsls	r6, r6, r1
 189 00be 27EA0607 		bic	r7, r7, r6
 190              	.LVL27:
 245:Drivers/STM32H7xx_HAL_Driver/Src/stm32h7xx_hal_exti.c ****       SYSCFG->EXTICR[(linepos >> 2U) & 0x03UL] = regval;
 191              		.loc 1 245 0
 192 00c2 DE68     		ldr	r6, [r3, #12]
 193 00c4 06FA01F1 		lsl	r1, r6, r1
 194 00c8 3943     		orrs	r1, r1, r7
 195              	.LVL28:
 246:Drivers/STM32H7xx_HAL_Driver/Src/stm32h7xx_hal_exti.c ****     }
 196              		.loc 1 246 0
 197 00ca 4CF82410 		str	r1, [ip, r4, lsl #2]
 198 00ce CAE7     		b	.L3
ARM GAS  /tmp/ccyHfJz5.s 			page 11


 199              	.LVL29:
 200              	.L8:
 261:Drivers/STM32H7xx_HAL_Driver/Src/stm32h7xx_hal_exti.c ****   }
 201              		.loc 1 261 0
 202 00d0 24EA0204 		bic	r4, r4, r2
 203              	.LVL30:
 204 00d4 CFE7     		b	.L9
 205              	.L10:
 281:Drivers/STM32H7xx_HAL_Driver/Src/stm32h7xx_hal_exti.c ****   }
 206              		.loc 1 281 0
 207 00d6 24EA0204 		bic	r4, r4, r2
 208              	.LVL31:
 209 00da D4E7     		b	.L11
 210              	.LVL32:
 211              	.L22:
 332:Drivers/STM32H7xx_HAL_Driver/Src/stm32h7xx_hal_exti.c ****     regval = *regaddr;
 212              		.loc 1 332 0
 213 00dc 4001     		lsls	r0, r0, #5
 214              	.LVL33:
 215 00de 164C     		ldr	r4, .L24+12
 216              	.LVL34:
 333:Drivers/STM32H7xx_HAL_Driver/Src/stm32h7xx_hal_exti.c **** 
 217              		.loc 1 333 0
 218 00e0 0159     		ldr	r1, [r0, r4]
 219              	.LVL35:
 335:Drivers/STM32H7xx_HAL_Driver/Src/stm32h7xx_hal_exti.c ****     {
 220              		.loc 1 335 0
 221 00e2 1E69     		ldr	r6, [r3, #16]
 222 00e4 A6B1     		cbz	r6, .L23
 345:Drivers/STM32H7xx_HAL_Driver/Src/stm32h7xx_hal_exti.c ****       /* Store D3PMRx register value */
 223              		.loc 1 345 0
 224 00e6 1143     		orrs	r1, r1, r2
 225              	.LVL36:
 347:Drivers/STM32H7xx_HAL_Driver/Src/stm32h7xx_hal_exti.c **** 
 226              		.loc 1 347 0
 227 00e8 0151     		str	r1, [r0, r4]
 349:Drivers/STM32H7xx_HAL_Driver/Src/stm32h7xx_hal_exti.c ****       {
 228              		.loc 1 349 0
 229 00ea 0F2D     		cmp	r5, #15
 230 00ec 15D8     		bhi	.L13
 351:Drivers/STM32H7xx_HAL_Driver/Src/stm32h7xx_hal_exti.c ****         pcrlinepos = 1UL << linepos;
 231              		.loc 1 351 0
 232 00ee 134C     		ldr	r4, .L24+16
 233              	.LVL37:
 234 00f0 0444     		add	r4, r4, r0
 235              	.LVL38:
 236              	.L14:
 360:Drivers/STM32H7xx_HAL_Driver/Src/stm32h7xx_hal_exti.c ****       *regaddr = regval;
 237              		.loc 1 360 0
 238 00f2 2168     		ldr	r1, [r4]
 239              	.LVL39:
 240 00f4 02FB02F2 		mul	r2, r2, r2
 241              	.LVL40:
 242 00f8 02EB4200 		add	r0, r2, r2, lsl #1
 243              	.LVL41:
 244 00fc 21EA0001 		bic	r1, r1, r0
 245 0100 1B69     		ldr	r3, [r3, #16]
ARM GAS  /tmp/ccyHfJz5.s 			page 12


 246              	.LVL42:
 247 0102 013B     		subs	r3, r3, #1
 248 0104 03FB02F2 		mul	r2, r3, r2
 249 0108 0A43     		orrs	r2, r2, r1
 250              	.LVL43:
 361:Drivers/STM32H7xx_HAL_Driver/Src/stm32h7xx_hal_exti.c ****     }
 251              		.loc 1 361 0
 252 010a 2260     		str	r2, [r4]
 365:Drivers/STM32H7xx_HAL_Driver/Src/stm32h7xx_hal_exti.c **** }
 253              		.loc 1 365 0
 254 010c 0020     		movs	r0, #0
 255 010e C2E7     		b	.L2
 256              	.LVL44:
 257              	.L23:
 338:Drivers/STM32H7xx_HAL_Driver/Src/stm32h7xx_hal_exti.c ****       /* Store D3PMRx register value */
 258              		.loc 1 338 0
 259 0110 21EA0202 		bic	r2, r1, r2
 260              	.LVL45:
 340:Drivers/STM32H7xx_HAL_Driver/Src/stm32h7xx_hal_exti.c ****     }
 261              		.loc 1 340 0
 262 0114 0251     		str	r2, [r0, r4]
 365:Drivers/STM32H7xx_HAL_Driver/Src/stm32h7xx_hal_exti.c **** }
 263              		.loc 1 365 0
 264 0116 0020     		movs	r0, #0
 265              	.LVL46:
 266 0118 BDE7     		b	.L2
 267              	.LVL47:
 268              	.L13:
 356:Drivers/STM32H7xx_HAL_Driver/Src/stm32h7xx_hal_exti.c ****         pcrlinepos = 1UL << (linepos - 16UL);
 269              		.loc 1 356 0
 270 011a 094C     		ldr	r4, .L24+20
 271              	.LVL48:
 272 011c 0444     		add	r4, r4, r0
 273              	.LVL49:
 357:Drivers/STM32H7xx_HAL_Driver/Src/stm32h7xx_hal_exti.c ****       }
 274              		.loc 1 357 0
 275 011e 103D     		subs	r5, r5, #16
 276              	.LVL50:
 277 0120 0122     		movs	r2, #1
 278              	.LVL51:
 279 0122 AA40     		lsls	r2, r2, r5
 280              	.LVL52:
 281 0124 E5E7     		b	.L14
 282              	.LVL53:
 283              	.L15:
 284              	.LCFI3:
 285              		.cfi_def_cfa_offset 0
 286              		.cfi_restore 4
 287              		.cfi_restore 5
 288              		.cfi_restore 6
 289              		.cfi_restore 7
 183:Drivers/STM32H7xx_HAL_Driver/Src/stm32h7xx_hal_exti.c ****   }
 290              		.loc 1 183 0
 291 0126 0120     		movs	r0, #1
 292              	.LVL54:
 293              		.loc 1 366 0
 294 0128 7047     		bx	lr
ARM GAS  /tmp/ccyHfJz5.s 			page 13


 295              	.L25:
 296 012a 00BF     		.align	2
 297              	.L24:
 298 012c 04000058 		.word	1476395012
 299 0130 80000058 		.word	1476395136
 300 0134 84000058 		.word	1476395140
 301 0138 0C000058 		.word	1476395020
 302 013c 10000058 		.word	1476395024
 303 0140 14000058 		.word	1476395028
 304 0144 00040058 		.word	1476396032
 305              		.cfi_endproc
 306              	.LFE343:
 308              		.section	.text.HAL_EXTI_GetConfigLine,"ax",%progbits
 309              		.align	1
 310              		.global	HAL_EXTI_GetConfigLine
 311              		.syntax unified
 312              		.thumb
 313              		.thumb_func
 314              		.fpu fpv5-d16
 316              	HAL_EXTI_GetConfigLine:
 317              	.LFB344:
 367:Drivers/STM32H7xx_HAL_Driver/Src/stm32h7xx_hal_exti.c **** 
 368:Drivers/STM32H7xx_HAL_Driver/Src/stm32h7xx_hal_exti.c **** 
 369:Drivers/STM32H7xx_HAL_Driver/Src/stm32h7xx_hal_exti.c **** /**
 370:Drivers/STM32H7xx_HAL_Driver/Src/stm32h7xx_hal_exti.c ****   * @brief  Get configuration of a dedicated Exti line.
 371:Drivers/STM32H7xx_HAL_Driver/Src/stm32h7xx_hal_exti.c ****   * @param  hexti Exti handle.
 372:Drivers/STM32H7xx_HAL_Driver/Src/stm32h7xx_hal_exti.c ****   * @param  pExtiConfig Pointer on structure to store Exti configuration.
 373:Drivers/STM32H7xx_HAL_Driver/Src/stm32h7xx_hal_exti.c ****   * @retval HAL Status.
 374:Drivers/STM32H7xx_HAL_Driver/Src/stm32h7xx_hal_exti.c ****   */
 375:Drivers/STM32H7xx_HAL_Driver/Src/stm32h7xx_hal_exti.c **** HAL_StatusTypeDef HAL_EXTI_GetConfigLine(EXTI_HandleTypeDef *hexti, EXTI_ConfigTypeDef *pExtiConfig
 376:Drivers/STM32H7xx_HAL_Driver/Src/stm32h7xx_hal_exti.c **** {
 318              		.loc 1 376 0
 319              		.cfi_startproc
 320              		@ args = 0, pretend = 0, frame = 0
 321              		@ frame_needed = 0, uses_anonymous_args = 0
 322              		@ link register save eliminated.
 323              	.LVL55:
 377:Drivers/STM32H7xx_HAL_Driver/Src/stm32h7xx_hal_exti.c ****   __IO uint32_t *regaddr;
 378:Drivers/STM32H7xx_HAL_Driver/Src/stm32h7xx_hal_exti.c ****   uint32_t regval;
 379:Drivers/STM32H7xx_HAL_Driver/Src/stm32h7xx_hal_exti.c ****   uint32_t linepos;
 380:Drivers/STM32H7xx_HAL_Driver/Src/stm32h7xx_hal_exti.c ****   uint32_t maskline;
 381:Drivers/STM32H7xx_HAL_Driver/Src/stm32h7xx_hal_exti.c ****   uint32_t offset;
 382:Drivers/STM32H7xx_HAL_Driver/Src/stm32h7xx_hal_exti.c ****   uint32_t pcrlinepos;
 383:Drivers/STM32H7xx_HAL_Driver/Src/stm32h7xx_hal_exti.c **** 
 384:Drivers/STM32H7xx_HAL_Driver/Src/stm32h7xx_hal_exti.c ****   /* Check null pointer */
 385:Drivers/STM32H7xx_HAL_Driver/Src/stm32h7xx_hal_exti.c ****   if ((hexti == NULL) || (pExtiConfig == NULL))
 324              		.loc 1 385 0
 325 0000 0B46     		mov	r3, r1
 326 0002 B1FA81F1 		clz	r1, r1
 327              	.LVL56:
 328 0006 4909     		lsrs	r1, r1, #5
 329 0008 0028     		cmp	r0, #0
 330 000a 08BF     		it	eq
 331 000c 0121     		moveq	r1, #1
 332 000e 0029     		cmp	r1, #0
 333 0010 70D1     		bne	.L40
 376:Drivers/STM32H7xx_HAL_Driver/Src/stm32h7xx_hal_exti.c ****   __IO uint32_t *regaddr;
ARM GAS  /tmp/ccyHfJz5.s 			page 14


 334              		.loc 1 376 0
 335 0012 F0B4     		push	{r4, r5, r6, r7}
 336              	.LCFI4:
 337              		.cfi_def_cfa_offset 16
 338              		.cfi_offset 4, -16
 339              		.cfi_offset 5, -12
 340              		.cfi_offset 6, -8
 341              		.cfi_offset 7, -4
 386:Drivers/STM32H7xx_HAL_Driver/Src/stm32h7xx_hal_exti.c ****   {
 387:Drivers/STM32H7xx_HAL_Driver/Src/stm32h7xx_hal_exti.c ****     return HAL_ERROR;
 388:Drivers/STM32H7xx_HAL_Driver/Src/stm32h7xx_hal_exti.c ****   }
 389:Drivers/STM32H7xx_HAL_Driver/Src/stm32h7xx_hal_exti.c **** 
 390:Drivers/STM32H7xx_HAL_Driver/Src/stm32h7xx_hal_exti.c ****   /* Check the parameter */
 391:Drivers/STM32H7xx_HAL_Driver/Src/stm32h7xx_hal_exti.c ****   assert_param(IS_EXTI_LINE(hexti->Line));
 392:Drivers/STM32H7xx_HAL_Driver/Src/stm32h7xx_hal_exti.c **** 
 393:Drivers/STM32H7xx_HAL_Driver/Src/stm32h7xx_hal_exti.c ****   /* Store handle line number to configuration structure */
 394:Drivers/STM32H7xx_HAL_Driver/Src/stm32h7xx_hal_exti.c ****   pExtiConfig->Line = hexti->Line;
 342              		.loc 1 394 0
 343 0014 0168     		ldr	r1, [r0]
 344 0016 1960     		str	r1, [r3]
 395:Drivers/STM32H7xx_HAL_Driver/Src/stm32h7xx_hal_exti.c **** 
 396:Drivers/STM32H7xx_HAL_Driver/Src/stm32h7xx_hal_exti.c ****   /* compute line register offset and line mask */
 397:Drivers/STM32H7xx_HAL_Driver/Src/stm32h7xx_hal_exti.c ****   offset = ((pExtiConfig->Line & EXTI_REG_MASK) >> EXTI_REG_SHIFT);
 345              		.loc 1 397 0
 346 0018 C1F30140 		ubfx	r0, r1, #16, #2
 347              	.LVL57:
 398:Drivers/STM32H7xx_HAL_Driver/Src/stm32h7xx_hal_exti.c ****   linepos = (pExtiConfig->Line & EXTI_PIN_MASK);
 348              		.loc 1 398 0
 349 001c 01F01F04 		and	r4, r1, #31
 350              	.LVL58:
 399:Drivers/STM32H7xx_HAL_Driver/Src/stm32h7xx_hal_exti.c ****   maskline = (1UL << linepos);
 351              		.loc 1 399 0
 352 0020 0122     		movs	r2, #1
 353 0022 A240     		lsls	r2, r2, r4
 354              	.LVL59:
 400:Drivers/STM32H7xx_HAL_Driver/Src/stm32h7xx_hal_exti.c **** 
 401:Drivers/STM32H7xx_HAL_Driver/Src/stm32h7xx_hal_exti.c ****   /* 1] Get core mode : interrupt */
 402:Drivers/STM32H7xx_HAL_Driver/Src/stm32h7xx_hal_exti.c ****   regaddr = (__IO uint32_t *)(&EXTI->IMR1 + (EXTI_MODE_OFFSET * offset));
 355              		.loc 1 402 0
 356 0024 0501     		lsls	r5, r0, #4
 357 0026 344E     		ldr	r6, .L48
 358              	.LVL60:
 403:Drivers/STM32H7xx_HAL_Driver/Src/stm32h7xx_hal_exti.c ****   regval = *regaddr;
 359              		.loc 1 403 0
 360 0028 AE59     		ldr	r6, [r5, r6]
 361              	.LVL61:
 404:Drivers/STM32H7xx_HAL_Driver/Src/stm32h7xx_hal_exti.c **** 
 405:Drivers/STM32H7xx_HAL_Driver/Src/stm32h7xx_hal_exti.c ****   pExtiConfig->Mode = EXTI_MODE_NONE;
 362              		.loc 1 405 0
 363 002a 0027     		movs	r7, #0
 364 002c 5F60     		str	r7, [r3, #4]
 406:Drivers/STM32H7xx_HAL_Driver/Src/stm32h7xx_hal_exti.c **** 
 407:Drivers/STM32H7xx_HAL_Driver/Src/stm32h7xx_hal_exti.c ****   /* Check if selected line is enable */
 408:Drivers/STM32H7xx_HAL_Driver/Src/stm32h7xx_hal_exti.c ****   if ((regval & maskline) != 0x00U)
 365              		.loc 1 408 0
 366 002e 3242     		tst	r2, r6
 367 0030 01D0     		beq	.L28
ARM GAS  /tmp/ccyHfJz5.s 			page 15


 409:Drivers/STM32H7xx_HAL_Driver/Src/stm32h7xx_hal_exti.c ****   {
 410:Drivers/STM32H7xx_HAL_Driver/Src/stm32h7xx_hal_exti.c ****     pExtiConfig->Mode = EXTI_MODE_INTERRUPT;
 368              		.loc 1 410 0
 369 0032 0126     		movs	r6, #1
 370              	.LVL62:
 371 0034 5E60     		str	r6, [r3, #4]
 372              	.L28:
 411:Drivers/STM32H7xx_HAL_Driver/Src/stm32h7xx_hal_exti.c ****   }
 412:Drivers/STM32H7xx_HAL_Driver/Src/stm32h7xx_hal_exti.c **** 
 413:Drivers/STM32H7xx_HAL_Driver/Src/stm32h7xx_hal_exti.c ****   /* Get event mode */
 414:Drivers/STM32H7xx_HAL_Driver/Src/stm32h7xx_hal_exti.c ****   regaddr = (__IO uint32_t *)(&EXTI->EMR1 + (EXTI_MODE_OFFSET * offset));
 373              		.loc 1 414 0
 374 0036 314E     		ldr	r6, .L48+4
 375              	.LVL63:
 415:Drivers/STM32H7xx_HAL_Driver/Src/stm32h7xx_hal_exti.c ****   regval = *regaddr;
 376              		.loc 1 415 0
 377 0038 AD59     		ldr	r5, [r5, r6]
 378              	.LVL64:
 416:Drivers/STM32H7xx_HAL_Driver/Src/stm32h7xx_hal_exti.c **** 
 417:Drivers/STM32H7xx_HAL_Driver/Src/stm32h7xx_hal_exti.c ****   /* Check if selected line is enable */
 418:Drivers/STM32H7xx_HAL_Driver/Src/stm32h7xx_hal_exti.c ****   if ((regval & maskline) != 0x00U)
 379              		.loc 1 418 0
 380 003a 2A42     		tst	r2, r5
 381 003c 03D0     		beq	.L29
 419:Drivers/STM32H7xx_HAL_Driver/Src/stm32h7xx_hal_exti.c ****   {
 420:Drivers/STM32H7xx_HAL_Driver/Src/stm32h7xx_hal_exti.c ****     pExtiConfig->Mode |= EXTI_MODE_EVENT;
 382              		.loc 1 420 0
 383 003e 5D68     		ldr	r5, [r3, #4]
 384              	.LVL65:
 385 0040 45F00205 		orr	r5, r5, #2
 386 0044 5D60     		str	r5, [r3, #4]
 387              	.L29:
 421:Drivers/STM32H7xx_HAL_Driver/Src/stm32h7xx_hal_exti.c ****   }
 422:Drivers/STM32H7xx_HAL_Driver/Src/stm32h7xx_hal_exti.c **** #if defined (DUAL_CORE)
 423:Drivers/STM32H7xx_HAL_Driver/Src/stm32h7xx_hal_exti.c ****   regaddr = (__IO uint32_t *)(&EXTI->C2IMR1 + (EXTI_MODE_OFFSET * offset));
 424:Drivers/STM32H7xx_HAL_Driver/Src/stm32h7xx_hal_exti.c ****   regval = *regaddr;
 425:Drivers/STM32H7xx_HAL_Driver/Src/stm32h7xx_hal_exti.c **** 
 426:Drivers/STM32H7xx_HAL_Driver/Src/stm32h7xx_hal_exti.c ****   /* Check if selected line is enable */
 427:Drivers/STM32H7xx_HAL_Driver/Src/stm32h7xx_hal_exti.c ****   if ((regval & maskline) != 0x00U)
 428:Drivers/STM32H7xx_HAL_Driver/Src/stm32h7xx_hal_exti.c ****   {
 429:Drivers/STM32H7xx_HAL_Driver/Src/stm32h7xx_hal_exti.c ****     pExtiConfig->Mode = EXTI_MODE_CORE2_INTERRUPT;
 430:Drivers/STM32H7xx_HAL_Driver/Src/stm32h7xx_hal_exti.c ****   }
 431:Drivers/STM32H7xx_HAL_Driver/Src/stm32h7xx_hal_exti.c **** 
 432:Drivers/STM32H7xx_HAL_Driver/Src/stm32h7xx_hal_exti.c ****   /* Get event mode */
 433:Drivers/STM32H7xx_HAL_Driver/Src/stm32h7xx_hal_exti.c ****   regaddr = (__IO uint32_t *)(&EXTI->C2EMR1 + (EXTI_MODE_OFFSET * offset));
 434:Drivers/STM32H7xx_HAL_Driver/Src/stm32h7xx_hal_exti.c ****   regval = *regaddr;
 435:Drivers/STM32H7xx_HAL_Driver/Src/stm32h7xx_hal_exti.c **** 
 436:Drivers/STM32H7xx_HAL_Driver/Src/stm32h7xx_hal_exti.c ****   /* Check if selected line is enable */
 437:Drivers/STM32H7xx_HAL_Driver/Src/stm32h7xx_hal_exti.c ****   if ((regval & maskline) != 0x00U)
 438:Drivers/STM32H7xx_HAL_Driver/Src/stm32h7xx_hal_exti.c ****   {
 439:Drivers/STM32H7xx_HAL_Driver/Src/stm32h7xx_hal_exti.c ****     pExtiConfig->Mode |= EXTI_MODE_CORE2_EVENT;
 440:Drivers/STM32H7xx_HAL_Driver/Src/stm32h7xx_hal_exti.c ****   }
 441:Drivers/STM32H7xx_HAL_Driver/Src/stm32h7xx_hal_exti.c **** #endif /*DUAL_CORE*/
 442:Drivers/STM32H7xx_HAL_Driver/Src/stm32h7xx_hal_exti.c **** 
 443:Drivers/STM32H7xx_HAL_Driver/Src/stm32h7xx_hal_exti.c ****   /* 2] Get trigger for configurable lines : rising */
 444:Drivers/STM32H7xx_HAL_Driver/Src/stm32h7xx_hal_exti.c ****   if ((pExtiConfig->Line & EXTI_CONFIG) != 0x00U)
 388              		.loc 1 444 0
ARM GAS  /tmp/ccyHfJz5.s 			page 16


 389 0046 11F0007F 		tst	r1, #33554432
 390 004a 28D0     		beq	.L30
 445:Drivers/STM32H7xx_HAL_Driver/Src/stm32h7xx_hal_exti.c ****   {
 446:Drivers/STM32H7xx_HAL_Driver/Src/stm32h7xx_hal_exti.c ****     regaddr = (__IO uint32_t *)(&EXTI->RTSR1 + (EXTI_CONFIG_OFFSET * offset));
 391              		.loc 1 446 0
 392 004c 4501     		lsls	r5, r0, #5
 393 004e 05F1B046 		add	r6, r5, #1476395008
 394              	.LVL66:
 447:Drivers/STM32H7xx_HAL_Driver/Src/stm32h7xx_hal_exti.c ****     regval = *regaddr;
 395              		.loc 1 447 0
 396 0052 3668     		ldr	r6, [r6]
 397              	.LVL67:
 448:Drivers/STM32H7xx_HAL_Driver/Src/stm32h7xx_hal_exti.c **** 
 449:Drivers/STM32H7xx_HAL_Driver/Src/stm32h7xx_hal_exti.c ****     /* Check if configuration of selected line is enable */
 450:Drivers/STM32H7xx_HAL_Driver/Src/stm32h7xx_hal_exti.c ****     if ((regval & maskline) != 0x00U)
 398              		.loc 1 450 0
 399 0054 3242     		tst	r2, r6
 400 0056 11D0     		beq	.L31
 451:Drivers/STM32H7xx_HAL_Driver/Src/stm32h7xx_hal_exti.c ****     {
 452:Drivers/STM32H7xx_HAL_Driver/Src/stm32h7xx_hal_exti.c ****       pExtiConfig->Trigger = EXTI_TRIGGER_RISING;
 401              		.loc 1 452 0
 402 0058 0126     		movs	r6, #1
 403              	.LVL68:
 404 005a 9E60     		str	r6, [r3, #8]
 405              	.L32:
 453:Drivers/STM32H7xx_HAL_Driver/Src/stm32h7xx_hal_exti.c ****     }
 454:Drivers/STM32H7xx_HAL_Driver/Src/stm32h7xx_hal_exti.c ****     else
 455:Drivers/STM32H7xx_HAL_Driver/Src/stm32h7xx_hal_exti.c ****     {
 456:Drivers/STM32H7xx_HAL_Driver/Src/stm32h7xx_hal_exti.c ****       pExtiConfig->Trigger = EXTI_TRIGGER_NONE;
 457:Drivers/STM32H7xx_HAL_Driver/Src/stm32h7xx_hal_exti.c ****     }
 458:Drivers/STM32H7xx_HAL_Driver/Src/stm32h7xx_hal_exti.c **** 
 459:Drivers/STM32H7xx_HAL_Driver/Src/stm32h7xx_hal_exti.c ****     /* Get falling configuration */
 460:Drivers/STM32H7xx_HAL_Driver/Src/stm32h7xx_hal_exti.c ****     regaddr = (__IO uint32_t *)(&EXTI->FTSR1 + (EXTI_CONFIG_OFFSET * offset));
 406              		.loc 1 460 0
 407 005c 284E     		ldr	r6, .L48+8
 408              	.LVL69:
 461:Drivers/STM32H7xx_HAL_Driver/Src/stm32h7xx_hal_exti.c ****     regval = *regaddr;
 409              		.loc 1 461 0
 410 005e AD59     		ldr	r5, [r5, r6]
 411              	.LVL70:
 462:Drivers/STM32H7xx_HAL_Driver/Src/stm32h7xx_hal_exti.c **** 
 463:Drivers/STM32H7xx_HAL_Driver/Src/stm32h7xx_hal_exti.c ****     /* Check if configuration of selected line is enable */
 464:Drivers/STM32H7xx_HAL_Driver/Src/stm32h7xx_hal_exti.c ****     if ((regval & maskline) != 0x00U)
 412              		.loc 1 464 0
 413 0060 2A42     		tst	r2, r5
 414 0062 03D0     		beq	.L33
 465:Drivers/STM32H7xx_HAL_Driver/Src/stm32h7xx_hal_exti.c ****     {
 466:Drivers/STM32H7xx_HAL_Driver/Src/stm32h7xx_hal_exti.c ****       pExtiConfig->Trigger |= EXTI_TRIGGER_FALLING;
 415              		.loc 1 466 0
 416 0064 9D68     		ldr	r5, [r3, #8]
 417              	.LVL71:
 418 0066 45F00205 		orr	r5, r5, #2
 419 006a 9D60     		str	r5, [r3, #8]
 420              	.L33:
 467:Drivers/STM32H7xx_HAL_Driver/Src/stm32h7xx_hal_exti.c ****     }
 468:Drivers/STM32H7xx_HAL_Driver/Src/stm32h7xx_hal_exti.c **** 
 469:Drivers/STM32H7xx_HAL_Driver/Src/stm32h7xx_hal_exti.c ****     /* Get Gpio port selection for gpio lines */
ARM GAS  /tmp/ccyHfJz5.s 			page 17


 470:Drivers/STM32H7xx_HAL_Driver/Src/stm32h7xx_hal_exti.c ****     if ((pExtiConfig->Line & EXTI_GPIO) == EXTI_GPIO)
 421              		.loc 1 470 0
 422 006c 01F0C061 		and	r1, r1, #100663296
 423 0070 B1F1C06F 		cmp	r1, #100663296
 424 0074 05D0     		beq	.L45
 471:Drivers/STM32H7xx_HAL_Driver/Src/stm32h7xx_hal_exti.c ****     {
 472:Drivers/STM32H7xx_HAL_Driver/Src/stm32h7xx_hal_exti.c ****       assert_param(IS_EXTI_GPIO_PIN(linepos));
 473:Drivers/STM32H7xx_HAL_Driver/Src/stm32h7xx_hal_exti.c **** 
 474:Drivers/STM32H7xx_HAL_Driver/Src/stm32h7xx_hal_exti.c ****       regval = SYSCFG->EXTICR[(linepos >> 2U) & 0x03UL];
 475:Drivers/STM32H7xx_HAL_Driver/Src/stm32h7xx_hal_exti.c ****       pExtiConfig->GPIOSel = ((regval << (SYSCFG_EXTICR1_EXTI1_Pos * (3UL - (linepos & 0x03UL)))) >
 476:Drivers/STM32H7xx_HAL_Driver/Src/stm32h7xx_hal_exti.c ****     }
 477:Drivers/STM32H7xx_HAL_Driver/Src/stm32h7xx_hal_exti.c ****     else
 478:Drivers/STM32H7xx_HAL_Driver/Src/stm32h7xx_hal_exti.c ****     {
 479:Drivers/STM32H7xx_HAL_Driver/Src/stm32h7xx_hal_exti.c ****       pExtiConfig->GPIOSel = 0x00U;
 425              		.loc 1 479 0
 426 0076 0021     		movs	r1, #0
 427 0078 D960     		str	r1, [r3, #12]
 428 007a 13E0     		b	.L35
 429              	.LVL72:
 430              	.L31:
 456:Drivers/STM32H7xx_HAL_Driver/Src/stm32h7xx_hal_exti.c ****     }
 431              		.loc 1 456 0
 432 007c 0026     		movs	r6, #0
 433              	.LVL73:
 434 007e 9E60     		str	r6, [r3, #8]
 435 0080 ECE7     		b	.L32
 436              	.LVL74:
 437              	.L45:
 474:Drivers/STM32H7xx_HAL_Driver/Src/stm32h7xx_hal_exti.c ****       pExtiConfig->GPIOSel = ((regval << (SYSCFG_EXTICR1_EXTI1_Pos * (3UL - (linepos & 0x03UL)))) >
 438              		.loc 1 474 0
 439 0082 C4F38101 		ubfx	r1, r4, #2, #2
 440 0086 0231     		adds	r1, r1, #2
 441 0088 1E4D     		ldr	r5, .L48+12
 442 008a 55F82110 		ldr	r1, [r5, r1, lsl #2]
 443              	.LVL75:
 475:Drivers/STM32H7xx_HAL_Driver/Src/stm32h7xx_hal_exti.c ****     }
 444              		.loc 1 475 0
 445 008e E543     		mvns	r5, r4
 446 0090 05F00305 		and	r5, r5, #3
 447 0094 AD00     		lsls	r5, r5, #2
 448 0096 A940     		lsls	r1, r1, r5
 449              	.LVL76:
 450 0098 090E     		lsrs	r1, r1, #24
 451 009a D960     		str	r1, [r3, #12]
 452 009c 02E0     		b	.L35
 453              	.LVL77:
 454              	.L30:
 480:Drivers/STM32H7xx_HAL_Driver/Src/stm32h7xx_hal_exti.c ****     }
 481:Drivers/STM32H7xx_HAL_Driver/Src/stm32h7xx_hal_exti.c ****   }
 482:Drivers/STM32H7xx_HAL_Driver/Src/stm32h7xx_hal_exti.c ****   else
 483:Drivers/STM32H7xx_HAL_Driver/Src/stm32h7xx_hal_exti.c ****   {
 484:Drivers/STM32H7xx_HAL_Driver/Src/stm32h7xx_hal_exti.c ****     pExtiConfig->Trigger = EXTI_TRIGGER_NONE;
 455              		.loc 1 484 0
 456 009e 0021     		movs	r1, #0
 457 00a0 9960     		str	r1, [r3, #8]
 485:Drivers/STM32H7xx_HAL_Driver/Src/stm32h7xx_hal_exti.c ****     pExtiConfig->GPIOSel = 0x00U;
 458              		.loc 1 485 0
ARM GAS  /tmp/ccyHfJz5.s 			page 18


 459 00a2 D960     		str	r1, [r3, #12]
 460              	.LVL78:
 461              	.L35:
 486:Drivers/STM32H7xx_HAL_Driver/Src/stm32h7xx_hal_exti.c ****   }
 487:Drivers/STM32H7xx_HAL_Driver/Src/stm32h7xx_hal_exti.c **** 
 488:Drivers/STM32H7xx_HAL_Driver/Src/stm32h7xx_hal_exti.c ****   /* 3] Get D3 Pend Clear source */
 489:Drivers/STM32H7xx_HAL_Driver/Src/stm32h7xx_hal_exti.c ****   if ((pExtiConfig->Line & EXTI_TARGET_MASK) == EXTI_TARGET_MSK_ALL)
 462              		.loc 1 489 0
 463 00a4 1968     		ldr	r1, [r3]
 464 00a6 01F44011 		and	r1, r1, #3145728
 465 00aa B1F5401F 		cmp	r1, #3145728
 466 00ae 03D0     		beq	.L46
 490:Drivers/STM32H7xx_HAL_Driver/Src/stm32h7xx_hal_exti.c ****   {
 491:Drivers/STM32H7xx_HAL_Driver/Src/stm32h7xx_hal_exti.c ****     regaddr = (__IO uint32_t *)(&EXTI->D3PMR1 + (EXTI_CONFIG_OFFSET * offset));
 492:Drivers/STM32H7xx_HAL_Driver/Src/stm32h7xx_hal_exti.c ****     if(((*regaddr) & linepos) == 0UL)
 493:Drivers/STM32H7xx_HAL_Driver/Src/stm32h7xx_hal_exti.c ****     {
 494:Drivers/STM32H7xx_HAL_Driver/Src/stm32h7xx_hal_exti.c ****       /* if PMR unset, then no pend clear source is used */
 495:Drivers/STM32H7xx_HAL_Driver/Src/stm32h7xx_hal_exti.c ****       pExtiConfig->PendClearSource = EXTI_D3_PENDCLR_SRC_NONE;
 496:Drivers/STM32H7xx_HAL_Driver/Src/stm32h7xx_hal_exti.c ****     }
 497:Drivers/STM32H7xx_HAL_Driver/Src/stm32h7xx_hal_exti.c ****     else
 498:Drivers/STM32H7xx_HAL_Driver/Src/stm32h7xx_hal_exti.c ****     {
 499:Drivers/STM32H7xx_HAL_Driver/Src/stm32h7xx_hal_exti.c ****       /* if wakeup target is any and PMR set, the read pend clear source from  D3PCRxL/H */
 500:Drivers/STM32H7xx_HAL_Driver/Src/stm32h7xx_hal_exti.c ****       if(linepos < 16UL)
 501:Drivers/STM32H7xx_HAL_Driver/Src/stm32h7xx_hal_exti.c ****       {
 502:Drivers/STM32H7xx_HAL_Driver/Src/stm32h7xx_hal_exti.c ****         regaddr = (__IO uint32_t *)(&EXTI->D3PCR1L + (EXTI_CONFIG_OFFSET * offset));
 503:Drivers/STM32H7xx_HAL_Driver/Src/stm32h7xx_hal_exti.c ****         pcrlinepos = 1UL << linepos;
 504:Drivers/STM32H7xx_HAL_Driver/Src/stm32h7xx_hal_exti.c ****       }
 505:Drivers/STM32H7xx_HAL_Driver/Src/stm32h7xx_hal_exti.c ****       else
 506:Drivers/STM32H7xx_HAL_Driver/Src/stm32h7xx_hal_exti.c ****       {
 507:Drivers/STM32H7xx_HAL_Driver/Src/stm32h7xx_hal_exti.c ****         regaddr = (__IO uint32_t *)(&EXTI->D3PCR1H + (EXTI_CONFIG_OFFSET * offset));
 508:Drivers/STM32H7xx_HAL_Driver/Src/stm32h7xx_hal_exti.c ****         pcrlinepos = 1UL << (linepos - 16UL);
 509:Drivers/STM32H7xx_HAL_Driver/Src/stm32h7xx_hal_exti.c ****       }
 510:Drivers/STM32H7xx_HAL_Driver/Src/stm32h7xx_hal_exti.c **** 
 511:Drivers/STM32H7xx_HAL_Driver/Src/stm32h7xx_hal_exti.c ****       pExtiConfig->PendClearSource = 1UL + ((*regaddr & (pcrlinepos * pcrlinepos * 3UL)) / (pcrline
 512:Drivers/STM32H7xx_HAL_Driver/Src/stm32h7xx_hal_exti.c ****     }
 513:Drivers/STM32H7xx_HAL_Driver/Src/stm32h7xx_hal_exti.c ****   }
 514:Drivers/STM32H7xx_HAL_Driver/Src/stm32h7xx_hal_exti.c ****   else
 515:Drivers/STM32H7xx_HAL_Driver/Src/stm32h7xx_hal_exti.c ****   {
 516:Drivers/STM32H7xx_HAL_Driver/Src/stm32h7xx_hal_exti.c ****     /* if line wakeup target is not any, then no pend clear source is used  */
 517:Drivers/STM32H7xx_HAL_Driver/Src/stm32h7xx_hal_exti.c ****     pExtiConfig->PendClearSource = EXTI_D3_PENDCLR_SRC_NONE;
 467              		.loc 1 517 0
 468 00b0 0020     		movs	r0, #0
 469              	.LVL79:
 470 00b2 1861     		str	r0, [r3, #16]
 471              	.LVL80:
 472              	.L27:
 518:Drivers/STM32H7xx_HAL_Driver/Src/stm32h7xx_hal_exti.c ****   }
 519:Drivers/STM32H7xx_HAL_Driver/Src/stm32h7xx_hal_exti.c **** 
 520:Drivers/STM32H7xx_HAL_Driver/Src/stm32h7xx_hal_exti.c ****   return HAL_OK;
 521:Drivers/STM32H7xx_HAL_Driver/Src/stm32h7xx_hal_exti.c **** }
 473              		.loc 1 521 0
 474 00b4 F0BC     		pop	{r4, r5, r6, r7}
 475              	.LCFI5:
 476              		.cfi_remember_state
 477              		.cfi_restore 7
 478              		.cfi_restore 6
 479              		.cfi_restore 5
ARM GAS  /tmp/ccyHfJz5.s 			page 19


 480              		.cfi_restore 4
 481              		.cfi_def_cfa_offset 0
 482 00b6 7047     		bx	lr
 483              	.LVL81:
 484              	.L46:
 485              	.LCFI6:
 486              		.cfi_restore_state
 491:Drivers/STM32H7xx_HAL_Driver/Src/stm32h7xx_hal_exti.c ****     if(((*regaddr) & linepos) == 0UL)
 487              		.loc 1 491 0
 488 00b8 4001     		lsls	r0, r0, #5
 489              	.LVL82:
 490 00ba 1349     		ldr	r1, .L48+16
 491              	.LVL83:
 492:Drivers/STM32H7xx_HAL_Driver/Src/stm32h7xx_hal_exti.c ****     {
 492              		.loc 1 492 0
 493 00bc 4158     		ldr	r1, [r0, r1]
 494              	.LVL84:
 495 00be 2142     		tst	r1, r4
 496 00c0 0FD0     		beq	.L47
 500:Drivers/STM32H7xx_HAL_Driver/Src/stm32h7xx_hal_exti.c ****       {
 497              		.loc 1 500 0
 498 00c2 0F2C     		cmp	r4, #15
 499 00c4 10D8     		bhi	.L38
 502:Drivers/STM32H7xx_HAL_Driver/Src/stm32h7xx_hal_exti.c ****         pcrlinepos = 1UL << linepos;
 500              		.loc 1 502 0
 501 00c6 1149     		ldr	r1, .L48+20
 502 00c8 0144     		add	r1, r1, r0
 503              	.LVL85:
 504              	.L39:
 511:Drivers/STM32H7xx_HAL_Driver/Src/stm32h7xx_hal_exti.c ****     }
 505              		.loc 1 511 0
 506 00ca 0968     		ldr	r1, [r1]
 507              	.LVL86:
 508 00cc 02FB02F2 		mul	r2, r2, r2
 509              	.LVL87:
 510 00d0 02EB4200 		add	r0, r2, r2, lsl #1
 511 00d4 0140     		ands	r1, r1, r0
 512 00d6 B1FBF2F2 		udiv	r2, r1, r2
 513 00da 0132     		adds	r2, r2, #1
 514 00dc 1A61     		str	r2, [r3, #16]
 520:Drivers/STM32H7xx_HAL_Driver/Src/stm32h7xx_hal_exti.c **** }
 515              		.loc 1 520 0
 516 00de 0020     		movs	r0, #0
 517 00e0 E8E7     		b	.L27
 518              	.LVL88:
 519              	.L47:
 495:Drivers/STM32H7xx_HAL_Driver/Src/stm32h7xx_hal_exti.c ****     }
 520              		.loc 1 495 0
 521 00e2 0020     		movs	r0, #0
 522              	.LVL89:
 523 00e4 1861     		str	r0, [r3, #16]
 524 00e6 E5E7     		b	.L27
 525              	.LVL90:
 526              	.L38:
 507:Drivers/STM32H7xx_HAL_Driver/Src/stm32h7xx_hal_exti.c ****         pcrlinepos = 1UL << (linepos - 16UL);
 527              		.loc 1 507 0
 528 00e8 0949     		ldr	r1, .L48+24
ARM GAS  /tmp/ccyHfJz5.s 			page 20


 529 00ea 0144     		add	r1, r1, r0
 530              	.LVL91:
 508:Drivers/STM32H7xx_HAL_Driver/Src/stm32h7xx_hal_exti.c ****       }
 531              		.loc 1 508 0
 532 00ec 103C     		subs	r4, r4, #16
 533              	.LVL92:
 534 00ee 0122     		movs	r2, #1
 535              	.LVL93:
 536 00f0 A240     		lsls	r2, r2, r4
 537              	.LVL94:
 538 00f2 EAE7     		b	.L39
 539              	.LVL95:
 540              	.L40:
 541              	.LCFI7:
 542              		.cfi_def_cfa_offset 0
 543              		.cfi_restore 4
 544              		.cfi_restore 5
 545              		.cfi_restore 6
 546              		.cfi_restore 7
 387:Drivers/STM32H7xx_HAL_Driver/Src/stm32h7xx_hal_exti.c ****   }
 547              		.loc 1 387 0
 548 00f4 0120     		movs	r0, #1
 549              	.LVL96:
 550              		.loc 1 521 0
 551 00f6 7047     		bx	lr
 552              	.L49:
 553              		.align	2
 554              	.L48:
 555 00f8 80000058 		.word	1476395136
 556 00fc 84000058 		.word	1476395140
 557 0100 04000058 		.word	1476395012
 558 0104 00040058 		.word	1476396032
 559 0108 0C000058 		.word	1476395020
 560 010c 10000058 		.word	1476395024
 561 0110 14000058 		.word	1476395028
 562              		.cfi_endproc
 563              	.LFE344:
 565              		.section	.text.HAL_EXTI_ClearConfigLine,"ax",%progbits
 566              		.align	1
 567              		.global	HAL_EXTI_ClearConfigLine
 568              		.syntax unified
 569              		.thumb
 570              		.thumb_func
 571              		.fpu fpv5-d16
 573              	HAL_EXTI_ClearConfigLine:
 574              	.LFB345:
 522:Drivers/STM32H7xx_HAL_Driver/Src/stm32h7xx_hal_exti.c **** 
 523:Drivers/STM32H7xx_HAL_Driver/Src/stm32h7xx_hal_exti.c **** 
 524:Drivers/STM32H7xx_HAL_Driver/Src/stm32h7xx_hal_exti.c **** /**
 525:Drivers/STM32H7xx_HAL_Driver/Src/stm32h7xx_hal_exti.c ****   * @brief  Clear whole configuration of a dedicated Exti line.
 526:Drivers/STM32H7xx_HAL_Driver/Src/stm32h7xx_hal_exti.c ****   * @param  hexti Exti handle.
 527:Drivers/STM32H7xx_HAL_Driver/Src/stm32h7xx_hal_exti.c ****   * @retval HAL Status.
 528:Drivers/STM32H7xx_HAL_Driver/Src/stm32h7xx_hal_exti.c ****   */
 529:Drivers/STM32H7xx_HAL_Driver/Src/stm32h7xx_hal_exti.c **** HAL_StatusTypeDef HAL_EXTI_ClearConfigLine(EXTI_HandleTypeDef *hexti)
 530:Drivers/STM32H7xx_HAL_Driver/Src/stm32h7xx_hal_exti.c **** {
 575              		.loc 1 530 0
 576              		.cfi_startproc
ARM GAS  /tmp/ccyHfJz5.s 			page 21


 577              		@ args = 0, pretend = 0, frame = 0
 578              		@ frame_needed = 0, uses_anonymous_args = 0
 579              	.LVL97:
 531:Drivers/STM32H7xx_HAL_Driver/Src/stm32h7xx_hal_exti.c ****   __IO uint32_t *regaddr;
 532:Drivers/STM32H7xx_HAL_Driver/Src/stm32h7xx_hal_exti.c ****   uint32_t regval;
 533:Drivers/STM32H7xx_HAL_Driver/Src/stm32h7xx_hal_exti.c ****   uint32_t linepos;
 534:Drivers/STM32H7xx_HAL_Driver/Src/stm32h7xx_hal_exti.c ****   uint32_t maskline;
 535:Drivers/STM32H7xx_HAL_Driver/Src/stm32h7xx_hal_exti.c ****   uint32_t offset;
 536:Drivers/STM32H7xx_HAL_Driver/Src/stm32h7xx_hal_exti.c ****   uint32_t pcrlinepos;
 537:Drivers/STM32H7xx_HAL_Driver/Src/stm32h7xx_hal_exti.c **** 
 538:Drivers/STM32H7xx_HAL_Driver/Src/stm32h7xx_hal_exti.c ****   /* Check null pointer */
 539:Drivers/STM32H7xx_HAL_Driver/Src/stm32h7xx_hal_exti.c ****   if (hexti == NULL)
 580              		.loc 1 539 0
 581 0000 0028     		cmp	r0, #0
 582 0002 65D0     		beq	.L55
 530:Drivers/STM32H7xx_HAL_Driver/Src/stm32h7xx_hal_exti.c ****   __IO uint32_t *regaddr;
 583              		.loc 1 530 0
 584 0004 F0B5     		push	{r4, r5, r6, r7, lr}
 585              	.LCFI8:
 586              		.cfi_def_cfa_offset 20
 587              		.cfi_offset 4, -20
 588              		.cfi_offset 5, -16
 589              		.cfi_offset 6, -12
 590              		.cfi_offset 7, -8
 591              		.cfi_offset 14, -4
 592 0006 0446     		mov	r4, r0
 540:Drivers/STM32H7xx_HAL_Driver/Src/stm32h7xx_hal_exti.c ****   {
 541:Drivers/STM32H7xx_HAL_Driver/Src/stm32h7xx_hal_exti.c ****     return HAL_ERROR;
 542:Drivers/STM32H7xx_HAL_Driver/Src/stm32h7xx_hal_exti.c ****   }
 543:Drivers/STM32H7xx_HAL_Driver/Src/stm32h7xx_hal_exti.c **** 
 544:Drivers/STM32H7xx_HAL_Driver/Src/stm32h7xx_hal_exti.c ****   /* Check the parameter */
 545:Drivers/STM32H7xx_HAL_Driver/Src/stm32h7xx_hal_exti.c ****   assert_param(IS_EXTI_LINE(hexti->Line));
 546:Drivers/STM32H7xx_HAL_Driver/Src/stm32h7xx_hal_exti.c **** 
 547:Drivers/STM32H7xx_HAL_Driver/Src/stm32h7xx_hal_exti.c ****   /* compute line register offset and line mask */
 548:Drivers/STM32H7xx_HAL_Driver/Src/stm32h7xx_hal_exti.c ****   offset = ((hexti->Line & EXTI_REG_MASK) >> EXTI_REG_SHIFT);
 593              		.loc 1 548 0
 594 0008 0768     		ldr	r7, [r0]
 595 000a C7F30140 		ubfx	r0, r7, #16, #2
 596              	.LVL98:
 549:Drivers/STM32H7xx_HAL_Driver/Src/stm32h7xx_hal_exti.c ****   linepos = (hexti->Line & EXTI_PIN_MASK);
 597              		.loc 1 549 0
 598 000e 07F01F06 		and	r6, r7, #31
 599              	.LVL99:
 550:Drivers/STM32H7xx_HAL_Driver/Src/stm32h7xx_hal_exti.c ****   maskline = (1UL << linepos);
 600              		.loc 1 550 0
 601 0012 0123     		movs	r3, #1
 602 0014 B340     		lsls	r3, r3, r6
 603              	.LVL100:
 551:Drivers/STM32H7xx_HAL_Driver/Src/stm32h7xx_hal_exti.c **** 
 552:Drivers/STM32H7xx_HAL_Driver/Src/stm32h7xx_hal_exti.c ****   /* 1] Clear interrupt mode */
 553:Drivers/STM32H7xx_HAL_Driver/Src/stm32h7xx_hal_exti.c ****   regaddr = (__IO uint32_t *)(&EXTI->IMR1 + (EXTI_MODE_OFFSET * offset));
 604              		.loc 1 553 0
 605 0016 0101     		lsls	r1, r0, #4
 606 0018 DFF8C4C0 		ldr	ip, .L63+12
 607              	.LVL101:
 554:Drivers/STM32H7xx_HAL_Driver/Src/stm32h7xx_hal_exti.c ****   regval = (*regaddr & ~maskline);
 608              		.loc 1 554 0
ARM GAS  /tmp/ccyHfJz5.s 			page 22


 609 001c 51F80C50 		ldr	r5, [r1, ip]
 610 0020 DA43     		mvns	r2, r3
 611 0022 1540     		ands	r5, r5, r2
 612              	.LVL102:
 555:Drivers/STM32H7xx_HAL_Driver/Src/stm32h7xx_hal_exti.c ****   *regaddr = regval;
 613              		.loc 1 555 0
 614 0024 41F80C50 		str	r5, [r1, ip]
 556:Drivers/STM32H7xx_HAL_Driver/Src/stm32h7xx_hal_exti.c **** 
 557:Drivers/STM32H7xx_HAL_Driver/Src/stm32h7xx_hal_exti.c ****   /* 2] Clear event mode */
 558:Drivers/STM32H7xx_HAL_Driver/Src/stm32h7xx_hal_exti.c ****   regaddr = (__IO uint32_t *)(&EXTI->EMR1 + (EXTI_MODE_OFFSET * offset));
 615              		.loc 1 558 0
 616 0028 0CF1040C 		add	ip, ip, #4
 617              	.LVL103:
 559:Drivers/STM32H7xx_HAL_Driver/Src/stm32h7xx_hal_exti.c ****   regval = (*regaddr & ~maskline);
 618              		.loc 1 559 0
 619 002c 51F80C50 		ldr	r5, [r1, ip]
 620              	.LVL104:
 621 0030 1540     		ands	r5, r5, r2
 622              	.LVL105:
 560:Drivers/STM32H7xx_HAL_Driver/Src/stm32h7xx_hal_exti.c ****   *regaddr = regval;
 623              		.loc 1 560 0
 624 0032 41F80C50 		str	r5, [r1, ip]
 561:Drivers/STM32H7xx_HAL_Driver/Src/stm32h7xx_hal_exti.c **** 
 562:Drivers/STM32H7xx_HAL_Driver/Src/stm32h7xx_hal_exti.c **** #if defined (DUAL_CORE)
 563:Drivers/STM32H7xx_HAL_Driver/Src/stm32h7xx_hal_exti.c ****     /* 1] Clear CM4 interrupt mode */
 564:Drivers/STM32H7xx_HAL_Driver/Src/stm32h7xx_hal_exti.c ****   regaddr = (__IO uint32_t *)(&EXTI->C2IMR1 + (EXTI_MODE_OFFSET * offset));
 565:Drivers/STM32H7xx_HAL_Driver/Src/stm32h7xx_hal_exti.c ****   regval = (*regaddr & ~maskline);
 566:Drivers/STM32H7xx_HAL_Driver/Src/stm32h7xx_hal_exti.c ****   *regaddr = regval;
 567:Drivers/STM32H7xx_HAL_Driver/Src/stm32h7xx_hal_exti.c **** 
 568:Drivers/STM32H7xx_HAL_Driver/Src/stm32h7xx_hal_exti.c ****   /* 2] Clear CM4 event mode */
 569:Drivers/STM32H7xx_HAL_Driver/Src/stm32h7xx_hal_exti.c ****   regaddr = (__IO uint32_t *)(&EXTI->C2EMR1 + (EXTI_MODE_OFFSET * offset));
 570:Drivers/STM32H7xx_HAL_Driver/Src/stm32h7xx_hal_exti.c ****   regval = (*regaddr & ~maskline);
 571:Drivers/STM32H7xx_HAL_Driver/Src/stm32h7xx_hal_exti.c ****   *regaddr = regval;
 572:Drivers/STM32H7xx_HAL_Driver/Src/stm32h7xx_hal_exti.c **** #endif /* DUAL_CORE */
 573:Drivers/STM32H7xx_HAL_Driver/Src/stm32h7xx_hal_exti.c **** 
 574:Drivers/STM32H7xx_HAL_Driver/Src/stm32h7xx_hal_exti.c ****   /* 3] Clear triggers in case of configurable lines */
 575:Drivers/STM32H7xx_HAL_Driver/Src/stm32h7xx_hal_exti.c ****   if ((hexti->Line & EXTI_CONFIG) != 0x00U)
 625              		.loc 1 575 0
 626 0036 2168     		ldr	r1, [r4]
 627              	.LVL106:
 628 0038 11F0007F 		tst	r1, #33554432
 629 003c 14D0     		beq	.L52
 576:Drivers/STM32H7xx_HAL_Driver/Src/stm32h7xx_hal_exti.c ****   {
 577:Drivers/STM32H7xx_HAL_Driver/Src/stm32h7xx_hal_exti.c ****     regaddr = (__IO uint32_t *)(&EXTI->RTSR1 + (EXTI_CONFIG_OFFSET * offset));
 630              		.loc 1 577 0
 631 003e 4101     		lsls	r1, r0, #5
 632 0040 01F1B04C 		add	ip, r1, #1476395008
 633              	.LVL107:
 578:Drivers/STM32H7xx_HAL_Driver/Src/stm32h7xx_hal_exti.c ****     regval = (*regaddr & ~maskline);
 634              		.loc 1 578 0
 635 0044 DCF80050 		ldr	r5, [ip]
 636              	.LVL108:
 637 0048 1540     		ands	r5, r5, r2
 638              	.LVL109:
 579:Drivers/STM32H7xx_HAL_Driver/Src/stm32h7xx_hal_exti.c ****     *regaddr = regval;
 639              		.loc 1 579 0
 640 004a CCF80050 		str	r5, [ip]
ARM GAS  /tmp/ccyHfJz5.s 			page 23


 580:Drivers/STM32H7xx_HAL_Driver/Src/stm32h7xx_hal_exti.c **** 
 581:Drivers/STM32H7xx_HAL_Driver/Src/stm32h7xx_hal_exti.c ****     regaddr = (__IO uint32_t *)(&EXTI->FTSR1 + (EXTI_CONFIG_OFFSET * offset));
 641              		.loc 1 581 0
 642 004e DFF894C0 		ldr	ip, .L63+16
 643              	.LVL110:
 582:Drivers/STM32H7xx_HAL_Driver/Src/stm32h7xx_hal_exti.c ****     regval = (*regaddr & ~maskline);
 644              		.loc 1 582 0
 645 0052 51F80C50 		ldr	r5, [r1, ip]
 646              	.LVL111:
 647 0056 1540     		ands	r5, r5, r2
 648              	.LVL112:
 583:Drivers/STM32H7xx_HAL_Driver/Src/stm32h7xx_hal_exti.c ****     *regaddr = regval;
 649              		.loc 1 583 0
 650 0058 41F80C50 		str	r5, [r1, ip]
 584:Drivers/STM32H7xx_HAL_Driver/Src/stm32h7xx_hal_exti.c **** 
 585:Drivers/STM32H7xx_HAL_Driver/Src/stm32h7xx_hal_exti.c ****     /* Get Gpio port selection for gpio lines */
 586:Drivers/STM32H7xx_HAL_Driver/Src/stm32h7xx_hal_exti.c ****     if ((hexti->Line & EXTI_GPIO) == EXTI_GPIO)
 651              		.loc 1 586 0
 652 005c 2168     		ldr	r1, [r4]
 653              	.LVL113:
 654 005e 01F0C061 		and	r1, r1, #100663296
 655 0062 B1F1C06F 		cmp	r1, #100663296
 656 0066 07D0     		beq	.L61
 657              	.LVL114:
 658              	.L52:
 587:Drivers/STM32H7xx_HAL_Driver/Src/stm32h7xx_hal_exti.c ****     {
 588:Drivers/STM32H7xx_HAL_Driver/Src/stm32h7xx_hal_exti.c ****       assert_param(IS_EXTI_GPIO_PIN(linepos));
 589:Drivers/STM32H7xx_HAL_Driver/Src/stm32h7xx_hal_exti.c **** 
 590:Drivers/STM32H7xx_HAL_Driver/Src/stm32h7xx_hal_exti.c ****       regval = SYSCFG->EXTICR[(linepos >> 2U) & 0x03UL];
 591:Drivers/STM32H7xx_HAL_Driver/Src/stm32h7xx_hal_exti.c ****       regval &= ~(SYSCFG_EXTICR1_EXTI0 << (SYSCFG_EXTICR1_EXTI1_Pos * (linepos & 0x03UL)));
 592:Drivers/STM32H7xx_HAL_Driver/Src/stm32h7xx_hal_exti.c ****       SYSCFG->EXTICR[(linepos >> 2U) & 0x03UL] = regval;
 593:Drivers/STM32H7xx_HAL_Driver/Src/stm32h7xx_hal_exti.c ****     }
 594:Drivers/STM32H7xx_HAL_Driver/Src/stm32h7xx_hal_exti.c ****   }
 595:Drivers/STM32H7xx_HAL_Driver/Src/stm32h7xx_hal_exti.c **** 
 596:Drivers/STM32H7xx_HAL_Driver/Src/stm32h7xx_hal_exti.c ****   /* 4] Clear D3 Config lines */
 597:Drivers/STM32H7xx_HAL_Driver/Src/stm32h7xx_hal_exti.c ****   if ((hexti->Line & EXTI_TARGET_MASK) == EXTI_TARGET_MSK_ALL)
 659              		.loc 1 597 0
 660 0068 2168     		ldr	r1, [r4]
 661 006a 01F44011 		and	r1, r1, #3145728
 662 006e B1F5401F 		cmp	r1, #3145728
 663 0072 14D0     		beq	.L62
 598:Drivers/STM32H7xx_HAL_Driver/Src/stm32h7xx_hal_exti.c ****   {
 599:Drivers/STM32H7xx_HAL_Driver/Src/stm32h7xx_hal_exti.c ****     regaddr = (__IO uint32_t *)(&EXTI->D3PMR1 + (EXTI_CONFIG_OFFSET * offset));
 600:Drivers/STM32H7xx_HAL_Driver/Src/stm32h7xx_hal_exti.c ****     *regaddr = (*regaddr & ~maskline);
 601:Drivers/STM32H7xx_HAL_Driver/Src/stm32h7xx_hal_exti.c **** 
 602:Drivers/STM32H7xx_HAL_Driver/Src/stm32h7xx_hal_exti.c ****     if(linepos < 16UL)
 603:Drivers/STM32H7xx_HAL_Driver/Src/stm32h7xx_hal_exti.c ****     {
 604:Drivers/STM32H7xx_HAL_Driver/Src/stm32h7xx_hal_exti.c ****       regaddr = (__IO uint32_t *)(&EXTI->D3PCR1L + (EXTI_CONFIG_OFFSET * offset));
 605:Drivers/STM32H7xx_HAL_Driver/Src/stm32h7xx_hal_exti.c ****       pcrlinepos = 1UL << linepos;
 606:Drivers/STM32H7xx_HAL_Driver/Src/stm32h7xx_hal_exti.c ****     }
 607:Drivers/STM32H7xx_HAL_Driver/Src/stm32h7xx_hal_exti.c ****     else
 608:Drivers/STM32H7xx_HAL_Driver/Src/stm32h7xx_hal_exti.c ****     {
 609:Drivers/STM32H7xx_HAL_Driver/Src/stm32h7xx_hal_exti.c ****       regaddr = (__IO uint32_t *)(&EXTI->D3PCR1H + (EXTI_CONFIG_OFFSET * offset));
 610:Drivers/STM32H7xx_HAL_Driver/Src/stm32h7xx_hal_exti.c ****       pcrlinepos = 1UL << (linepos - 16UL);
 611:Drivers/STM32H7xx_HAL_Driver/Src/stm32h7xx_hal_exti.c ****     }
 612:Drivers/STM32H7xx_HAL_Driver/Src/stm32h7xx_hal_exti.c **** 
 613:Drivers/STM32H7xx_HAL_Driver/Src/stm32h7xx_hal_exti.c ****     /*Clear D3 PendClear source */
ARM GAS  /tmp/ccyHfJz5.s 			page 24


 614:Drivers/STM32H7xx_HAL_Driver/Src/stm32h7xx_hal_exti.c ****     *regaddr &= (~(pcrlinepos * pcrlinepos * 3UL));
 615:Drivers/STM32H7xx_HAL_Driver/Src/stm32h7xx_hal_exti.c ****   }
 616:Drivers/STM32H7xx_HAL_Driver/Src/stm32h7xx_hal_exti.c **** 
 617:Drivers/STM32H7xx_HAL_Driver/Src/stm32h7xx_hal_exti.c ****   return HAL_OK;
 664              		.loc 1 617 0
 665 0074 0020     		movs	r0, #0
 666              	.LVL115:
 667              	.L51:
 618:Drivers/STM32H7xx_HAL_Driver/Src/stm32h7xx_hal_exti.c **** }
 668              		.loc 1 618 0
 669 0076 F0BD     		pop	{r4, r5, r6, r7, pc}
 670              	.LVL116:
 671              	.L61:
 590:Drivers/STM32H7xx_HAL_Driver/Src/stm32h7xx_hal_exti.c ****       regval &= ~(SYSCFG_EXTICR1_EXTI0 << (SYSCFG_EXTICR1_EXTI1_Pos * (linepos & 0x03UL)));
 672              		.loc 1 590 0
 673 0078 C6F38101 		ubfx	r1, r6, #2, #2
 674 007c 0CF57F7C 		add	ip, ip, #1020
 675              	.LVL117:
 676 0080 0231     		adds	r1, r1, #2
 677 0082 5CF82150 		ldr	r5, [ip, r1, lsl #2]
 678              	.LVL118:
 591:Drivers/STM32H7xx_HAL_Driver/Src/stm32h7xx_hal_exti.c ****       SYSCFG->EXTICR[(linepos >> 2U) & 0x03UL] = regval;
 679              		.loc 1 591 0
 680 0086 07F00307 		and	r7, r7, #3
 681 008a BF00     		lsls	r7, r7, #2
 682 008c 4FF00F0E 		mov	lr, #15
 683 0090 0EFA07F7 		lsl	r7, lr, r7
 684 0094 25EA0707 		bic	r7, r5, r7
 685              	.LVL119:
 592:Drivers/STM32H7xx_HAL_Driver/Src/stm32h7xx_hal_exti.c ****     }
 686              		.loc 1 592 0
 687 0098 4CF82170 		str	r7, [ip, r1, lsl #2]
 688 009c E4E7     		b	.L52
 689              	.LVL120:
 690              	.L62:
 599:Drivers/STM32H7xx_HAL_Driver/Src/stm32h7xx_hal_exti.c ****     *regaddr = (*regaddr & ~maskline);
 691              		.loc 1 599 0
 692 009e 4001     		lsls	r0, r0, #5
 693              	.LVL121:
 694 00a0 0C49     		ldr	r1, .L63
 695              	.LVL122:
 600:Drivers/STM32H7xx_HAL_Driver/Src/stm32h7xx_hal_exti.c **** 
 696              		.loc 1 600 0
 697 00a2 4458     		ldr	r4, [r0, r1]
 698              	.LVL123:
 699 00a4 2240     		ands	r2, r2, r4
 700 00a6 4250     		str	r2, [r0, r1]
 602:Drivers/STM32H7xx_HAL_Driver/Src/stm32h7xx_hal_exti.c ****     {
 701              		.loc 1 602 0
 702 00a8 0F2E     		cmp	r6, #15
 703 00aa 0BD8     		bhi	.L53
 604:Drivers/STM32H7xx_HAL_Driver/Src/stm32h7xx_hal_exti.c ****       pcrlinepos = 1UL << linepos;
 704              		.loc 1 604 0
 705 00ac 0A4A     		ldr	r2, .L63+4
 706 00ae 0244     		add	r2, r2, r0
 707              	.LVL124:
 708              	.L54:
ARM GAS  /tmp/ccyHfJz5.s 			page 25


 614:Drivers/STM32H7xx_HAL_Driver/Src/stm32h7xx_hal_exti.c ****   }
 709              		.loc 1 614 0
 710 00b0 1168     		ldr	r1, [r2]
 711 00b2 03FB03F3 		mul	r3, r3, r3
 712              	.LVL125:
 713 00b6 03EB4303 		add	r3, r3, r3, lsl #1
 714 00ba 21EA0303 		bic	r3, r1, r3
 715 00be 1360     		str	r3, [r2]
 617:Drivers/STM32H7xx_HAL_Driver/Src/stm32h7xx_hal_exti.c **** }
 716              		.loc 1 617 0
 717 00c0 0020     		movs	r0, #0
 718 00c2 D8E7     		b	.L51
 719              	.LVL126:
 720              	.L53:
 609:Drivers/STM32H7xx_HAL_Driver/Src/stm32h7xx_hal_exti.c ****       pcrlinepos = 1UL << (linepos - 16UL);
 721              		.loc 1 609 0
 722 00c4 054A     		ldr	r2, .L63+8
 723 00c6 0244     		add	r2, r2, r0
 724              	.LVL127:
 610:Drivers/STM32H7xx_HAL_Driver/Src/stm32h7xx_hal_exti.c ****     }
 725              		.loc 1 610 0
 726 00c8 103E     		subs	r6, r6, #16
 727              	.LVL128:
 728 00ca 0123     		movs	r3, #1
 729              	.LVL129:
 730 00cc B340     		lsls	r3, r3, r6
 731              	.LVL130:
 732 00ce EFE7     		b	.L54
 733              	.LVL131:
 734              	.L55:
 735              	.LCFI9:
 736              		.cfi_def_cfa_offset 0
 737              		.cfi_restore 4
 738              		.cfi_restore 5
 739              		.cfi_restore 6
 740              		.cfi_restore 7
 741              		.cfi_restore 14
 541:Drivers/STM32H7xx_HAL_Driver/Src/stm32h7xx_hal_exti.c ****   }
 742              		.loc 1 541 0
 743 00d0 0120     		movs	r0, #1
 744              	.LVL132:
 745              		.loc 1 618 0
 746 00d2 7047     		bx	lr
 747              	.L64:
 748              		.align	2
 749              	.L63:
 750 00d4 0C000058 		.word	1476395020
 751 00d8 10000058 		.word	1476395024
 752 00dc 14000058 		.word	1476395028
 753 00e0 80000058 		.word	1476395136
 754 00e4 04000058 		.word	1476395012
 755              		.cfi_endproc
 756              	.LFE345:
 758              		.section	.text.HAL_EXTI_RegisterCallback,"ax",%progbits
 759              		.align	1
 760              		.global	HAL_EXTI_RegisterCallback
 761              		.syntax unified
ARM GAS  /tmp/ccyHfJz5.s 			page 26


 762              		.thumb
 763              		.thumb_func
 764              		.fpu fpv5-d16
 766              	HAL_EXTI_RegisterCallback:
 767              	.LFB346:
 619:Drivers/STM32H7xx_HAL_Driver/Src/stm32h7xx_hal_exti.c **** 
 620:Drivers/STM32H7xx_HAL_Driver/Src/stm32h7xx_hal_exti.c **** 
 621:Drivers/STM32H7xx_HAL_Driver/Src/stm32h7xx_hal_exti.c **** /**
 622:Drivers/STM32H7xx_HAL_Driver/Src/stm32h7xx_hal_exti.c ****   * @brief  Register callback for a dedicated Exti line.
 623:Drivers/STM32H7xx_HAL_Driver/Src/stm32h7xx_hal_exti.c ****   * @param  hexti Exti handle.
 624:Drivers/STM32H7xx_HAL_Driver/Src/stm32h7xx_hal_exti.c ****   * @param  CallbackID User callback identifier.
 625:Drivers/STM32H7xx_HAL_Driver/Src/stm32h7xx_hal_exti.c ****   *         This parameter can be one of @arg @ref EXTI_CallbackIDTypeDef values.
 626:Drivers/STM32H7xx_HAL_Driver/Src/stm32h7xx_hal_exti.c ****   * @param  pPendingCbfn function pointer to be stored as callback.
 627:Drivers/STM32H7xx_HAL_Driver/Src/stm32h7xx_hal_exti.c ****   * @retval HAL Status.
 628:Drivers/STM32H7xx_HAL_Driver/Src/stm32h7xx_hal_exti.c ****   */
 629:Drivers/STM32H7xx_HAL_Driver/Src/stm32h7xx_hal_exti.c **** HAL_StatusTypeDef HAL_EXTI_RegisterCallback(EXTI_HandleTypeDef *hexti, EXTI_CallbackIDTypeDef Callb
 630:Drivers/STM32H7xx_HAL_Driver/Src/stm32h7xx_hal_exti.c **** {
 768              		.loc 1 630 0
 769              		.cfi_startproc
 770              		@ args = 0, pretend = 0, frame = 0
 771              		@ frame_needed = 0, uses_anonymous_args = 0
 772              		@ link register save eliminated.
 773              	.LVL133:
 631:Drivers/STM32H7xx_HAL_Driver/Src/stm32h7xx_hal_exti.c ****   HAL_StatusTypeDef status = HAL_OK;
 632:Drivers/STM32H7xx_HAL_Driver/Src/stm32h7xx_hal_exti.c **** 
 633:Drivers/STM32H7xx_HAL_Driver/Src/stm32h7xx_hal_exti.c ****   /* Check null pointer */
 634:Drivers/STM32H7xx_HAL_Driver/Src/stm32h7xx_hal_exti.c ****   if (hexti == NULL)
 774              		.loc 1 634 0
 775 0000 18B1     		cbz	r0, .L68
 635:Drivers/STM32H7xx_HAL_Driver/Src/stm32h7xx_hal_exti.c ****   {
 636:Drivers/STM32H7xx_HAL_Driver/Src/stm32h7xx_hal_exti.c ****     return HAL_ERROR;
 637:Drivers/STM32H7xx_HAL_Driver/Src/stm32h7xx_hal_exti.c ****   }
 638:Drivers/STM32H7xx_HAL_Driver/Src/stm32h7xx_hal_exti.c **** 
 639:Drivers/STM32H7xx_HAL_Driver/Src/stm32h7xx_hal_exti.c ****   switch (CallbackID)
 776              		.loc 1 639 0
 777 0002 21B9     		cbnz	r1, .L70
 640:Drivers/STM32H7xx_HAL_Driver/Src/stm32h7xx_hal_exti.c ****   {
 641:Drivers/STM32H7xx_HAL_Driver/Src/stm32h7xx_hal_exti.c ****     case  HAL_EXTI_COMMON_CB_ID:
 642:Drivers/STM32H7xx_HAL_Driver/Src/stm32h7xx_hal_exti.c ****       hexti->PendingCallback = pPendingCbfn;
 778              		.loc 1 642 0
 779 0004 4260     		str	r2, [r0, #4]
 631:Drivers/STM32H7xx_HAL_Driver/Src/stm32h7xx_hal_exti.c **** 
 780              		.loc 1 631 0
 781 0006 0020     		movs	r0, #0
 782              	.LVL134:
 643:Drivers/STM32H7xx_HAL_Driver/Src/stm32h7xx_hal_exti.c ****       break;
 783              		.loc 1 643 0
 784 0008 7047     		bx	lr
 785              	.LVL135:
 786              	.L68:
 636:Drivers/STM32H7xx_HAL_Driver/Src/stm32h7xx_hal_exti.c ****   }
 787              		.loc 1 636 0
 788 000a 0120     		movs	r0, #1
 789              	.LVL136:
 790 000c 7047     		bx	lr
 791              	.LVL137:
 792              	.L70:
ARM GAS  /tmp/ccyHfJz5.s 			page 27


 644:Drivers/STM32H7xx_HAL_Driver/Src/stm32h7xx_hal_exti.c **** 
 645:Drivers/STM32H7xx_HAL_Driver/Src/stm32h7xx_hal_exti.c ****     default:
 646:Drivers/STM32H7xx_HAL_Driver/Src/stm32h7xx_hal_exti.c ****       status = HAL_ERROR;
 793              		.loc 1 646 0
 794 000e 0120     		movs	r0, #1
 795              	.LVL138:
 647:Drivers/STM32H7xx_HAL_Driver/Src/stm32h7xx_hal_exti.c ****       break;
 648:Drivers/STM32H7xx_HAL_Driver/Src/stm32h7xx_hal_exti.c ****   }
 649:Drivers/STM32H7xx_HAL_Driver/Src/stm32h7xx_hal_exti.c **** 
 650:Drivers/STM32H7xx_HAL_Driver/Src/stm32h7xx_hal_exti.c ****   return status;
 651:Drivers/STM32H7xx_HAL_Driver/Src/stm32h7xx_hal_exti.c **** }
 796              		.loc 1 651 0
 797 0010 7047     		bx	lr
 798              		.cfi_endproc
 799              	.LFE346:
 801              		.section	.text.HAL_EXTI_GetHandle,"ax",%progbits
 802              		.align	1
 803              		.global	HAL_EXTI_GetHandle
 804              		.syntax unified
 805              		.thumb
 806              		.thumb_func
 807              		.fpu fpv5-d16
 809              	HAL_EXTI_GetHandle:
 810              	.LFB347:
 652:Drivers/STM32H7xx_HAL_Driver/Src/stm32h7xx_hal_exti.c **** 
 653:Drivers/STM32H7xx_HAL_Driver/Src/stm32h7xx_hal_exti.c **** 
 654:Drivers/STM32H7xx_HAL_Driver/Src/stm32h7xx_hal_exti.c **** /**
 655:Drivers/STM32H7xx_HAL_Driver/Src/stm32h7xx_hal_exti.c ****   * @brief  Store line number as handle private field.
 656:Drivers/STM32H7xx_HAL_Driver/Src/stm32h7xx_hal_exti.c ****   * @param  hexti Exti handle.
 657:Drivers/STM32H7xx_HAL_Driver/Src/stm32h7xx_hal_exti.c ****   * @param  ExtiLine Exti line number.
 658:Drivers/STM32H7xx_HAL_Driver/Src/stm32h7xx_hal_exti.c ****   *         This parameter can be from 0 to @ref EXTI_LINE_NB.
 659:Drivers/STM32H7xx_HAL_Driver/Src/stm32h7xx_hal_exti.c ****   * @retval HAL Status.
 660:Drivers/STM32H7xx_HAL_Driver/Src/stm32h7xx_hal_exti.c ****   */
 661:Drivers/STM32H7xx_HAL_Driver/Src/stm32h7xx_hal_exti.c **** HAL_StatusTypeDef HAL_EXTI_GetHandle(EXTI_HandleTypeDef *hexti, uint32_t ExtiLine)
 662:Drivers/STM32H7xx_HAL_Driver/Src/stm32h7xx_hal_exti.c **** {
 811              		.loc 1 662 0
 812              		.cfi_startproc
 813              		@ args = 0, pretend = 0, frame = 0
 814              		@ frame_needed = 0, uses_anonymous_args = 0
 815              		@ link register save eliminated.
 816              	.LVL139:
 663:Drivers/STM32H7xx_HAL_Driver/Src/stm32h7xx_hal_exti.c ****   /* Check the parameters */
 664:Drivers/STM32H7xx_HAL_Driver/Src/stm32h7xx_hal_exti.c ****   assert_param(IS_EXTI_LINE(ExtiLine));
 665:Drivers/STM32H7xx_HAL_Driver/Src/stm32h7xx_hal_exti.c **** 
 666:Drivers/STM32H7xx_HAL_Driver/Src/stm32h7xx_hal_exti.c ****   /* Check null pointer */
 667:Drivers/STM32H7xx_HAL_Driver/Src/stm32h7xx_hal_exti.c ****   if (hexti == NULL)
 817              		.loc 1 667 0
 818 0000 10B1     		cbz	r0, .L73
 668:Drivers/STM32H7xx_HAL_Driver/Src/stm32h7xx_hal_exti.c ****   {
 669:Drivers/STM32H7xx_HAL_Driver/Src/stm32h7xx_hal_exti.c ****     return HAL_ERROR;
 670:Drivers/STM32H7xx_HAL_Driver/Src/stm32h7xx_hal_exti.c ****   }
 671:Drivers/STM32H7xx_HAL_Driver/Src/stm32h7xx_hal_exti.c ****   else
 672:Drivers/STM32H7xx_HAL_Driver/Src/stm32h7xx_hal_exti.c ****   {
 673:Drivers/STM32H7xx_HAL_Driver/Src/stm32h7xx_hal_exti.c ****     /* Store line number as handle private field */
 674:Drivers/STM32H7xx_HAL_Driver/Src/stm32h7xx_hal_exti.c ****     hexti->Line = ExtiLine;
 819              		.loc 1 674 0
 820 0002 0160     		str	r1, [r0]
ARM GAS  /tmp/ccyHfJz5.s 			page 28


 675:Drivers/STM32H7xx_HAL_Driver/Src/stm32h7xx_hal_exti.c **** 
 676:Drivers/STM32H7xx_HAL_Driver/Src/stm32h7xx_hal_exti.c ****     return HAL_OK;
 821              		.loc 1 676 0
 822 0004 0020     		movs	r0, #0
 823              	.LVL140:
 824 0006 7047     		bx	lr
 825              	.LVL141:
 826              	.L73:
 669:Drivers/STM32H7xx_HAL_Driver/Src/stm32h7xx_hal_exti.c ****   }
 827              		.loc 1 669 0
 828 0008 0120     		movs	r0, #1
 829              	.LVL142:
 677:Drivers/STM32H7xx_HAL_Driver/Src/stm32h7xx_hal_exti.c ****   }
 678:Drivers/STM32H7xx_HAL_Driver/Src/stm32h7xx_hal_exti.c **** }
 830              		.loc 1 678 0
 831 000a 7047     		bx	lr
 832              		.cfi_endproc
 833              	.LFE347:
 835              		.section	.text.HAL_EXTI_IRQHandler,"ax",%progbits
 836              		.align	1
 837              		.global	HAL_EXTI_IRQHandler
 838              		.syntax unified
 839              		.thumb
 840              		.thumb_func
 841              		.fpu fpv5-d16
 843              	HAL_EXTI_IRQHandler:
 844              	.LFB348:
 679:Drivers/STM32H7xx_HAL_Driver/Src/stm32h7xx_hal_exti.c **** 
 680:Drivers/STM32H7xx_HAL_Driver/Src/stm32h7xx_hal_exti.c **** 
 681:Drivers/STM32H7xx_HAL_Driver/Src/stm32h7xx_hal_exti.c **** /**
 682:Drivers/STM32H7xx_HAL_Driver/Src/stm32h7xx_hal_exti.c ****   * @}
 683:Drivers/STM32H7xx_HAL_Driver/Src/stm32h7xx_hal_exti.c ****   */
 684:Drivers/STM32H7xx_HAL_Driver/Src/stm32h7xx_hal_exti.c **** 
 685:Drivers/STM32H7xx_HAL_Driver/Src/stm32h7xx_hal_exti.c **** /** @addtogroup EXTI_Exported_Functions_Group2
 686:Drivers/STM32H7xx_HAL_Driver/Src/stm32h7xx_hal_exti.c ****  *  @brief EXTI IO functions.
 687:Drivers/STM32H7xx_HAL_Driver/Src/stm32h7xx_hal_exti.c ****  *
 688:Drivers/STM32H7xx_HAL_Driver/Src/stm32h7xx_hal_exti.c **** @verbatim
 689:Drivers/STM32H7xx_HAL_Driver/Src/stm32h7xx_hal_exti.c ****  ===============================================================================
 690:Drivers/STM32H7xx_HAL_Driver/Src/stm32h7xx_hal_exti.c ****                        ##### IO operation functions #####
 691:Drivers/STM32H7xx_HAL_Driver/Src/stm32h7xx_hal_exti.c ****  ===============================================================================
 692:Drivers/STM32H7xx_HAL_Driver/Src/stm32h7xx_hal_exti.c **** 
 693:Drivers/STM32H7xx_HAL_Driver/Src/stm32h7xx_hal_exti.c **** @endverbatim
 694:Drivers/STM32H7xx_HAL_Driver/Src/stm32h7xx_hal_exti.c ****   * @{
 695:Drivers/STM32H7xx_HAL_Driver/Src/stm32h7xx_hal_exti.c ****   */
 696:Drivers/STM32H7xx_HAL_Driver/Src/stm32h7xx_hal_exti.c **** 
 697:Drivers/STM32H7xx_HAL_Driver/Src/stm32h7xx_hal_exti.c **** /**
 698:Drivers/STM32H7xx_HAL_Driver/Src/stm32h7xx_hal_exti.c ****   * @brief  Handle EXTI interrupt request.
 699:Drivers/STM32H7xx_HAL_Driver/Src/stm32h7xx_hal_exti.c ****   * @param  hexti Exti handle.
 700:Drivers/STM32H7xx_HAL_Driver/Src/stm32h7xx_hal_exti.c ****   * @retval none.
 701:Drivers/STM32H7xx_HAL_Driver/Src/stm32h7xx_hal_exti.c ****   */
 702:Drivers/STM32H7xx_HAL_Driver/Src/stm32h7xx_hal_exti.c **** void HAL_EXTI_IRQHandler(EXTI_HandleTypeDef *hexti)
 703:Drivers/STM32H7xx_HAL_Driver/Src/stm32h7xx_hal_exti.c **** {
 845              		.loc 1 703 0
 846              		.cfi_startproc
 847              		@ args = 0, pretend = 0, frame = 0
 848              		@ frame_needed = 0, uses_anonymous_args = 0
 849              	.LVL143:
ARM GAS  /tmp/ccyHfJz5.s 			page 29


 850 0000 10B5     		push	{r4, lr}
 851              	.LCFI10:
 852              		.cfi_def_cfa_offset 8
 853              		.cfi_offset 4, -8
 854              		.cfi_offset 14, -4
 704:Drivers/STM32H7xx_HAL_Driver/Src/stm32h7xx_hal_exti.c ****   __IO uint32_t *regaddr;
 705:Drivers/STM32H7xx_HAL_Driver/Src/stm32h7xx_hal_exti.c ****   uint32_t regval;
 706:Drivers/STM32H7xx_HAL_Driver/Src/stm32h7xx_hal_exti.c ****   uint32_t maskline;
 707:Drivers/STM32H7xx_HAL_Driver/Src/stm32h7xx_hal_exti.c ****   uint32_t offset;
 708:Drivers/STM32H7xx_HAL_Driver/Src/stm32h7xx_hal_exti.c **** 
 709:Drivers/STM32H7xx_HAL_Driver/Src/stm32h7xx_hal_exti.c ****   /* Compute line register offset and line mask */
 710:Drivers/STM32H7xx_HAL_Driver/Src/stm32h7xx_hal_exti.c ****   offset = ((hexti->Line & EXTI_REG_MASK) >> EXTI_REG_SHIFT);
 855              		.loc 1 710 0
 856 0002 0368     		ldr	r3, [r0]
 857 0004 C3F30142 		ubfx	r2, r3, #16, #2
 858              	.LVL144:
 711:Drivers/STM32H7xx_HAL_Driver/Src/stm32h7xx_hal_exti.c ****   maskline = (1UL << (hexti->Line & EXTI_PIN_MASK));
 859              		.loc 1 711 0
 860 0008 03F01F03 		and	r3, r3, #31
 861 000c 0121     		movs	r1, #1
 862 000e 01FA03F3 		lsl	r3, r1, r3
 863              	.LVL145:
 712:Drivers/STM32H7xx_HAL_Driver/Src/stm32h7xx_hal_exti.c **** 
 713:Drivers/STM32H7xx_HAL_Driver/Src/stm32h7xx_hal_exti.c **** #if defined(DUAL_CORE)
 714:Drivers/STM32H7xx_HAL_Driver/Src/stm32h7xx_hal_exti.c ****   if (HAL_GetCurrentCPUID() == CM7_CPUID)
 715:Drivers/STM32H7xx_HAL_Driver/Src/stm32h7xx_hal_exti.c ****   {
 716:Drivers/STM32H7xx_HAL_Driver/Src/stm32h7xx_hal_exti.c ****     /* Get pending register address */
 717:Drivers/STM32H7xx_HAL_Driver/Src/stm32h7xx_hal_exti.c ****     regaddr = (__IO uint32_t *)(&EXTI->PR1 + (EXTI_MODE_OFFSET * offset));
 718:Drivers/STM32H7xx_HAL_Driver/Src/stm32h7xx_hal_exti.c ****   }
 719:Drivers/STM32H7xx_HAL_Driver/Src/stm32h7xx_hal_exti.c ****   else /* Cortex-M4*/
 720:Drivers/STM32H7xx_HAL_Driver/Src/stm32h7xx_hal_exti.c ****   {
 721:Drivers/STM32H7xx_HAL_Driver/Src/stm32h7xx_hal_exti.c ****     /* Get pending register address */
 722:Drivers/STM32H7xx_HAL_Driver/Src/stm32h7xx_hal_exti.c ****     regaddr = (__IO uint32_t *)(&EXTI->C2PR1 + (EXTI_MODE_OFFSET * offset));
 723:Drivers/STM32H7xx_HAL_Driver/Src/stm32h7xx_hal_exti.c ****   }
 724:Drivers/STM32H7xx_HAL_Driver/Src/stm32h7xx_hal_exti.c **** #else
 725:Drivers/STM32H7xx_HAL_Driver/Src/stm32h7xx_hal_exti.c ****   regaddr = (__IO uint32_t *)(&EXTI->PR1 + (EXTI_MODE_OFFSET * offset));
 864              		.loc 1 725 0
 865 0012 1201     		lsls	r2, r2, #4
 866              	.LVL146:
 867 0014 0449     		ldr	r1, .L77
 868              	.LVL147:
 726:Drivers/STM32H7xx_HAL_Driver/Src/stm32h7xx_hal_exti.c **** #endif /* DUAL_CORE */
 727:Drivers/STM32H7xx_HAL_Driver/Src/stm32h7xx_hal_exti.c **** 
 728:Drivers/STM32H7xx_HAL_Driver/Src/stm32h7xx_hal_exti.c ****   /* Get pending bit  */
 729:Drivers/STM32H7xx_HAL_Driver/Src/stm32h7xx_hal_exti.c ****   regval = (*regaddr & maskline);
 869              		.loc 1 729 0
 870 0016 5458     		ldr	r4, [r2, r1]
 871              	.LVL148:
 730:Drivers/STM32H7xx_HAL_Driver/Src/stm32h7xx_hal_exti.c **** 
 731:Drivers/STM32H7xx_HAL_Driver/Src/stm32h7xx_hal_exti.c ****   if (regval != 0x00U)
 872              		.loc 1 731 0
 873 0018 1C42     		tst	r4, r3
 874 001a 03D0     		beq	.L74
 732:Drivers/STM32H7xx_HAL_Driver/Src/stm32h7xx_hal_exti.c ****   {
 733:Drivers/STM32H7xx_HAL_Driver/Src/stm32h7xx_hal_exti.c ****     /* Clear pending bit */
 734:Drivers/STM32H7xx_HAL_Driver/Src/stm32h7xx_hal_exti.c ****     *regaddr = maskline;
 875              		.loc 1 734 0
ARM GAS  /tmp/ccyHfJz5.s 			page 30


 876 001c 5350     		str	r3, [r2, r1]
 877              	.LVL149:
 735:Drivers/STM32H7xx_HAL_Driver/Src/stm32h7xx_hal_exti.c **** 
 736:Drivers/STM32H7xx_HAL_Driver/Src/stm32h7xx_hal_exti.c ****     /* Call callback */
 737:Drivers/STM32H7xx_HAL_Driver/Src/stm32h7xx_hal_exti.c ****     if (hexti->PendingCallback != NULL)
 878              		.loc 1 737 0
 879 001e 4368     		ldr	r3, [r0, #4]
 880              	.LVL150:
 881 0020 03B1     		cbz	r3, .L74
 738:Drivers/STM32H7xx_HAL_Driver/Src/stm32h7xx_hal_exti.c ****     {
 739:Drivers/STM32H7xx_HAL_Driver/Src/stm32h7xx_hal_exti.c ****       hexti->PendingCallback();
 882              		.loc 1 739 0
 883 0022 9847     		blx	r3
 884              	.LVL151:
 885              	.L74:
 740:Drivers/STM32H7xx_HAL_Driver/Src/stm32h7xx_hal_exti.c ****     }
 741:Drivers/STM32H7xx_HAL_Driver/Src/stm32h7xx_hal_exti.c ****   }
 742:Drivers/STM32H7xx_HAL_Driver/Src/stm32h7xx_hal_exti.c **** }
 886              		.loc 1 742 0
 887 0024 10BD     		pop	{r4, pc}
 888              	.L78:
 889 0026 00BF     		.align	2
 890              	.L77:
 891 0028 88000058 		.word	1476395144
 892              		.cfi_endproc
 893              	.LFE348:
 895              		.section	.text.HAL_EXTI_GetPending,"ax",%progbits
 896              		.align	1
 897              		.global	HAL_EXTI_GetPending
 898              		.syntax unified
 899              		.thumb
 900              		.thumb_func
 901              		.fpu fpv5-d16
 903              	HAL_EXTI_GetPending:
 904              	.LFB349:
 743:Drivers/STM32H7xx_HAL_Driver/Src/stm32h7xx_hal_exti.c **** 
 744:Drivers/STM32H7xx_HAL_Driver/Src/stm32h7xx_hal_exti.c **** 
 745:Drivers/STM32H7xx_HAL_Driver/Src/stm32h7xx_hal_exti.c **** /**
 746:Drivers/STM32H7xx_HAL_Driver/Src/stm32h7xx_hal_exti.c ****   * @brief  Get interrupt pending bit of a dedicated line.
 747:Drivers/STM32H7xx_HAL_Driver/Src/stm32h7xx_hal_exti.c ****   * @param  hexti Exti handle.
 748:Drivers/STM32H7xx_HAL_Driver/Src/stm32h7xx_hal_exti.c ****   * @param  Edge Specify which pending edge as to be checked.
 749:Drivers/STM32H7xx_HAL_Driver/Src/stm32h7xx_hal_exti.c ****   *         This parameter can be one of the following values:
 750:Drivers/STM32H7xx_HAL_Driver/Src/stm32h7xx_hal_exti.c ****   *           @arg @ref EXTI_TRIGGER_RISING_FALLING
 751:Drivers/STM32H7xx_HAL_Driver/Src/stm32h7xx_hal_exti.c ****   *         This parameter is kept for compatibility with other series.
 752:Drivers/STM32H7xx_HAL_Driver/Src/stm32h7xx_hal_exti.c ****   * @retval 1 if interrupt is pending else 0.
 753:Drivers/STM32H7xx_HAL_Driver/Src/stm32h7xx_hal_exti.c ****   */
 754:Drivers/STM32H7xx_HAL_Driver/Src/stm32h7xx_hal_exti.c **** uint32_t HAL_EXTI_GetPending(EXTI_HandleTypeDef *hexti, uint32_t Edge)
 755:Drivers/STM32H7xx_HAL_Driver/Src/stm32h7xx_hal_exti.c **** {
 905              		.loc 1 755 0
 906              		.cfi_startproc
 907              		@ args = 0, pretend = 0, frame = 0
 908              		@ frame_needed = 0, uses_anonymous_args = 0
 909              		@ link register save eliminated.
 910              	.LVL152:
 756:Drivers/STM32H7xx_HAL_Driver/Src/stm32h7xx_hal_exti.c ****   __IO uint32_t *regaddr;
 757:Drivers/STM32H7xx_HAL_Driver/Src/stm32h7xx_hal_exti.c ****   uint32_t regval;
 758:Drivers/STM32H7xx_HAL_Driver/Src/stm32h7xx_hal_exti.c ****   uint32_t linepos;
ARM GAS  /tmp/ccyHfJz5.s 			page 31


 759:Drivers/STM32H7xx_HAL_Driver/Src/stm32h7xx_hal_exti.c ****   uint32_t maskline;
 760:Drivers/STM32H7xx_HAL_Driver/Src/stm32h7xx_hal_exti.c ****   uint32_t offset;
 761:Drivers/STM32H7xx_HAL_Driver/Src/stm32h7xx_hal_exti.c **** 
 762:Drivers/STM32H7xx_HAL_Driver/Src/stm32h7xx_hal_exti.c ****   /* Check parameters */
 763:Drivers/STM32H7xx_HAL_Driver/Src/stm32h7xx_hal_exti.c ****   assert_param(IS_EXTI_LINE(hexti->Line));
 764:Drivers/STM32H7xx_HAL_Driver/Src/stm32h7xx_hal_exti.c ****   assert_param(IS_EXTI_CONFIG_LINE(hexti->Line));
 765:Drivers/STM32H7xx_HAL_Driver/Src/stm32h7xx_hal_exti.c ****   assert_param(IS_EXTI_PENDING_EDGE(Edge));
 766:Drivers/STM32H7xx_HAL_Driver/Src/stm32h7xx_hal_exti.c **** 
 767:Drivers/STM32H7xx_HAL_Driver/Src/stm32h7xx_hal_exti.c ****   /* compute line register offset and line mask */
 768:Drivers/STM32H7xx_HAL_Driver/Src/stm32h7xx_hal_exti.c ****   offset = ((hexti->Line & EXTI_REG_MASK) >> EXTI_REG_SHIFT);
 911              		.loc 1 768 0
 912 0000 0368     		ldr	r3, [r0]
 913 0002 C3F30141 		ubfx	r1, r3, #16, #2
 914              	.LVL153:
 769:Drivers/STM32H7xx_HAL_Driver/Src/stm32h7xx_hal_exti.c ****   linepos = (hexti->Line & EXTI_PIN_MASK);
 915              		.loc 1 769 0
 916 0006 03F01F03 		and	r3, r3, #31
 917              	.LVL154:
 770:Drivers/STM32H7xx_HAL_Driver/Src/stm32h7xx_hal_exti.c ****   maskline = (1UL << linepos);
 918              		.loc 1 770 0
 919 000a 0120     		movs	r0, #1
 920              	.LVL155:
 921 000c 00FA03F2 		lsl	r2, r0, r3
 922              	.LVL156:
 771:Drivers/STM32H7xx_HAL_Driver/Src/stm32h7xx_hal_exti.c **** 
 772:Drivers/STM32H7xx_HAL_Driver/Src/stm32h7xx_hal_exti.c **** #if defined(DUAL_CORE)
 773:Drivers/STM32H7xx_HAL_Driver/Src/stm32h7xx_hal_exti.c ****   if (HAL_GetCurrentCPUID() == CM7_CPUID)
 774:Drivers/STM32H7xx_HAL_Driver/Src/stm32h7xx_hal_exti.c ****   {
 775:Drivers/STM32H7xx_HAL_Driver/Src/stm32h7xx_hal_exti.c ****     /* Get pending register address */
 776:Drivers/STM32H7xx_HAL_Driver/Src/stm32h7xx_hal_exti.c ****     regaddr = (__IO uint32_t *)(&EXTI->PR1 + (EXTI_MODE_OFFSET * offset));
 777:Drivers/STM32H7xx_HAL_Driver/Src/stm32h7xx_hal_exti.c ****   }
 778:Drivers/STM32H7xx_HAL_Driver/Src/stm32h7xx_hal_exti.c ****   else /* Cortex-M4 */
 779:Drivers/STM32H7xx_HAL_Driver/Src/stm32h7xx_hal_exti.c ****   {
 780:Drivers/STM32H7xx_HAL_Driver/Src/stm32h7xx_hal_exti.c ****     /* Get pending register address */
 781:Drivers/STM32H7xx_HAL_Driver/Src/stm32h7xx_hal_exti.c ****     regaddr = (__IO uint32_t *)(&EXTI->C2PR1 + (EXTI_MODE_OFFSET * offset));
 782:Drivers/STM32H7xx_HAL_Driver/Src/stm32h7xx_hal_exti.c ****   }
 783:Drivers/STM32H7xx_HAL_Driver/Src/stm32h7xx_hal_exti.c **** #else
 784:Drivers/STM32H7xx_HAL_Driver/Src/stm32h7xx_hal_exti.c ****   regaddr = (__IO uint32_t *)(&EXTI->PR1 + (EXTI_MODE_OFFSET * offset));
 923              		.loc 1 784 0
 924 0010 0901     		lsls	r1, r1, #4
 925              	.LVL157:
 926 0012 0248     		ldr	r0, .L80
 927              	.LVL158:
 785:Drivers/STM32H7xx_HAL_Driver/Src/stm32h7xx_hal_exti.c **** #endif /* DUAL_CORE */
 786:Drivers/STM32H7xx_HAL_Driver/Src/stm32h7xx_hal_exti.c **** 
 787:Drivers/STM32H7xx_HAL_Driver/Src/stm32h7xx_hal_exti.c ****   /* return 1 if bit is set else 0 */
 788:Drivers/STM32H7xx_HAL_Driver/Src/stm32h7xx_hal_exti.c ****   regval = ((*regaddr & maskline) >> linepos);
 928              		.loc 1 788 0
 929 0014 0858     		ldr	r0, [r1, r0]
 930              	.LVL159:
 931 0016 1040     		ands	r0, r0, r2
 932              	.LVL160:
 789:Drivers/STM32H7xx_HAL_Driver/Src/stm32h7xx_hal_exti.c ****   return regval;
 790:Drivers/STM32H7xx_HAL_Driver/Src/stm32h7xx_hal_exti.c **** }
 933              		.loc 1 790 0
 934 0018 D840     		lsrs	r0, r0, r3
 935              	.LVL161:
ARM GAS  /tmp/ccyHfJz5.s 			page 32


 936 001a 7047     		bx	lr
 937              	.L81:
 938              		.align	2
 939              	.L80:
 940 001c 88000058 		.word	1476395144
 941              		.cfi_endproc
 942              	.LFE349:
 944              		.section	.text.HAL_EXTI_ClearPending,"ax",%progbits
 945              		.align	1
 946              		.global	HAL_EXTI_ClearPending
 947              		.syntax unified
 948              		.thumb
 949              		.thumb_func
 950              		.fpu fpv5-d16
 952              	HAL_EXTI_ClearPending:
 953              	.LFB350:
 791:Drivers/STM32H7xx_HAL_Driver/Src/stm32h7xx_hal_exti.c **** 
 792:Drivers/STM32H7xx_HAL_Driver/Src/stm32h7xx_hal_exti.c **** 
 793:Drivers/STM32H7xx_HAL_Driver/Src/stm32h7xx_hal_exti.c **** /**
 794:Drivers/STM32H7xx_HAL_Driver/Src/stm32h7xx_hal_exti.c ****   * @brief  Clear interrupt pending bit of a dedicated line.
 795:Drivers/STM32H7xx_HAL_Driver/Src/stm32h7xx_hal_exti.c ****   * @param  hexti Exti handle.
 796:Drivers/STM32H7xx_HAL_Driver/Src/stm32h7xx_hal_exti.c ****   * @param  Edge Specify which pending edge as to be clear.
 797:Drivers/STM32H7xx_HAL_Driver/Src/stm32h7xx_hal_exti.c ****   *         This parameter can be one of the following values:
 798:Drivers/STM32H7xx_HAL_Driver/Src/stm32h7xx_hal_exti.c ****   *           @arg @ref EXTI_TRIGGER_RISING_FALLING
 799:Drivers/STM32H7xx_HAL_Driver/Src/stm32h7xx_hal_exti.c ****   *         This parameter is kept for compatibility with other series.
 800:Drivers/STM32H7xx_HAL_Driver/Src/stm32h7xx_hal_exti.c ****   * @retval None.
 801:Drivers/STM32H7xx_HAL_Driver/Src/stm32h7xx_hal_exti.c ****   */
 802:Drivers/STM32H7xx_HAL_Driver/Src/stm32h7xx_hal_exti.c **** void HAL_EXTI_ClearPending(EXTI_HandleTypeDef *hexti, uint32_t Edge)
 803:Drivers/STM32H7xx_HAL_Driver/Src/stm32h7xx_hal_exti.c **** {
 954              		.loc 1 803 0
 955              		.cfi_startproc
 956              		@ args = 0, pretend = 0, frame = 0
 957              		@ frame_needed = 0, uses_anonymous_args = 0
 958              		@ link register save eliminated.
 959              	.LVL162:
 804:Drivers/STM32H7xx_HAL_Driver/Src/stm32h7xx_hal_exti.c ****   __IO uint32_t *regaddr;
 805:Drivers/STM32H7xx_HAL_Driver/Src/stm32h7xx_hal_exti.c ****   uint32_t maskline;
 806:Drivers/STM32H7xx_HAL_Driver/Src/stm32h7xx_hal_exti.c ****   uint32_t offset;
 807:Drivers/STM32H7xx_HAL_Driver/Src/stm32h7xx_hal_exti.c **** 
 808:Drivers/STM32H7xx_HAL_Driver/Src/stm32h7xx_hal_exti.c ****   /* Check parameters */
 809:Drivers/STM32H7xx_HAL_Driver/Src/stm32h7xx_hal_exti.c ****   assert_param(IS_EXTI_LINE(hexti->Line));
 810:Drivers/STM32H7xx_HAL_Driver/Src/stm32h7xx_hal_exti.c ****   assert_param(IS_EXTI_CONFIG_LINE(hexti->Line));
 811:Drivers/STM32H7xx_HAL_Driver/Src/stm32h7xx_hal_exti.c ****   assert_param(IS_EXTI_PENDING_EDGE(Edge));
 812:Drivers/STM32H7xx_HAL_Driver/Src/stm32h7xx_hal_exti.c **** 
 813:Drivers/STM32H7xx_HAL_Driver/Src/stm32h7xx_hal_exti.c ****   /* compute line register offset and line mask */
 814:Drivers/STM32H7xx_HAL_Driver/Src/stm32h7xx_hal_exti.c ****   offset = ((hexti->Line & EXTI_REG_MASK) >> EXTI_REG_SHIFT);
 960              		.loc 1 814 0
 961 0000 0368     		ldr	r3, [r0]
 962 0002 C3F30142 		ubfx	r2, r3, #16, #2
 963              	.LVL163:
 815:Drivers/STM32H7xx_HAL_Driver/Src/stm32h7xx_hal_exti.c ****   maskline = (1UL << (hexti->Line & EXTI_PIN_MASK));
 964              		.loc 1 815 0
 965 0006 03F01F03 		and	r3, r3, #31
 966 000a 0121     		movs	r1, #1
 967              	.LVL164:
 968 000c 01FA03F3 		lsl	r3, r1, r3
 969              	.LVL165:
ARM GAS  /tmp/ccyHfJz5.s 			page 33


 816:Drivers/STM32H7xx_HAL_Driver/Src/stm32h7xx_hal_exti.c **** 
 817:Drivers/STM32H7xx_HAL_Driver/Src/stm32h7xx_hal_exti.c **** #if defined(DUAL_CORE)
 818:Drivers/STM32H7xx_HAL_Driver/Src/stm32h7xx_hal_exti.c ****   if (HAL_GetCurrentCPUID() == CM7_CPUID)
 819:Drivers/STM32H7xx_HAL_Driver/Src/stm32h7xx_hal_exti.c ****   {
 820:Drivers/STM32H7xx_HAL_Driver/Src/stm32h7xx_hal_exti.c ****     /* Get pending register address */
 821:Drivers/STM32H7xx_HAL_Driver/Src/stm32h7xx_hal_exti.c ****     regaddr = (__IO uint32_t *)(&EXTI->PR1 + (EXTI_MODE_OFFSET * offset));
 822:Drivers/STM32H7xx_HAL_Driver/Src/stm32h7xx_hal_exti.c ****   }
 823:Drivers/STM32H7xx_HAL_Driver/Src/stm32h7xx_hal_exti.c ****   else /* Cortex-M4 */
 824:Drivers/STM32H7xx_HAL_Driver/Src/stm32h7xx_hal_exti.c ****   {
 825:Drivers/STM32H7xx_HAL_Driver/Src/stm32h7xx_hal_exti.c ****     /* Get pending register address */
 826:Drivers/STM32H7xx_HAL_Driver/Src/stm32h7xx_hal_exti.c ****     regaddr = (__IO uint32_t *)(&EXTI->C2PR1 + (EXTI_MODE_OFFSET * offset));
 827:Drivers/STM32H7xx_HAL_Driver/Src/stm32h7xx_hal_exti.c ****   }
 828:Drivers/STM32H7xx_HAL_Driver/Src/stm32h7xx_hal_exti.c **** #else
 829:Drivers/STM32H7xx_HAL_Driver/Src/stm32h7xx_hal_exti.c ****   regaddr = (__IO uint32_t *)(&EXTI->PR1 + (EXTI_MODE_OFFSET * offset));
 970              		.loc 1 829 0
 971 0010 1201     		lsls	r2, r2, #4
 972              	.LVL166:
 973 0012 0149     		ldr	r1, .L83
 974              	.LVL167:
 830:Drivers/STM32H7xx_HAL_Driver/Src/stm32h7xx_hal_exti.c **** #endif /* DUAL_CORE */
 831:Drivers/STM32H7xx_HAL_Driver/Src/stm32h7xx_hal_exti.c **** 
 832:Drivers/STM32H7xx_HAL_Driver/Src/stm32h7xx_hal_exti.c ****   /* Clear Pending bit */
 833:Drivers/STM32H7xx_HAL_Driver/Src/stm32h7xx_hal_exti.c ****   *regaddr =  maskline;
 975              		.loc 1 833 0
 976 0014 5350     		str	r3, [r2, r1]
 977              	.LVL168:
 834:Drivers/STM32H7xx_HAL_Driver/Src/stm32h7xx_hal_exti.c **** }
 978              		.loc 1 834 0
 979 0016 7047     		bx	lr
 980              	.L84:
 981              		.align	2
 982              	.L83:
 983 0018 88000058 		.word	1476395144
 984              		.cfi_endproc
 985              	.LFE350:
 987              		.section	.text.HAL_EXTI_GenerateSWI,"ax",%progbits
 988              		.align	1
 989              		.global	HAL_EXTI_GenerateSWI
 990              		.syntax unified
 991              		.thumb
 992              		.thumb_func
 993              		.fpu fpv5-d16
 995              	HAL_EXTI_GenerateSWI:
 996              	.LFB351:
 835:Drivers/STM32H7xx_HAL_Driver/Src/stm32h7xx_hal_exti.c **** 
 836:Drivers/STM32H7xx_HAL_Driver/Src/stm32h7xx_hal_exti.c **** /**
 837:Drivers/STM32H7xx_HAL_Driver/Src/stm32h7xx_hal_exti.c ****   * @brief  Generate a software interrupt for a dedicated line.
 838:Drivers/STM32H7xx_HAL_Driver/Src/stm32h7xx_hal_exti.c ****   * @param  hexti Exti handle.
 839:Drivers/STM32H7xx_HAL_Driver/Src/stm32h7xx_hal_exti.c ****   * @retval None.
 840:Drivers/STM32H7xx_HAL_Driver/Src/stm32h7xx_hal_exti.c ****   */
 841:Drivers/STM32H7xx_HAL_Driver/Src/stm32h7xx_hal_exti.c **** void HAL_EXTI_GenerateSWI(EXTI_HandleTypeDef *hexti)
 842:Drivers/STM32H7xx_HAL_Driver/Src/stm32h7xx_hal_exti.c **** {
 997              		.loc 1 842 0
 998              		.cfi_startproc
 999              		@ args = 0, pretend = 0, frame = 0
 1000              		@ frame_needed = 0, uses_anonymous_args = 0
 1001              		@ link register save eliminated.
ARM GAS  /tmp/ccyHfJz5.s 			page 34


 1002              	.LVL169:
 843:Drivers/STM32H7xx_HAL_Driver/Src/stm32h7xx_hal_exti.c ****   __IO uint32_t *regaddr;
 844:Drivers/STM32H7xx_HAL_Driver/Src/stm32h7xx_hal_exti.c ****   uint32_t maskline;
 845:Drivers/STM32H7xx_HAL_Driver/Src/stm32h7xx_hal_exti.c ****   uint32_t offset;
 846:Drivers/STM32H7xx_HAL_Driver/Src/stm32h7xx_hal_exti.c **** 
 847:Drivers/STM32H7xx_HAL_Driver/Src/stm32h7xx_hal_exti.c ****   /* Check parameters */
 848:Drivers/STM32H7xx_HAL_Driver/Src/stm32h7xx_hal_exti.c ****   assert_param(IS_EXTI_LINE(hexti->Line));
 849:Drivers/STM32H7xx_HAL_Driver/Src/stm32h7xx_hal_exti.c ****   assert_param(IS_EXTI_CONFIG_LINE(hexti->Line));
 850:Drivers/STM32H7xx_HAL_Driver/Src/stm32h7xx_hal_exti.c **** 
 851:Drivers/STM32H7xx_HAL_Driver/Src/stm32h7xx_hal_exti.c ****   /* compute line register offset and line mask */
 852:Drivers/STM32H7xx_HAL_Driver/Src/stm32h7xx_hal_exti.c ****   offset = ((hexti->Line & EXTI_REG_MASK) >> EXTI_REG_SHIFT);
 1003              		.loc 1 852 0
 1004 0000 0368     		ldr	r3, [r0]
 1005 0002 C3F30142 		ubfx	r2, r3, #16, #2
 1006              	.LVL170:
 853:Drivers/STM32H7xx_HAL_Driver/Src/stm32h7xx_hal_exti.c ****   maskline = (1UL << (hexti->Line & EXTI_PIN_MASK));
 1007              		.loc 1 853 0
 1008 0006 03F01F03 		and	r3, r3, #31
 1009 000a 0121     		movs	r1, #1
 1010 000c 01FA03F3 		lsl	r3, r1, r3
 1011              	.LVL171:
 854:Drivers/STM32H7xx_HAL_Driver/Src/stm32h7xx_hal_exti.c **** 
 855:Drivers/STM32H7xx_HAL_Driver/Src/stm32h7xx_hal_exti.c ****   regaddr = (__IO uint32_t *)(&EXTI->SWIER1 + (EXTI_CONFIG_OFFSET * offset));
 1012              		.loc 1 855 0
 1013 0010 5201     		lsls	r2, r2, #5
 1014              	.LVL172:
 1015 0012 0149     		ldr	r1, .L86
 1016              	.LVL173:
 856:Drivers/STM32H7xx_HAL_Driver/Src/stm32h7xx_hal_exti.c ****   *regaddr = maskline;
 1017              		.loc 1 856 0
 1018 0014 5350     		str	r3, [r2, r1]
 1019              	.LVL174:
 857:Drivers/STM32H7xx_HAL_Driver/Src/stm32h7xx_hal_exti.c **** }
 1020              		.loc 1 857 0
 1021 0016 7047     		bx	lr
 1022              	.L87:
 1023              		.align	2
 1024              	.L86:
 1025 0018 08000058 		.word	1476395016
 1026              		.cfi_endproc
 1027              	.LFE351:
 1029              		.text
 1030              	.Letext0:
 1031              		.file 2 "/usr/include/newlib/machine/_default_types.h"
 1032              		.file 3 "/usr/include/newlib/sys/_stdint.h"
 1033              		.file 4 "Drivers/CMSIS/Include/core_cm7.h"
 1034              		.file 5 "Drivers/CMSIS/Device/ST/STM32H7xx/Include/system_stm32h7xx.h"
 1035              		.file 6 "Drivers/CMSIS/Device/ST/STM32H7xx/Include/stm32h723xx.h"
 1036              		.file 7 "/usr/include/newlib/sys/lock.h"
 1037              		.file 8 "/usr/include/newlib/sys/_types.h"
 1038              		.file 9 "/usr/lib/gcc/arm-none-eabi/7.3.1/include/stddef.h"
 1039              		.file 10 "/usr/include/newlib/sys/reent.h"
 1040              		.file 11 "/usr/include/newlib/math.h"
 1041              		.file 12 "Drivers/STM32H7xx_HAL_Driver/Inc/stm32h7xx_hal_def.h"
 1042              		.file 13 "Drivers/STM32H7xx_HAL_Driver/Inc/stm32h7xx_hal_exti.h"
 1043              		.file 14 "Drivers/STM32H7xx_HAL_Driver/Inc/stm32h7xx_hal_flash.h"
 1044              		.file 15 "Drivers/STM32H7xx_HAL_Driver/Inc/stm32h7xx_hal_uart.h"
ARM GAS  /tmp/ccyHfJz5.s 			page 35


 1045              		.file 16 "Drivers/STM32H7xx_HAL_Driver/Inc/stm32h7xx_hal.h"
ARM GAS  /tmp/ccyHfJz5.s 			page 36

