ARM GAS  /tmp/cc2zdldh.s 			page 1


   1              		.cpu cortex-m7
   2              		.eabi_attribute 28, 1
   3              		.eabi_attribute 20, 1
   4              		.eabi_attribute 21, 1
   5              		.eabi_attribute 23, 3
   6              		.eabi_attribute 24, 1
   7              		.eabi_attribute 25, 1
   8              		.eabi_attribute 26, 1
   9              		.eabi_attribute 30, 1
  10              		.eabi_attribute 34, 1
  11              		.eabi_attribute 18, 4
  12              		.file	"usart.c"
  13              		.text
  14              	.Ltext0:
  15              		.cfi_sections	.debug_frame
  16              		.section	.text.MX_LPUART1_UART_Init,"ax",%progbits
  17              		.align	1
  18              		.global	MX_LPUART1_UART_Init
  19              		.syntax unified
  20              		.thumb
  21              		.thumb_func
  22              		.fpu fpv5-d16
  24              	MX_LPUART1_UART_Init:
  25              	.LFB343:
  26              		.file 1 "Core/Src/usart.c"
   1:Core/Src/usart.c **** /**
   2:Core/Src/usart.c ****   ******************************************************************************
   3:Core/Src/usart.c ****   * @file    usart.c
   4:Core/Src/usart.c ****   * @brief   This file provides code for the configuration
   5:Core/Src/usart.c ****   *          of the USART instances.
   6:Core/Src/usart.c ****   ******************************************************************************
   7:Core/Src/usart.c ****   * @attention
   8:Core/Src/usart.c ****   *
   9:Core/Src/usart.c ****   * <h2><center>&copy; Copyright (c) 2021 STMicroelectronics.
  10:Core/Src/usart.c ****   * All rights reserved.</center></h2>
  11:Core/Src/usart.c ****   *
  12:Core/Src/usart.c ****   * This software component is licensed by ST under BSD 3-Clause license,
  13:Core/Src/usart.c ****   * the "License"; You may not use this file except in compliance with the
  14:Core/Src/usart.c ****   * License. You may obtain a copy of the License at:
  15:Core/Src/usart.c ****   *                        opensource.org/licenses/BSD-3-Clause
  16:Core/Src/usart.c ****   *
  17:Core/Src/usart.c ****   ******************************************************************************
  18:Core/Src/usart.c ****   */
  19:Core/Src/usart.c **** 
  20:Core/Src/usart.c **** /* Includes ------------------------------------------------------------------*/
  21:Core/Src/usart.c **** #include "usart.h"
  22:Core/Src/usart.c **** 
  23:Core/Src/usart.c **** /* USER CODE BEGIN 0 */
  24:Core/Src/usart.c **** 
  25:Core/Src/usart.c **** /* USER CODE END 0 */
  26:Core/Src/usart.c **** 
  27:Core/Src/usart.c **** UART_HandleTypeDef hlpuart1;
  28:Core/Src/usart.c **** 
  29:Core/Src/usart.c **** /* LPUART1 init function */
  30:Core/Src/usart.c **** 
  31:Core/Src/usart.c **** void MX_LPUART1_UART_Init(void)
  32:Core/Src/usart.c **** {
ARM GAS  /tmp/cc2zdldh.s 			page 2


  27              		.loc 1 32 0
  28              		.cfi_startproc
  29              		@ args = 0, pretend = 0, frame = 0
  30              		@ frame_needed = 0, uses_anonymous_args = 0
  31 0000 08B5     		push	{r3, lr}
  32              	.LCFI0:
  33              		.cfi_def_cfa_offset 8
  34              		.cfi_offset 3, -8
  35              		.cfi_offset 14, -4
  33:Core/Src/usart.c **** 
  34:Core/Src/usart.c ****   hlpuart1.Instance = LPUART1;
  36              		.loc 1 34 0
  37 0002 1748     		ldr	r0, .L11
  38 0004 174B     		ldr	r3, .L11+4
  39 0006 0360     		str	r3, [r0]
  35:Core/Src/usart.c ****   hlpuart1.Init.BaudRate = 209700;
  40              		.loc 1 35 0
  41 0008 174B     		ldr	r3, .L11+8
  42 000a 4360     		str	r3, [r0, #4]
  36:Core/Src/usart.c ****   hlpuart1.Init.WordLength = UART_WORDLENGTH_8B;
  43              		.loc 1 36 0
  44 000c 0023     		movs	r3, #0
  45 000e 8360     		str	r3, [r0, #8]
  37:Core/Src/usart.c ****   hlpuart1.Init.StopBits = UART_STOPBITS_1;
  46              		.loc 1 37 0
  47 0010 C360     		str	r3, [r0, #12]
  38:Core/Src/usart.c ****   hlpuart1.Init.Parity = UART_PARITY_NONE;
  48              		.loc 1 38 0
  49 0012 0361     		str	r3, [r0, #16]
  39:Core/Src/usart.c ****   hlpuart1.Init.Mode = UART_MODE_TX_RX;
  50              		.loc 1 39 0
  51 0014 0C22     		movs	r2, #12
  52 0016 4261     		str	r2, [r0, #20]
  40:Core/Src/usart.c ****   hlpuart1.Init.HwFlowCtl = UART_HWCONTROL_NONE;
  53              		.loc 1 40 0
  54 0018 8361     		str	r3, [r0, #24]
  41:Core/Src/usart.c ****   hlpuart1.Init.OneBitSampling = UART_ONE_BIT_SAMPLE_DISABLE;
  55              		.loc 1 41 0
  56 001a 0362     		str	r3, [r0, #32]
  42:Core/Src/usart.c ****   hlpuart1.Init.ClockPrescaler = UART_PRESCALER_DIV1;
  57              		.loc 1 42 0
  58 001c 4362     		str	r3, [r0, #36]
  43:Core/Src/usart.c ****   hlpuart1.AdvancedInit.AdvFeatureInit = UART_ADVFEATURE_NO_INIT;
  59              		.loc 1 43 0
  60 001e 8362     		str	r3, [r0, #40]
  44:Core/Src/usart.c ****   hlpuart1.FifoMode = UART_FIFOMODE_DISABLE;
  61              		.loc 1 44 0
  62 0020 4366     		str	r3, [r0, #100]
  45:Core/Src/usart.c ****   if (HAL_UART_Init(&hlpuart1) != HAL_OK)
  63              		.loc 1 45 0
  64 0022 FFF7FEFF 		bl	HAL_UART_Init
  65              	.LVL0:
  66 0026 70B9     		cbnz	r0, .L7
  67              	.L2:
  46:Core/Src/usart.c ****   {
  47:Core/Src/usart.c ****     Error_Handler();
  48:Core/Src/usart.c ****   }
ARM GAS  /tmp/cc2zdldh.s 			page 3


  49:Core/Src/usart.c ****   if (HAL_UARTEx_SetTxFifoThreshold(&hlpuart1, UART_TXFIFO_THRESHOLD_1_8) != HAL_OK)
  68              		.loc 1 49 0
  69 0028 0021     		movs	r1, #0
  70 002a 0D48     		ldr	r0, .L11
  71 002c FFF7FEFF 		bl	HAL_UARTEx_SetTxFifoThreshold
  72              	.LVL1:
  73 0030 60B9     		cbnz	r0, .L8
  74              	.L3:
  50:Core/Src/usart.c ****   {
  51:Core/Src/usart.c ****     Error_Handler();
  52:Core/Src/usart.c ****   }
  53:Core/Src/usart.c ****   if (HAL_UARTEx_SetRxFifoThreshold(&hlpuart1, UART_RXFIFO_THRESHOLD_1_8) != HAL_OK)
  75              		.loc 1 53 0
  76 0032 0021     		movs	r1, #0
  77 0034 0A48     		ldr	r0, .L11
  78 0036 FFF7FEFF 		bl	HAL_UARTEx_SetRxFifoThreshold
  79              	.LVL2:
  80 003a 50B9     		cbnz	r0, .L9
  81              	.L4:
  54:Core/Src/usart.c ****   {
  55:Core/Src/usart.c ****     Error_Handler();
  56:Core/Src/usart.c ****   }
  57:Core/Src/usart.c ****   if (HAL_UARTEx_DisableFifoMode(&hlpuart1) != HAL_OK)
  82              		.loc 1 57 0
  83 003c 0848     		ldr	r0, .L11
  84 003e FFF7FEFF 		bl	HAL_UARTEx_DisableFifoMode
  85              	.LVL3:
  86 0042 48B9     		cbnz	r0, .L10
  87              	.L1:
  58:Core/Src/usart.c ****   {
  59:Core/Src/usart.c ****     Error_Handler();
  60:Core/Src/usart.c ****   }
  61:Core/Src/usart.c **** 
  62:Core/Src/usart.c **** }
  88              		.loc 1 62 0
  89 0044 08BD     		pop	{r3, pc}
  90              	.L7:
  47:Core/Src/usart.c ****   }
  91              		.loc 1 47 0
  92 0046 FFF7FEFF 		bl	Error_Handler
  93              	.LVL4:
  94 004a EDE7     		b	.L2
  95              	.L8:
  51:Core/Src/usart.c ****   }
  96              		.loc 1 51 0
  97 004c FFF7FEFF 		bl	Error_Handler
  98              	.LVL5:
  99 0050 EFE7     		b	.L3
 100              	.L9:
  55:Core/Src/usart.c ****   }
 101              		.loc 1 55 0
 102 0052 FFF7FEFF 		bl	Error_Handler
 103              	.LVL6:
 104 0056 F1E7     		b	.L4
 105              	.L10:
  59:Core/Src/usart.c ****   }
 106              		.loc 1 59 0
ARM GAS  /tmp/cc2zdldh.s 			page 4


 107 0058 FFF7FEFF 		bl	Error_Handler
 108              	.LVL7:
 109              		.loc 1 62 0
 110 005c F2E7     		b	.L1
 111              	.L12:
 112 005e 00BF     		.align	2
 113              	.L11:
 114 0060 00000000 		.word	hlpuart1
 115 0064 000C0058 		.word	1476398080
 116 0068 24330300 		.word	209700
 117              		.cfi_endproc
 118              	.LFE343:
 120              		.section	.text.HAL_UART_MspInit,"ax",%progbits
 121              		.align	1
 122              		.global	HAL_UART_MspInit
 123              		.syntax unified
 124              		.thumb
 125              		.thumb_func
 126              		.fpu fpv5-d16
 128              	HAL_UART_MspInit:
 129              	.LFB344:
  63:Core/Src/usart.c **** 
  64:Core/Src/usart.c **** void HAL_UART_MspInit(UART_HandleTypeDef* uartHandle)
  65:Core/Src/usart.c **** {
 130              		.loc 1 65 0
 131              		.cfi_startproc
 132              		@ args = 0, pretend = 0, frame = 32
 133              		@ frame_needed = 0, uses_anonymous_args = 0
 134              	.LVL8:
 135 0000 00B5     		push	{lr}
 136              	.LCFI1:
 137              		.cfi_def_cfa_offset 4
 138              		.cfi_offset 14, -4
 139 0002 89B0     		sub	sp, sp, #36
 140              	.LCFI2:
 141              		.cfi_def_cfa_offset 40
  66:Core/Src/usart.c **** 
  67:Core/Src/usart.c ****   GPIO_InitTypeDef GPIO_InitStruct = {0};
 142              		.loc 1 67 0
 143 0004 0023     		movs	r3, #0
 144 0006 0393     		str	r3, [sp, #12]
 145 0008 0493     		str	r3, [sp, #16]
 146 000a 0593     		str	r3, [sp, #20]
 147 000c 0693     		str	r3, [sp, #24]
 148 000e 0793     		str	r3, [sp, #28]
  68:Core/Src/usart.c ****   if(uartHandle->Instance==LPUART1)
 149              		.loc 1 68 0
 150 0010 0268     		ldr	r2, [r0]
 151 0012 164B     		ldr	r3, .L17
 152 0014 9A42     		cmp	r2, r3
 153 0016 02D0     		beq	.L16
 154              	.LVL9:
 155              	.L13:
  69:Core/Src/usart.c ****   {
  70:Core/Src/usart.c ****   /* USER CODE BEGIN LPUART1_MspInit 0 */
  71:Core/Src/usart.c **** 
  72:Core/Src/usart.c ****   /* USER CODE END LPUART1_MspInit 0 */
ARM GAS  /tmp/cc2zdldh.s 			page 5


  73:Core/Src/usart.c ****     /* LPUART1 clock enable */
  74:Core/Src/usart.c ****     __HAL_RCC_LPUART1_CLK_ENABLE();
  75:Core/Src/usart.c **** 
  76:Core/Src/usart.c ****     __HAL_RCC_GPIOA_CLK_ENABLE();
  77:Core/Src/usart.c ****     /**LPUART1 GPIO Configuration
  78:Core/Src/usart.c ****     PA9     ------> LPUART1_TX
  79:Core/Src/usart.c ****     PA10     ------> LPUART1_RX
  80:Core/Src/usart.c ****     */
  81:Core/Src/usart.c ****     GPIO_InitStruct.Pin = LPUART1_TX_GPS_Pin|LPUART1_RX_GPS_Pin;
  82:Core/Src/usart.c ****     GPIO_InitStruct.Mode = GPIO_MODE_AF_PP;
  83:Core/Src/usart.c ****     GPIO_InitStruct.Pull = GPIO_NOPULL;
  84:Core/Src/usart.c ****     GPIO_InitStruct.Speed = GPIO_SPEED_FREQ_LOW;
  85:Core/Src/usart.c ****     GPIO_InitStruct.Alternate = GPIO_AF3_LPUART;
  86:Core/Src/usart.c ****     HAL_GPIO_Init(GPIOA, &GPIO_InitStruct);
  87:Core/Src/usart.c **** 
  88:Core/Src/usart.c ****   /* USER CODE BEGIN LPUART1_MspInit 1 */
  89:Core/Src/usart.c **** 
  90:Core/Src/usart.c ****   /* USER CODE END LPUART1_MspInit 1 */
  91:Core/Src/usart.c ****   }
  92:Core/Src/usart.c **** }
 156              		.loc 1 92 0
 157 0018 09B0     		add	sp, sp, #36
 158              	.LCFI3:
 159              		.cfi_remember_state
 160              		.cfi_def_cfa_offset 4
 161              		@ sp needed
 162 001a 5DF804FB 		ldr	pc, [sp], #4
 163              	.LVL10:
 164              	.L16:
 165              	.LCFI4:
 166              		.cfi_restore_state
 167              	.LBB2:
  74:Core/Src/usart.c **** 
 168              		.loc 1 74 0
 169 001e 03F50E33 		add	r3, r3, #145408
 170 0022 D3F8F420 		ldr	r2, [r3, #244]
 171 0026 42F00802 		orr	r2, r2, #8
 172 002a C3F8F420 		str	r2, [r3, #244]
 173 002e D3F8F420 		ldr	r2, [r3, #244]
 174 0032 02F00802 		and	r2, r2, #8
 175 0036 0192     		str	r2, [sp, #4]
 176 0038 019A     		ldr	r2, [sp, #4]
 177              	.LBE2:
 178              	.LBB3:
  76:Core/Src/usart.c ****     /**LPUART1 GPIO Configuration
 179              		.loc 1 76 0
 180 003a D3F8E020 		ldr	r2, [r3, #224]
 181 003e 42F00102 		orr	r2, r2, #1
 182 0042 C3F8E020 		str	r2, [r3, #224]
 183 0046 D3F8E030 		ldr	r3, [r3, #224]
 184 004a 03F00103 		and	r3, r3, #1
 185 004e 0293     		str	r3, [sp, #8]
 186 0050 029B     		ldr	r3, [sp, #8]
 187              	.LBE3:
  81:Core/Src/usart.c ****     GPIO_InitStruct.Mode = GPIO_MODE_AF_PP;
 188              		.loc 1 81 0
 189 0052 4FF4C063 		mov	r3, #1536
ARM GAS  /tmp/cc2zdldh.s 			page 6


 190 0056 0393     		str	r3, [sp, #12]
  82:Core/Src/usart.c ****     GPIO_InitStruct.Pull = GPIO_NOPULL;
 191              		.loc 1 82 0
 192 0058 0223     		movs	r3, #2
 193 005a 0493     		str	r3, [sp, #16]
  85:Core/Src/usart.c ****     HAL_GPIO_Init(GPIOA, &GPIO_InitStruct);
 194              		.loc 1 85 0
 195 005c 0323     		movs	r3, #3
 196 005e 0793     		str	r3, [sp, #28]
  86:Core/Src/usart.c **** 
 197              		.loc 1 86 0
 198 0060 03A9     		add	r1, sp, #12
 199 0062 0348     		ldr	r0, .L17+4
 200              	.LVL11:
 201 0064 FFF7FEFF 		bl	HAL_GPIO_Init
 202              	.LVL12:
 203              		.loc 1 92 0
 204 0068 D6E7     		b	.L13
 205              	.L18:
 206 006a 00BF     		.align	2
 207              	.L17:
 208 006c 000C0058 		.word	1476398080
 209 0070 00000258 		.word	1476526080
 210              		.cfi_endproc
 211              	.LFE344:
 213              		.section	.text.HAL_UART_MspDeInit,"ax",%progbits
 214              		.align	1
 215              		.global	HAL_UART_MspDeInit
 216              		.syntax unified
 217              		.thumb
 218              		.thumb_func
 219              		.fpu fpv5-d16
 221              	HAL_UART_MspDeInit:
 222              	.LFB345:
  93:Core/Src/usart.c **** 
  94:Core/Src/usart.c **** void HAL_UART_MspDeInit(UART_HandleTypeDef* uartHandle)
  95:Core/Src/usart.c **** {
 223              		.loc 1 95 0
 224              		.cfi_startproc
 225              		@ args = 0, pretend = 0, frame = 0
 226              		@ frame_needed = 0, uses_anonymous_args = 0
 227              	.LVL13:
 228 0000 08B5     		push	{r3, lr}
 229              	.LCFI5:
 230              		.cfi_def_cfa_offset 8
 231              		.cfi_offset 3, -8
 232              		.cfi_offset 14, -4
  96:Core/Src/usart.c **** 
  97:Core/Src/usart.c ****   if(uartHandle->Instance==LPUART1)
 233              		.loc 1 97 0
 234 0002 0268     		ldr	r2, [r0]
 235 0004 084B     		ldr	r3, .L23
 236 0006 9A42     		cmp	r2, r3
 237 0008 00D0     		beq	.L22
 238              	.LVL14:
 239              	.L19:
  98:Core/Src/usart.c ****   {
ARM GAS  /tmp/cc2zdldh.s 			page 7


  99:Core/Src/usart.c ****   /* USER CODE BEGIN LPUART1_MspDeInit 0 */
 100:Core/Src/usart.c **** 
 101:Core/Src/usart.c ****   /* USER CODE END LPUART1_MspDeInit 0 */
 102:Core/Src/usart.c ****     /* Peripheral clock disable */
 103:Core/Src/usart.c ****     __HAL_RCC_LPUART1_CLK_DISABLE();
 104:Core/Src/usart.c **** 
 105:Core/Src/usart.c ****     /**LPUART1 GPIO Configuration
 106:Core/Src/usart.c ****     PA9     ------> LPUART1_TX
 107:Core/Src/usart.c ****     PA10     ------> LPUART1_RX
 108:Core/Src/usart.c ****     */
 109:Core/Src/usart.c ****     HAL_GPIO_DeInit(GPIOA, LPUART1_TX_GPS_Pin|LPUART1_RX_GPS_Pin);
 110:Core/Src/usart.c **** 
 111:Core/Src/usart.c ****   /* USER CODE BEGIN LPUART1_MspDeInit 1 */
 112:Core/Src/usart.c **** 
 113:Core/Src/usart.c ****   /* USER CODE END LPUART1_MspDeInit 1 */
 114:Core/Src/usart.c ****   }
 115:Core/Src/usart.c **** }
 240              		.loc 1 115 0
 241 000a 08BD     		pop	{r3, pc}
 242              	.LVL15:
 243              	.L22:
 103:Core/Src/usart.c **** 
 244              		.loc 1 103 0
 245 000c 074A     		ldr	r2, .L23+4
 246 000e D2F8F430 		ldr	r3, [r2, #244]
 247 0012 23F00803 		bic	r3, r3, #8
 248 0016 C2F8F430 		str	r3, [r2, #244]
 109:Core/Src/usart.c **** 
 249              		.loc 1 109 0
 250 001a 4FF4C061 		mov	r1, #1536
 251 001e 0448     		ldr	r0, .L23+8
 252              	.LVL16:
 253 0020 FFF7FEFF 		bl	HAL_GPIO_DeInit
 254              	.LVL17:
 255              		.loc 1 115 0
 256 0024 F1E7     		b	.L19
 257              	.L24:
 258 0026 00BF     		.align	2
 259              	.L23:
 260 0028 000C0058 		.word	1476398080
 261 002c 00440258 		.word	1476543488
 262 0030 00000258 		.word	1476526080
 263              		.cfi_endproc
 264              	.LFE345:
 266              		.comm	hlpuart1,140,4
 267              		.text
 268              	.Letext0:
 269              		.file 2 "/usr/include/newlib/machine/_default_types.h"
 270              		.file 3 "/usr/include/newlib/sys/_stdint.h"
 271              		.file 4 "Drivers/CMSIS/Include/core_cm7.h"
 272              		.file 5 "Drivers/CMSIS/Device/ST/STM32H7xx/Include/system_stm32h7xx.h"
 273              		.file 6 "Drivers/CMSIS/Device/ST/STM32H7xx/Include/stm32h723xx.h"
 274              		.file 7 "/usr/include/newlib/sys/lock.h"
 275              		.file 8 "/usr/include/newlib/sys/_types.h"
 276              		.file 9 "/usr/lib/gcc/arm-none-eabi/7.3.1/include/stddef.h"
 277              		.file 10 "/usr/include/newlib/sys/reent.h"
 278              		.file 11 "/usr/include/newlib/math.h"
ARM GAS  /tmp/cc2zdldh.s 			page 8


 279              		.file 12 "Drivers/STM32H7xx_HAL_Driver/Inc/stm32h7xx_hal_def.h"
 280              		.file 13 "Drivers/STM32H7xx_HAL_Driver/Inc/stm32h7xx_hal_gpio.h"
 281              		.file 14 "Drivers/STM32H7xx_HAL_Driver/Inc/stm32h7xx_hal_dma.h"
 282              		.file 15 "Drivers/STM32H7xx_HAL_Driver/Inc/stm32h7xx_hal_flash.h"
 283              		.file 16 "Drivers/STM32H7xx_HAL_Driver/Inc/stm32h7xx_hal_uart.h"
 284              		.file 17 "Drivers/STM32H7xx_HAL_Driver/Inc/stm32h7xx_hal.h"
 285              		.file 18 "Core/Inc/usart.h"
 286              		.file 19 "Drivers/STM32H7xx_HAL_Driver/Inc/stm32h7xx_hal_uart_ex.h"
 287              		.file 20 "Core/Inc/main.h"
ARM GAS  /tmp/cc2zdldh.s 			page 9

