ARM GAS  /tmp/ccXsAlPw.s 			page 1


   1              		.cpu cortex-m7
   2              		.eabi_attribute 28, 1
   3              		.eabi_attribute 20, 1
   4              		.eabi_attribute 21, 1
   5              		.eabi_attribute 23, 3
   6              		.eabi_attribute 24, 1
   7              		.eabi_attribute 25, 1
   8              		.eabi_attribute 26, 1
   9              		.eabi_attribute 30, 1
  10              		.eabi_attribute 34, 1
  11              		.eabi_attribute 18, 4
  12              		.file	"octospi.c"
  13              		.text
  14              	.Ltext0:
  15              		.cfi_sections	.debug_frame
  16              		.section	.text.MX_OCTOSPI1_Init,"ax",%progbits
  17              		.align	1
  18              		.global	MX_OCTOSPI1_Init
  19              		.syntax unified
  20              		.thumb
  21              		.thumb_func
  22              		.fpu fpv5-d16
  24              	MX_OCTOSPI1_Init:
  25              	.LFB141:
  26              		.file 1 "Core/Src/octospi.c"
   1:Core/Src/octospi.c **** /**
   2:Core/Src/octospi.c ****   ******************************************************************************
   3:Core/Src/octospi.c ****   * @file    octospi.c
   4:Core/Src/octospi.c ****   * @brief   This file provides code for the configuration
   5:Core/Src/octospi.c ****   *          of the OCTOSPI instances.
   6:Core/Src/octospi.c ****   ******************************************************************************
   7:Core/Src/octospi.c ****   * @attention
   8:Core/Src/octospi.c ****   *
   9:Core/Src/octospi.c ****   * <h2><center>&copy; Copyright (c) 2021 STMicroelectronics.
  10:Core/Src/octospi.c ****   * All rights reserved.</center></h2>
  11:Core/Src/octospi.c ****   *
  12:Core/Src/octospi.c ****   * This software component is licensed by ST under BSD 3-Clause license,
  13:Core/Src/octospi.c ****   * the "License"; You may not use this file except in compliance with the
  14:Core/Src/octospi.c ****   * License. You may obtain a copy of the License at:
  15:Core/Src/octospi.c ****   *                        opensource.org/licenses/BSD-3-Clause
  16:Core/Src/octospi.c ****   *
  17:Core/Src/octospi.c ****   ******************************************************************************
  18:Core/Src/octospi.c ****   */
  19:Core/Src/octospi.c **** 
  20:Core/Src/octospi.c **** /* Includes ------------------------------------------------------------------*/
  21:Core/Src/octospi.c **** #include "octospi.h"
  22:Core/Src/octospi.c **** 
  23:Core/Src/octospi.c **** /* USER CODE BEGIN 0 */
  24:Core/Src/octospi.c **** 
  25:Core/Src/octospi.c **** /* USER CODE END 0 */
  26:Core/Src/octospi.c **** 
  27:Core/Src/octospi.c **** OSPI_HandleTypeDef hospi1;
  28:Core/Src/octospi.c **** 
  29:Core/Src/octospi.c **** /* OCTOSPI1 init function */
  30:Core/Src/octospi.c **** void MX_OCTOSPI1_Init(void)
  31:Core/Src/octospi.c **** {
  27              		.loc 1 31 0
ARM GAS  /tmp/ccXsAlPw.s 			page 2


  28              		.cfi_startproc
  29              		@ args = 0, pretend = 0, frame = 72
  30              		@ frame_needed = 0, uses_anonymous_args = 0
  31 0000 00B5     		push	{lr}
  32              	.LCFI0:
  33              		.cfi_def_cfa_offset 4
  34              		.cfi_offset 14, -4
  35 0002 93B0     		sub	sp, sp, #76
  36              	.LCFI1:
  37              		.cfi_def_cfa_offset 80
  32:Core/Src/octospi.c ****   OSPIM_CfgTypeDef sOspiManagerCfg = {0};
  38              		.loc 1 32 0
  39 0004 0023     		movs	r3, #0
  40 0006 0C93     		str	r3, [sp, #48]
  41 0008 0D93     		str	r3, [sp, #52]
  42 000a 0E93     		str	r3, [sp, #56]
  43 000c 0F93     		str	r3, [sp, #60]
  44 000e 1093     		str	r3, [sp, #64]
  45 0010 1193     		str	r3, [sp, #68]
  33:Core/Src/octospi.c ****   OSPI_HyperbusCfgTypeDef sHyperBusCfg = {0};
  46              		.loc 1 33 0
  47 0012 0893     		str	r3, [sp, #32]
  48 0014 0993     		str	r3, [sp, #36]
  49 0016 0A93     		str	r3, [sp, #40]
  50 0018 0B93     		str	r3, [sp, #44]
  34:Core/Src/octospi.c ****   OSPI_HyperbusCmdTypeDef sCommand = {0};
  51              		.loc 1 34 0
  52 001a 0393     		str	r3, [sp, #12]
  53 001c 0493     		str	r3, [sp, #16]
  54 001e 0593     		str	r3, [sp, #20]
  55 0020 0693     		str	r3, [sp, #24]
  56 0022 0793     		str	r3, [sp, #28]
  35:Core/Src/octospi.c ****   OSPI_MemoryMappedTypeDef sMemMappedCfg = {0};
  57              		.loc 1 35 0
  58 0024 0193     		str	r3, [sp, #4]
  59 0026 0293     		str	r3, [sp, #8]
  36:Core/Src/octospi.c **** 
  37:Core/Src/octospi.c ****   hospi1.Instance = OCTOSPI1;
  60              		.loc 1 37 0
  61 0028 3648     		ldr	r0, .L13
  62 002a 374A     		ldr	r2, .L13+4
  63 002c 0260     		str	r2, [r0]
  38:Core/Src/octospi.c ****   hospi1.Init.FifoThreshold = 1;
  64              		.loc 1 38 0
  65 002e 0122     		movs	r2, #1
  66 0030 4260     		str	r2, [r0, #4]
  39:Core/Src/octospi.c ****   hospi1.Init.DualQuad = HAL_OSPI_DUALQUAD_DISABLE;
  67              		.loc 1 39 0
  68 0032 8360     		str	r3, [r0, #8]
  40:Core/Src/octospi.c ****   hospi1.Init.MemoryType = HAL_OSPI_MEMTYPE_HYPERBUS;
  69              		.loc 1 40 0
  70 0034 4FF08061 		mov	r1, #67108864
  71 0038 C160     		str	r1, [r0, #12]
  41:Core/Src/octospi.c ****   hospi1.Init.DeviceSize = 22;
  72              		.loc 1 41 0
  73 003a 1621     		movs	r1, #22
  74 003c 0161     		str	r1, [r0, #16]
ARM GAS  /tmp/ccXsAlPw.s 			page 3


  42:Core/Src/octospi.c ****   hospi1.Init.FreeRunningClock = HAL_OSPI_FREERUNCLK_DISABLE;
  75              		.loc 1 42 0
  76 003e 8361     		str	r3, [r0, #24]
  43:Core/Src/octospi.c ****   hospi1.Init.ClockMode = HAL_OSPI_CLOCK_MODE_0;
  77              		.loc 1 43 0
  78 0040 C361     		str	r3, [r0, #28]
  44:Core/Src/octospi.c ****   hospi1.Init.WrapSize = HAL_OSPI_WRAP_32_BYTES;
  79              		.loc 1 44 0
  80 0042 4FF44031 		mov	r1, #196608
  81 0046 0162     		str	r1, [r0, #32]
  45:Core/Src/octospi.c ****   hospi1.Init.SampleShifting = HAL_OSPI_SAMPLE_SHIFTING_NONE;
  82              		.loc 1 45 0
  83 0048 8362     		str	r3, [r0, #40]
  46:Core/Src/octospi.c ****   hospi1.Init.DelayHoldQuarterCycle = HAL_OSPI_DHQC_ENABLE;
  84              		.loc 1 46 0
  85 004a 4FF08051 		mov	r1, #268435456
  86 004e C162     		str	r1, [r0, #44]
  47:Core/Src/octospi.c ****   hospi1.Init.ClockPrescaler = 16;
  87              		.loc 1 47 0
  88 0050 1021     		movs	r1, #16
  89 0052 4162     		str	r1, [r0, #36]
  48:Core/Src/octospi.c ****   hospi1.Init.ChipSelectHighTime = 1;
  90              		.loc 1 48 0
  91 0054 4261     		str	r2, [r0, #20]
  49:Core/Src/octospi.c ****   hospi1.Init.ChipSelectBoundary = 0; 
  92              		.loc 1 49 0
  93 0056 0363     		str	r3, [r0, #48]
  50:Core/Src/octospi.c ****   hospi1.Init.ClkChipSelectHighTime = 0;
  94              		.loc 1 50 0
  95 0058 4363     		str	r3, [r0, #52]
  51:Core/Src/octospi.c ****   hospi1.Init.DelayBlockBypass = HAL_OSPI_DELAY_BLOCK_BYPASSED;
  96              		.loc 1 51 0
  97 005a 0823     		movs	r3, #8
  98 005c 8363     		str	r3, [r0, #56]
  52:Core/Src/octospi.c ****   hospi1.Init.Refresh = 241;
  99              		.loc 1 52 0
 100 005e F123     		movs	r3, #241
 101 0060 0364     		str	r3, [r0, #64]
  53:Core/Src/octospi.c ****   if (HAL_OSPI_Init(&hospi1) != HAL_OK)
 102              		.loc 1 53 0
 103 0062 FFF7FEFF 		bl	HAL_OSPI_Init
 104              	.LVL0:
 105 0066 0028     		cmp	r0, #0
 106 0068 3DD1     		bne	.L8
 107              	.L2:
  54:Core/Src/octospi.c ****   {
  55:Core/Src/octospi.c ****     Error_Handler();
  56:Core/Src/octospi.c ****   }
  57:Core/Src/octospi.c **** 
  58:Core/Src/octospi.c ****   sOspiManagerCfg.ClkPort = 1;
 108              		.loc 1 58 0
 109 006a 0123     		movs	r3, #1
 110 006c 0C93     		str	r3, [sp, #48]
  59:Core/Src/octospi.c ****   sOspiManagerCfg.DQSPort = 1;
 111              		.loc 1 59 0
 112 006e 0D93     		str	r3, [sp, #52]
  60:Core/Src/octospi.c ****   sOspiManagerCfg.NCSPort = 1;
ARM GAS  /tmp/ccXsAlPw.s 			page 4


 113              		.loc 1 60 0
 114 0070 0E93     		str	r3, [sp, #56]
  61:Core/Src/octospi.c ****   sOspiManagerCfg.IOLowPort = HAL_OSPIM_IOPORT_1_LOW;
 115              		.loc 1 61 0
 116 0072 4FF00113 		mov	r3, #65537
 117 0076 0F93     		str	r3, [sp, #60]
  62:Core/Src/octospi.c ****   sOspiManagerCfg.IOHighPort = HAL_OSPIM_IOPORT_1_HIGH;
 118              		.loc 1 62 0
 119 0078 03F57F03 		add	r3, r3, #16711680
 120 007c 1093     		str	r3, [sp, #64]
  63:Core/Src/octospi.c ****   if (HAL_OSPIM_Config(&hospi1, &sOspiManagerCfg, HAL_OSPI_TIMEOUT_DEFAULT_VALUE) != HAL_OK)
 121              		.loc 1 63 0
 122 007e 41F28832 		movw	r2, #5000
 123 0082 0CA9     		add	r1, sp, #48
 124 0084 1F48     		ldr	r0, .L13
 125 0086 FFF7FEFF 		bl	HAL_OSPIM_Config
 126              	.LVL1:
 127 008a 0028     		cmp	r0, #0
 128 008c 2ED1     		bne	.L9
 129              	.L3:
  64:Core/Src/octospi.c ****   {
  65:Core/Src/octospi.c ****     Error_Handler();
  66:Core/Src/octospi.c ****   }
  67:Core/Src/octospi.c ****   sHyperBusCfg.RWRecoveryTime = 6;
 130              		.loc 1 67 0
 131 008e 0623     		movs	r3, #6
 132 0090 0893     		str	r3, [sp, #32]
  68:Core/Src/octospi.c ****   sHyperBusCfg.AccessTime = 3;
 133              		.loc 1 68 0
 134 0092 0323     		movs	r3, #3
 135 0094 0993     		str	r3, [sp, #36]
  69:Core/Src/octospi.c ****   sHyperBusCfg.WriteZeroLatency = HAL_OSPI_NO_LATENCY_ON_WRITE;
 136              		.loc 1 69 0
 137 0096 0223     		movs	r3, #2
 138 0098 0A93     		str	r3, [sp, #40]
  70:Core/Src/octospi.c ****   sHyperBusCfg.LatencyMode = HAL_OSPI_FIXED_LATENCY;
 139              		.loc 1 70 0
 140 009a 0123     		movs	r3, #1
 141 009c 0B93     		str	r3, [sp, #44]
  71:Core/Src/octospi.c ****   if (HAL_OSPI_HyperbusCfg(&hospi1, &sHyperBusCfg, HAL_OSPI_TIMEOUT_DEFAULT_VALUE) != HAL_OK)
 142              		.loc 1 71 0
 143 009e 41F28832 		movw	r2, #5000
 144 00a2 08A9     		add	r1, sp, #32
 145 00a4 1748     		ldr	r0, .L13
 146 00a6 FFF7FEFF 		bl	HAL_OSPI_HyperbusCfg
 147              	.LVL2:
 148 00aa 10BB     		cbnz	r0, .L10
 149              	.L4:
  72:Core/Src/octospi.c ****   {
  73:Core/Src/octospi.c ****     Error_Handler();
  74:Core/Src/octospi.c ****   }
  75:Core/Src/octospi.c **** 
  76:Core/Src/octospi.c ****   /* Memory-mapped mode configuration --------------------------------------- */
  77:Core/Src/octospi.c ****   sCommand.AddressSpace = HAL_OSPI_MEMORY_ADDRESS_SPACE;
 150              		.loc 1 77 0
 151 00ac 0023     		movs	r3, #0
 152 00ae 0393     		str	r3, [sp, #12]
ARM GAS  /tmp/ccXsAlPw.s 			page 5


  78:Core/Src/octospi.c ****   sCommand.AddressSize  = HAL_OSPI_ADDRESS_32_BITS;
 153              		.loc 1 78 0
 154 00b0 4FF44052 		mov	r2, #12288
 155 00b4 0592     		str	r2, [sp, #20]
  79:Core/Src/octospi.c ****   sCommand.DQSMode      = HAL_OSPI_DQS_ENABLE;
 156              		.loc 1 79 0
 157 00b6 4FF00052 		mov	r2, #536870912
 158 00ba 0792     		str	r2, [sp, #28]
  80:Core/Src/octospi.c ****   sCommand.Address      = 0;
 159              		.loc 1 80 0
 160 00bc 0493     		str	r3, [sp, #16]
  81:Core/Src/octospi.c ****   sCommand.NbData       = 1;
 161              		.loc 1 81 0
 162 00be 0123     		movs	r3, #1
 163 00c0 0693     		str	r3, [sp, #24]
  82:Core/Src/octospi.c **** 
  83:Core/Src/octospi.c ****   if (HAL_OSPI_HyperbusCmd(&hospi1, &sCommand, HAL_OSPI_TIMEOUT_DEFAULT_VALUE) != HAL_OK)
 164              		.loc 1 83 0
 165 00c2 41F28832 		movw	r2, #5000
 166 00c6 03A9     		add	r1, sp, #12
 167 00c8 0E48     		ldr	r0, .L13
 168 00ca FFF7FEFF 		bl	HAL_OSPI_HyperbusCmd
 169              	.LVL3:
 170 00ce 98B9     		cbnz	r0, .L11
 171              	.L5:
  84:Core/Src/octospi.c ****   {
  85:Core/Src/octospi.c ****     Error_Handler();
  86:Core/Src/octospi.c ****   }
  87:Core/Src/octospi.c **** 
  88:Core/Src/octospi.c ****   sMemMappedCfg.TimeOutActivation = HAL_OSPI_TIMEOUT_COUNTER_DISABLE;
 172              		.loc 1 88 0
 173 00d0 0023     		movs	r3, #0
 174 00d2 0193     		str	r3, [sp, #4]
  89:Core/Src/octospi.c ****   sMemMappedCfg.TimeOutPeriod = 0x0;
 175              		.loc 1 89 0
 176 00d4 0293     		str	r3, [sp, #8]
  90:Core/Src/octospi.c **** 
  91:Core/Src/octospi.c ****   if (HAL_OSPI_MemoryMapped(&hospi1, &sMemMappedCfg) != HAL_OK)
 177              		.loc 1 91 0
 178 00d6 01A9     		add	r1, sp, #4
 179 00d8 0A48     		ldr	r0, .L13
 180 00da FFF7FEFF 		bl	HAL_OSPI_MemoryMapped
 181              	.LVL4:
 182 00de 70B9     		cbnz	r0, .L12
 183              	.L1:
  92:Core/Src/octospi.c ****   {
  93:Core/Src/octospi.c ****     Error_Handler();
  94:Core/Src/octospi.c ****   }
  95:Core/Src/octospi.c **** 
  96:Core/Src/octospi.c **** }
 184              		.loc 1 96 0
 185 00e0 13B0     		add	sp, sp, #76
 186              	.LCFI2:
 187              		.cfi_remember_state
 188              		.cfi_def_cfa_offset 4
 189              		@ sp needed
 190 00e2 5DF804FB 		ldr	pc, [sp], #4
ARM GAS  /tmp/ccXsAlPw.s 			page 6


 191              	.L8:
 192              	.LCFI3:
 193              		.cfi_restore_state
  55:Core/Src/octospi.c ****   }
 194              		.loc 1 55 0
 195 00e6 FFF7FEFF 		bl	Error_Handler
 196              	.LVL5:
 197 00ea BEE7     		b	.L2
 198              	.L9:
  65:Core/Src/octospi.c ****   }
 199              		.loc 1 65 0
 200 00ec FFF7FEFF 		bl	Error_Handler
 201              	.LVL6:
 202 00f0 CDE7     		b	.L3
 203              	.L10:
  73:Core/Src/octospi.c ****   }
 204              		.loc 1 73 0
 205 00f2 FFF7FEFF 		bl	Error_Handler
 206              	.LVL7:
 207 00f6 D9E7     		b	.L4
 208              	.L11:
  85:Core/Src/octospi.c ****   }
 209              		.loc 1 85 0
 210 00f8 FFF7FEFF 		bl	Error_Handler
 211              	.LVL8:
 212 00fc E8E7     		b	.L5
 213              	.L12:
  93:Core/Src/octospi.c ****   }
 214              		.loc 1 93 0
 215 00fe FFF7FEFF 		bl	Error_Handler
 216              	.LVL9:
 217              		.loc 1 96 0
 218 0102 EDE7     		b	.L1
 219              	.L14:
 220              		.align	2
 221              	.L13:
 222 0104 00000000 		.word	hospi1
 223 0108 00500052 		.word	1375752192
 224              		.cfi_endproc
 225              	.LFE141:
 227              		.section	.text.HAL_OSPI_MspInit,"ax",%progbits
 228              		.align	1
 229              		.global	HAL_OSPI_MspInit
 230              		.syntax unified
 231              		.thumb
 232              		.thumb_func
 233              		.fpu fpv5-d16
 235              	HAL_OSPI_MspInit:
 236              	.LFB142:
  97:Core/Src/octospi.c **** 
  98:Core/Src/octospi.c **** void HAL_OSPI_MspInit(OSPI_HandleTypeDef* ospiHandle)
  99:Core/Src/octospi.c **** {
 237              		.loc 1 99 0
 238              		.cfi_startproc
 239              		@ args = 0, pretend = 0, frame = 40
 240              		@ frame_needed = 0, uses_anonymous_args = 0
 241              	.LVL10:
ARM GAS  /tmp/ccXsAlPw.s 			page 7


 242 0000 2DE9F043 		push	{r4, r5, r6, r7, r8, r9, lr}
 243              	.LCFI4:
 244              		.cfi_def_cfa_offset 28
 245              		.cfi_offset 4, -28
 246              		.cfi_offset 5, -24
 247              		.cfi_offset 6, -20
 248              		.cfi_offset 7, -16
 249              		.cfi_offset 8, -12
 250              		.cfi_offset 9, -8
 251              		.cfi_offset 14, -4
 252 0004 8BB0     		sub	sp, sp, #44
 253              	.LCFI5:
 254              		.cfi_def_cfa_offset 72
 100:Core/Src/octospi.c **** 
 101:Core/Src/octospi.c ****   GPIO_InitTypeDef GPIO_InitStruct = {0};
 255              		.loc 1 101 0
 256 0006 0023     		movs	r3, #0
 257 0008 0593     		str	r3, [sp, #20]
 258 000a 0693     		str	r3, [sp, #24]
 259 000c 0793     		str	r3, [sp, #28]
 260 000e 0893     		str	r3, [sp, #32]
 261 0010 0993     		str	r3, [sp, #36]
 102:Core/Src/octospi.c ****   if(ospiHandle->Instance==OCTOSPI1)
 262              		.loc 1 102 0
 263 0012 0268     		ldr	r2, [r0]
 264 0014 4C4B     		ldr	r3, .L19
 265 0016 9A42     		cmp	r2, r3
 266 0018 02D0     		beq	.L18
 267              	.LVL11:
 268              	.L15:
 103:Core/Src/octospi.c ****   {
 104:Core/Src/octospi.c ****   /* USER CODE BEGIN OCTOSPI1_MspInit 0 */
 105:Core/Src/octospi.c **** 
 106:Core/Src/octospi.c ****   /* USER CODE END OCTOSPI1_MspInit 0 */
 107:Core/Src/octospi.c ****     /* OCTOSPI1 clock enable */
 108:Core/Src/octospi.c ****     __HAL_RCC_OSPI1_CLK_ENABLE();
 109:Core/Src/octospi.c **** 
 110:Core/Src/octospi.c ****     __HAL_RCC_GPIOA_CLK_ENABLE();
 111:Core/Src/octospi.c ****     __HAL_RCC_GPIOC_CLK_ENABLE();
 112:Core/Src/octospi.c ****     __HAL_RCC_GPIOB_CLK_ENABLE();
 113:Core/Src/octospi.c ****     __HAL_RCC_GPIOE_CLK_ENABLE();
 114:Core/Src/octospi.c ****     /**OCTOSPI1 GPIO Configuration
 115:Core/Src/octospi.c ****     PA6     ------> OCTOSPIM_P1_IO3
 116:Core/Src/octospi.c ****     PA7     ------> OCTOSPIM_P1_IO2
 117:Core/Src/octospi.c ****     PC5     ------> OCTOSPIM_P1_DQS
 118:Core/Src/octospi.c ****     PB0     ------> OCTOSPIM_P1_IO1
 119:Core/Src/octospi.c ****     PB1     ------> OCTOSPIM_P1_IO0
 120:Core/Src/octospi.c ****     PB2     ------> OCTOSPIM_P1_CLK
 121:Core/Src/octospi.c ****     PE7     ------> OCTOSPIM_P1_IO4
 122:Core/Src/octospi.c ****     PE8     ------> OCTOSPIM_P1_IO5
 123:Core/Src/octospi.c ****     PE9     ------> OCTOSPIM_P1_IO6
 124:Core/Src/octospi.c ****     PE10     ------> OCTOSPIM_P1_IO7
 125:Core/Src/octospi.c ****     PE11     ------> OCTOSPIM_P1_NCS
 126:Core/Src/octospi.c ****     */
 127:Core/Src/octospi.c ****     GPIO_InitStruct.Pin = GPIO_PIN_6;
 128:Core/Src/octospi.c ****     GPIO_InitStruct.Mode = GPIO_MODE_AF_PP;
 129:Core/Src/octospi.c ****     GPIO_InitStruct.Pull = GPIO_NOPULL;
ARM GAS  /tmp/ccXsAlPw.s 			page 8


 130:Core/Src/octospi.c ****     GPIO_InitStruct.Speed = GPIO_SPEED_FREQ_VERY_HIGH;
 131:Core/Src/octospi.c ****     GPIO_InitStruct.Alternate = GPIO_AF6_OCTOSPIM_P1;
 132:Core/Src/octospi.c ****     HAL_GPIO_Init(GPIOA, &GPIO_InitStruct);
 133:Core/Src/octospi.c **** 
 134:Core/Src/octospi.c ****     GPIO_InitStruct.Pin = GPIO_PIN_7;
 135:Core/Src/octospi.c ****     GPIO_InitStruct.Mode = GPIO_MODE_AF_PP;
 136:Core/Src/octospi.c ****     GPIO_InitStruct.Pull = GPIO_NOPULL;
 137:Core/Src/octospi.c ****     GPIO_InitStruct.Speed = GPIO_SPEED_FREQ_VERY_HIGH;
 138:Core/Src/octospi.c ****     GPIO_InitStruct.Alternate = GPIO_AF10_OCTOSPIM_P1;
 139:Core/Src/octospi.c ****     HAL_GPIO_Init(GPIOA, &GPIO_InitStruct);
 140:Core/Src/octospi.c **** 
 141:Core/Src/octospi.c ****     GPIO_InitStruct.Pin = GPIO_PIN_5;
 142:Core/Src/octospi.c ****     GPIO_InitStruct.Mode = GPIO_MODE_AF_PP;
 143:Core/Src/octospi.c ****     GPIO_InitStruct.Pull = GPIO_NOPULL;
 144:Core/Src/octospi.c ****     GPIO_InitStruct.Speed = GPIO_SPEED_FREQ_VERY_HIGH;
 145:Core/Src/octospi.c ****     GPIO_InitStruct.Alternate = GPIO_AF10_OCTOSPIM_P1;
 146:Core/Src/octospi.c ****     HAL_GPIO_Init(GPIOC, &GPIO_InitStruct);
 147:Core/Src/octospi.c **** 
 148:Core/Src/octospi.c ****     GPIO_InitStruct.Pin = GPIO_PIN_0|GPIO_PIN_1;
 149:Core/Src/octospi.c ****     GPIO_InitStruct.Mode = GPIO_MODE_AF_PP;
 150:Core/Src/octospi.c ****     GPIO_InitStruct.Pull = GPIO_NOPULL;
 151:Core/Src/octospi.c ****     GPIO_InitStruct.Speed = GPIO_SPEED_FREQ_VERY_HIGH;
 152:Core/Src/octospi.c ****     GPIO_InitStruct.Alternate = GPIO_AF4_OCTOSPIM_P1;
 153:Core/Src/octospi.c ****     HAL_GPIO_Init(GPIOB, &GPIO_InitStruct);
 154:Core/Src/octospi.c **** 
 155:Core/Src/octospi.c ****     GPIO_InitStruct.Pin = GPIO_PIN_2;
 156:Core/Src/octospi.c ****     GPIO_InitStruct.Mode = GPIO_MODE_AF_PP;
 157:Core/Src/octospi.c ****     GPIO_InitStruct.Pull = GPIO_NOPULL;
 158:Core/Src/octospi.c ****     GPIO_InitStruct.Speed = GPIO_SPEED_FREQ_VERY_HIGH;
 159:Core/Src/octospi.c ****     GPIO_InitStruct.Alternate = GPIO_AF9_OCTOSPIM_P1;
 160:Core/Src/octospi.c ****     HAL_GPIO_Init(GPIOB, &GPIO_InitStruct);
 161:Core/Src/octospi.c **** 
 162:Core/Src/octospi.c ****     GPIO_InitStruct.Pin = GPIO_PIN_7|GPIO_PIN_8|GPIO_PIN_9|GPIO_PIN_10;
 163:Core/Src/octospi.c ****     GPIO_InitStruct.Mode = GPIO_MODE_AF_PP;
 164:Core/Src/octospi.c ****     GPIO_InitStruct.Pull = GPIO_NOPULL;
 165:Core/Src/octospi.c ****     GPIO_InitStruct.Speed = GPIO_SPEED_FREQ_VERY_HIGH;
 166:Core/Src/octospi.c ****     GPIO_InitStruct.Alternate = GPIO_AF10_OCTOSPIM_P1;
 167:Core/Src/octospi.c ****     HAL_GPIO_Init(GPIOE, &GPIO_InitStruct);
 168:Core/Src/octospi.c **** 
 169:Core/Src/octospi.c ****     GPIO_InitStruct.Pin = GPIO_PIN_11;
 170:Core/Src/octospi.c ****     GPIO_InitStruct.Mode = GPIO_MODE_AF_PP;
 171:Core/Src/octospi.c ****     GPIO_InitStruct.Pull = GPIO_NOPULL;
 172:Core/Src/octospi.c ****     GPIO_InitStruct.Speed = GPIO_SPEED_FREQ_VERY_HIGH;
 173:Core/Src/octospi.c ****     GPIO_InitStruct.Alternate = GPIO_AF11_OCTOSPIM_P1;
 174:Core/Src/octospi.c ****     HAL_GPIO_Init(GPIOE, &GPIO_InitStruct);
 175:Core/Src/octospi.c **** 
 176:Core/Src/octospi.c ****   /* USER CODE BEGIN OCTOSPI1_MspInit 1 */
 177:Core/Src/octospi.c **** 
 178:Core/Src/octospi.c ****   /* USER CODE END OCTOSPI1_MspInit 1 */
 179:Core/Src/octospi.c ****   }
 180:Core/Src/octospi.c **** }
 269              		.loc 1 180 0
 270 001a 0BB0     		add	sp, sp, #44
 271              	.LCFI6:
 272              		.cfi_remember_state
 273              		.cfi_def_cfa_offset 28
 274              		@ sp needed
ARM GAS  /tmp/ccXsAlPw.s 			page 9


 275 001c BDE8F083 		pop	{r4, r5, r6, r7, r8, r9, pc}
 276              	.LVL12:
 277              	.L18:
 278              	.LCFI7:
 279              		.cfi_restore_state
 280              	.LBB2:
 108:Core/Src/octospi.c **** 
 281              		.loc 1 108 0
 282 0020 4A4B     		ldr	r3, .L19+4
 283 0022 D3F8D420 		ldr	r2, [r3, #212]
 284 0026 42F48042 		orr	r2, r2, #16384
 285 002a C3F8D420 		str	r2, [r3, #212]
 286 002e D3F8D420 		ldr	r2, [r3, #212]
 287 0032 02F48042 		and	r2, r2, #16384
 288 0036 0092     		str	r2, [sp]
 289 0038 009A     		ldr	r2, [sp]
 290              	.LBE2:
 291              	.LBB3:
 110:Core/Src/octospi.c ****     __HAL_RCC_GPIOC_CLK_ENABLE();
 292              		.loc 1 110 0
 293 003a D3F8E020 		ldr	r2, [r3, #224]
 294 003e 42F00102 		orr	r2, r2, #1
 295 0042 C3F8E020 		str	r2, [r3, #224]
 296 0046 D3F8E020 		ldr	r2, [r3, #224]
 297 004a 02F00102 		and	r2, r2, #1
 298 004e 0192     		str	r2, [sp, #4]
 299 0050 019A     		ldr	r2, [sp, #4]
 300              	.LBE3:
 301              	.LBB4:
 111:Core/Src/octospi.c ****     __HAL_RCC_GPIOB_CLK_ENABLE();
 302              		.loc 1 111 0
 303 0052 D3F8E020 		ldr	r2, [r3, #224]
 304 0056 42F00402 		orr	r2, r2, #4
 305 005a C3F8E020 		str	r2, [r3, #224]
 306 005e D3F8E020 		ldr	r2, [r3, #224]
 307 0062 02F00402 		and	r2, r2, #4
 308 0066 0292     		str	r2, [sp, #8]
 309 0068 029A     		ldr	r2, [sp, #8]
 310              	.LBE4:
 311              	.LBB5:
 112:Core/Src/octospi.c ****     __HAL_RCC_GPIOE_CLK_ENABLE();
 312              		.loc 1 112 0
 313 006a D3F8E020 		ldr	r2, [r3, #224]
 314 006e 42F00202 		orr	r2, r2, #2
 315 0072 C3F8E020 		str	r2, [r3, #224]
 316 0076 D3F8E020 		ldr	r2, [r3, #224]
 317 007a 02F00202 		and	r2, r2, #2
 318 007e 0392     		str	r2, [sp, #12]
 319 0080 039A     		ldr	r2, [sp, #12]
 320              	.LBE5:
 321              	.LBB6:
 113:Core/Src/octospi.c ****     /**OCTOSPI1 GPIO Configuration
 322              		.loc 1 113 0
 323 0082 D3F8E020 		ldr	r2, [r3, #224]
 324 0086 42F01002 		orr	r2, r2, #16
 325 008a C3F8E020 		str	r2, [r3, #224]
 326 008e D3F8E030 		ldr	r3, [r3, #224]
ARM GAS  /tmp/ccXsAlPw.s 			page 10


 327 0092 03F01003 		and	r3, r3, #16
 328 0096 0493     		str	r3, [sp, #16]
 329 0098 049B     		ldr	r3, [sp, #16]
 330              	.LBE6:
 127:Core/Src/octospi.c ****     GPIO_InitStruct.Mode = GPIO_MODE_AF_PP;
 331              		.loc 1 127 0
 332 009a 4023     		movs	r3, #64
 333 009c 0593     		str	r3, [sp, #20]
 128:Core/Src/octospi.c ****     GPIO_InitStruct.Pull = GPIO_NOPULL;
 334              		.loc 1 128 0
 335 009e 0225     		movs	r5, #2
 336 00a0 0695     		str	r5, [sp, #24]
 130:Core/Src/octospi.c ****     GPIO_InitStruct.Alternate = GPIO_AF6_OCTOSPIM_P1;
 337              		.loc 1 130 0
 338 00a2 0324     		movs	r4, #3
 339 00a4 0894     		str	r4, [sp, #32]
 131:Core/Src/octospi.c ****     HAL_GPIO_Init(GPIOA, &GPIO_InitStruct);
 340              		.loc 1 131 0
 341 00a6 0623     		movs	r3, #6
 342 00a8 0993     		str	r3, [sp, #36]
 132:Core/Src/octospi.c **** 
 343              		.loc 1 132 0
 344 00aa DFF8AC80 		ldr	r8, .L19+16
 345 00ae 05A9     		add	r1, sp, #20
 346 00b0 4046     		mov	r0, r8
 347              	.LVL13:
 348 00b2 FFF7FEFF 		bl	HAL_GPIO_Init
 349              	.LVL14:
 134:Core/Src/octospi.c ****     GPIO_InitStruct.Mode = GPIO_MODE_AF_PP;
 350              		.loc 1 134 0
 351 00b6 8023     		movs	r3, #128
 352 00b8 0593     		str	r3, [sp, #20]
 135:Core/Src/octospi.c ****     GPIO_InitStruct.Pull = GPIO_NOPULL;
 353              		.loc 1 135 0
 354 00ba 0695     		str	r5, [sp, #24]
 136:Core/Src/octospi.c ****     GPIO_InitStruct.Speed = GPIO_SPEED_FREQ_VERY_HIGH;
 355              		.loc 1 136 0
 356 00bc 0026     		movs	r6, #0
 357 00be 0796     		str	r6, [sp, #28]
 137:Core/Src/octospi.c ****     GPIO_InitStruct.Alternate = GPIO_AF10_OCTOSPIM_P1;
 358              		.loc 1 137 0
 359 00c0 0894     		str	r4, [sp, #32]
 138:Core/Src/octospi.c ****     HAL_GPIO_Init(GPIOA, &GPIO_InitStruct);
 360              		.loc 1 138 0
 361 00c2 0A27     		movs	r7, #10
 362 00c4 0997     		str	r7, [sp, #36]
 139:Core/Src/octospi.c **** 
 363              		.loc 1 139 0
 364 00c6 05A9     		add	r1, sp, #20
 365 00c8 4046     		mov	r0, r8
 366 00ca FFF7FEFF 		bl	HAL_GPIO_Init
 367              	.LVL15:
 141:Core/Src/octospi.c ****     GPIO_InitStruct.Mode = GPIO_MODE_AF_PP;
 368              		.loc 1 141 0
 369 00ce 2023     		movs	r3, #32
 370 00d0 0593     		str	r3, [sp, #20]
 142:Core/Src/octospi.c ****     GPIO_InitStruct.Pull = GPIO_NOPULL;
ARM GAS  /tmp/ccXsAlPw.s 			page 11


 371              		.loc 1 142 0
 372 00d2 0695     		str	r5, [sp, #24]
 143:Core/Src/octospi.c ****     GPIO_InitStruct.Speed = GPIO_SPEED_FREQ_VERY_HIGH;
 373              		.loc 1 143 0
 374 00d4 0796     		str	r6, [sp, #28]
 144:Core/Src/octospi.c ****     GPIO_InitStruct.Alternate = GPIO_AF10_OCTOSPIM_P1;
 375              		.loc 1 144 0
 376 00d6 0894     		str	r4, [sp, #32]
 145:Core/Src/octospi.c ****     HAL_GPIO_Init(GPIOC, &GPIO_InitStruct);
 377              		.loc 1 145 0
 378 00d8 0997     		str	r7, [sp, #36]
 146:Core/Src/octospi.c **** 
 379              		.loc 1 146 0
 380 00da 05A9     		add	r1, sp, #20
 381 00dc 1C48     		ldr	r0, .L19+8
 382 00de FFF7FEFF 		bl	HAL_GPIO_Init
 383              	.LVL16:
 148:Core/Src/octospi.c ****     GPIO_InitStruct.Mode = GPIO_MODE_AF_PP;
 384              		.loc 1 148 0
 385 00e2 0594     		str	r4, [sp, #20]
 149:Core/Src/octospi.c ****     GPIO_InitStruct.Pull = GPIO_NOPULL;
 386              		.loc 1 149 0
 387 00e4 0695     		str	r5, [sp, #24]
 150:Core/Src/octospi.c ****     GPIO_InitStruct.Speed = GPIO_SPEED_FREQ_VERY_HIGH;
 388              		.loc 1 150 0
 389 00e6 0796     		str	r6, [sp, #28]
 151:Core/Src/octospi.c ****     GPIO_InitStruct.Alternate = GPIO_AF4_OCTOSPIM_P1;
 390              		.loc 1 151 0
 391 00e8 0894     		str	r4, [sp, #32]
 152:Core/Src/octospi.c ****     HAL_GPIO_Init(GPIOB, &GPIO_InitStruct);
 392              		.loc 1 152 0
 393 00ea 4FF00409 		mov	r9, #4
 394 00ee CDF82490 		str	r9, [sp, #36]
 153:Core/Src/octospi.c **** 
 395              		.loc 1 153 0
 396 00f2 08F58068 		add	r8, r8, #1024
 397 00f6 05A9     		add	r1, sp, #20
 398 00f8 4046     		mov	r0, r8
 399 00fa FFF7FEFF 		bl	HAL_GPIO_Init
 400              	.LVL17:
 155:Core/Src/octospi.c ****     GPIO_InitStruct.Mode = GPIO_MODE_AF_PP;
 401              		.loc 1 155 0
 402 00fe CDF81490 		str	r9, [sp, #20]
 156:Core/Src/octospi.c ****     GPIO_InitStruct.Pull = GPIO_NOPULL;
 403              		.loc 1 156 0
 404 0102 0695     		str	r5, [sp, #24]
 157:Core/Src/octospi.c ****     GPIO_InitStruct.Speed = GPIO_SPEED_FREQ_VERY_HIGH;
 405              		.loc 1 157 0
 406 0104 0796     		str	r6, [sp, #28]
 158:Core/Src/octospi.c ****     GPIO_InitStruct.Alternate = GPIO_AF9_OCTOSPIM_P1;
 407              		.loc 1 158 0
 408 0106 0894     		str	r4, [sp, #32]
 159:Core/Src/octospi.c ****     HAL_GPIO_Init(GPIOB, &GPIO_InitStruct);
 409              		.loc 1 159 0
 410 0108 0923     		movs	r3, #9
 411 010a 0993     		str	r3, [sp, #36]
 160:Core/Src/octospi.c **** 
ARM GAS  /tmp/ccXsAlPw.s 			page 12


 412              		.loc 1 160 0
 413 010c 05A9     		add	r1, sp, #20
 414 010e 4046     		mov	r0, r8
 415 0110 FFF7FEFF 		bl	HAL_GPIO_Init
 416              	.LVL18:
 162:Core/Src/octospi.c ****     GPIO_InitStruct.Mode = GPIO_MODE_AF_PP;
 417              		.loc 1 162 0
 418 0114 4FF4F063 		mov	r3, #1920
 419 0118 0593     		str	r3, [sp, #20]
 163:Core/Src/octospi.c ****     GPIO_InitStruct.Pull = GPIO_NOPULL;
 420              		.loc 1 163 0
 421 011a 0695     		str	r5, [sp, #24]
 164:Core/Src/octospi.c ****     GPIO_InitStruct.Speed = GPIO_SPEED_FREQ_VERY_HIGH;
 422              		.loc 1 164 0
 423 011c 0796     		str	r6, [sp, #28]
 165:Core/Src/octospi.c ****     GPIO_InitStruct.Alternate = GPIO_AF10_OCTOSPIM_P1;
 424              		.loc 1 165 0
 425 011e 0894     		str	r4, [sp, #32]
 166:Core/Src/octospi.c ****     HAL_GPIO_Init(GPIOE, &GPIO_InitStruct);
 426              		.loc 1 166 0
 427 0120 0997     		str	r7, [sp, #36]
 167:Core/Src/octospi.c **** 
 428              		.loc 1 167 0
 429 0122 0C4F     		ldr	r7, .L19+12
 430 0124 05A9     		add	r1, sp, #20
 431 0126 3846     		mov	r0, r7
 432 0128 FFF7FEFF 		bl	HAL_GPIO_Init
 433              	.LVL19:
 169:Core/Src/octospi.c ****     GPIO_InitStruct.Mode = GPIO_MODE_AF_PP;
 434              		.loc 1 169 0
 435 012c 4FF40063 		mov	r3, #2048
 436 0130 0593     		str	r3, [sp, #20]
 170:Core/Src/octospi.c ****     GPIO_InitStruct.Pull = GPIO_NOPULL;
 437              		.loc 1 170 0
 438 0132 0695     		str	r5, [sp, #24]
 171:Core/Src/octospi.c ****     GPIO_InitStruct.Speed = GPIO_SPEED_FREQ_VERY_HIGH;
 439              		.loc 1 171 0
 440 0134 0796     		str	r6, [sp, #28]
 172:Core/Src/octospi.c ****     GPIO_InitStruct.Alternate = GPIO_AF11_OCTOSPIM_P1;
 441              		.loc 1 172 0
 442 0136 0894     		str	r4, [sp, #32]
 173:Core/Src/octospi.c ****     HAL_GPIO_Init(GPIOE, &GPIO_InitStruct);
 443              		.loc 1 173 0
 444 0138 0B23     		movs	r3, #11
 445 013a 0993     		str	r3, [sp, #36]
 174:Core/Src/octospi.c **** 
 446              		.loc 1 174 0
 447 013c 05A9     		add	r1, sp, #20
 448 013e 3846     		mov	r0, r7
 449 0140 FFF7FEFF 		bl	HAL_GPIO_Init
 450              	.LVL20:
 451              		.loc 1 180 0
 452 0144 69E7     		b	.L15
 453              	.L20:
 454 0146 00BF     		.align	2
 455              	.L19:
 456 0148 00500052 		.word	1375752192
ARM GAS  /tmp/ccXsAlPw.s 			page 13


 457 014c 00440258 		.word	1476543488
 458 0150 00080258 		.word	1476528128
 459 0154 00100258 		.word	1476530176
 460 0158 00000258 		.word	1476526080
 461              		.cfi_endproc
 462              	.LFE142:
 464              		.section	.text.HAL_OSPI_MspDeInit,"ax",%progbits
 465              		.align	1
 466              		.global	HAL_OSPI_MspDeInit
 467              		.syntax unified
 468              		.thumb
 469              		.thumb_func
 470              		.fpu fpv5-d16
 472              	HAL_OSPI_MspDeInit:
 473              	.LFB143:
 181:Core/Src/octospi.c **** 
 182:Core/Src/octospi.c **** void HAL_OSPI_MspDeInit(OSPI_HandleTypeDef* ospiHandle)
 183:Core/Src/octospi.c **** {
 474              		.loc 1 183 0
 475              		.cfi_startproc
 476              		@ args = 0, pretend = 0, frame = 0
 477              		@ frame_needed = 0, uses_anonymous_args = 0
 478              	.LVL21:
 479 0000 08B5     		push	{r3, lr}
 480              	.LCFI8:
 481              		.cfi_def_cfa_offset 8
 482              		.cfi_offset 3, -8
 483              		.cfi_offset 14, -4
 184:Core/Src/octospi.c **** 
 185:Core/Src/octospi.c ****   if(ospiHandle->Instance==OCTOSPI1)
 484              		.loc 1 185 0
 485 0002 0268     		ldr	r2, [r0]
 486 0004 0E4B     		ldr	r3, .L25
 487 0006 9A42     		cmp	r2, r3
 488 0008 00D0     		beq	.L24
 489              	.LVL22:
 490              	.L21:
 186:Core/Src/octospi.c ****   {
 187:Core/Src/octospi.c ****   /* USER CODE BEGIN OCTOSPI1_MspDeInit 0 */
 188:Core/Src/octospi.c **** 
 189:Core/Src/octospi.c ****   /* USER CODE END OCTOSPI1_MspDeInit 0 */
 190:Core/Src/octospi.c ****     /* Peripheral clock disable */
 191:Core/Src/octospi.c ****     __HAL_RCC_OSPI1_CLK_DISABLE();
 192:Core/Src/octospi.c **** 
 193:Core/Src/octospi.c ****     /**OCTOSPI1 GPIO Configuration
 194:Core/Src/octospi.c ****     PA6     ------> OCTOSPIM_P1_IO3
 195:Core/Src/octospi.c ****     PA7     ------> OCTOSPIM_P1_IO2
 196:Core/Src/octospi.c ****     PC5     ------> OCTOSPIM_P1_DQS
 197:Core/Src/octospi.c ****     PB0     ------> OCTOSPIM_P1_IO1
 198:Core/Src/octospi.c ****     PB1     ------> OCTOSPIM_P1_IO0
 199:Core/Src/octospi.c ****     PB2     ------> OCTOSPIM_P1_CLK
 200:Core/Src/octospi.c ****     PE7     ------> OCTOSPIM_P1_IO4
 201:Core/Src/octospi.c ****     PE8     ------> OCTOSPIM_P1_IO5
 202:Core/Src/octospi.c ****     PE9     ------> OCTOSPIM_P1_IO6
 203:Core/Src/octospi.c ****     PE10     ------> OCTOSPIM_P1_IO7
 204:Core/Src/octospi.c ****     PE11     ------> OCTOSPIM_P1_NCS
 205:Core/Src/octospi.c ****     */
ARM GAS  /tmp/ccXsAlPw.s 			page 14


 206:Core/Src/octospi.c ****     HAL_GPIO_DeInit(GPIOA, GPIO_PIN_6|GPIO_PIN_7);
 207:Core/Src/octospi.c **** 
 208:Core/Src/octospi.c ****     HAL_GPIO_DeInit(GPIOC, GPIO_PIN_5);
 209:Core/Src/octospi.c **** 
 210:Core/Src/octospi.c ****     HAL_GPIO_DeInit(GPIOB, GPIO_PIN_0|GPIO_PIN_1|GPIO_PIN_2);
 211:Core/Src/octospi.c **** 
 212:Core/Src/octospi.c ****     HAL_GPIO_DeInit(GPIOE, GPIO_PIN_7|GPIO_PIN_8|GPIO_PIN_9|GPIO_PIN_10
 213:Core/Src/octospi.c ****                           |GPIO_PIN_11);
 214:Core/Src/octospi.c **** 
 215:Core/Src/octospi.c ****   /* USER CODE BEGIN OCTOSPI1_MspDeInit 1 */
 216:Core/Src/octospi.c **** 
 217:Core/Src/octospi.c ****   /* USER CODE END OCTOSPI1_MspDeInit 1 */
 218:Core/Src/octospi.c ****   }
 219:Core/Src/octospi.c **** }
 491              		.loc 1 219 0
 492 000a 08BD     		pop	{r3, pc}
 493              	.LVL23:
 494              	.L24:
 191:Core/Src/octospi.c **** 
 495              		.loc 1 191 0
 496 000c 0D4A     		ldr	r2, .L25+4
 497 000e D2F8D430 		ldr	r3, [r2, #212]
 498 0012 23F48043 		bic	r3, r3, #16384
 499 0016 C2F8D430 		str	r3, [r2, #212]
 206:Core/Src/octospi.c **** 
 500              		.loc 1 206 0
 501 001a C021     		movs	r1, #192
 502 001c 0A48     		ldr	r0, .L25+8
 503              	.LVL24:
 504 001e FFF7FEFF 		bl	HAL_GPIO_DeInit
 505              	.LVL25:
 208:Core/Src/octospi.c **** 
 506              		.loc 1 208 0
 507 0022 2021     		movs	r1, #32
 508 0024 0948     		ldr	r0, .L25+12
 509 0026 FFF7FEFF 		bl	HAL_GPIO_DeInit
 510              	.LVL26:
 210:Core/Src/octospi.c **** 
 511              		.loc 1 210 0
 512 002a 0721     		movs	r1, #7
 513 002c 0848     		ldr	r0, .L25+16
 514 002e FFF7FEFF 		bl	HAL_GPIO_DeInit
 515              	.LVL27:
 212:Core/Src/octospi.c ****                           |GPIO_PIN_11);
 516              		.loc 1 212 0
 517 0032 4FF47861 		mov	r1, #3968
 518 0036 0748     		ldr	r0, .L25+20
 519 0038 FFF7FEFF 		bl	HAL_GPIO_DeInit
 520              	.LVL28:
 521              		.loc 1 219 0
 522 003c E5E7     		b	.L21
 523              	.L26:
 524 003e 00BF     		.align	2
 525              	.L25:
 526 0040 00500052 		.word	1375752192
 527 0044 00440258 		.word	1476543488
 528 0048 00000258 		.word	1476526080
ARM GAS  /tmp/ccXsAlPw.s 			page 15


 529 004c 00080258 		.word	1476528128
 530 0050 00040258 		.word	1476527104
 531 0054 00100258 		.word	1476530176
 532              		.cfi_endproc
 533              	.LFE143:
 535              		.comm	hospi1,96,4
 536              		.text
 537              	.Letext0:
 538              		.file 2 "/usr/include/newlib/machine/_default_types.h"
 539              		.file 3 "/usr/include/newlib/sys/_stdint.h"
 540              		.file 4 "Drivers/CMSIS/Include/core_cm7.h"
 541              		.file 5 "Drivers/CMSIS/Device/ST/STM32H7xx/Include/system_stm32h7xx.h"
 542              		.file 6 "Drivers/CMSIS/Device/ST/STM32H7xx/Include/stm32h723xx.h"
 543              		.file 7 "/usr/include/newlib/sys/lock.h"
 544              		.file 8 "/usr/include/newlib/sys/_types.h"
 545              		.file 9 "/usr/lib/gcc/arm-none-eabi/7.3.1/include/stddef.h"
 546              		.file 10 "/usr/include/newlib/sys/reent.h"
 547              		.file 11 "/usr/include/newlib/math.h"
 548              		.file 12 "Drivers/STM32H7xx_HAL_Driver/Inc/stm32h7xx_hal_def.h"
 549              		.file 13 "Drivers/STM32H7xx_HAL_Driver/Inc/stm32h7xx_hal_gpio.h"
 550              		.file 14 "Drivers/STM32H7xx_HAL_Driver/Inc/stm32h7xx_hal_mdma.h"
 551              		.file 15 "Drivers/STM32H7xx_HAL_Driver/Inc/stm32h7xx_hal_flash.h"
 552              		.file 16 "Drivers/STM32H7xx_HAL_Driver/Inc/stm32h7xx_hal_ospi.h"
 553              		.file 17 "Drivers/STM32H7xx_HAL_Driver/Inc/stm32h7xx_hal.h"
 554              		.file 18 "Core/Inc/octospi.h"
 555              		.file 19 "Core/Inc/main.h"
ARM GAS  /tmp/ccXsAlPw.s 			page 16

